EXPORTS 
	??_R0?AU_Crt_new_delete@std@@@8 	 DATA
	??_R0?AV?$_Func_base@PAUggml_cgraph@@$$V@std@@@8 	 DATA
	??_R0?AV?$_Iosb@H@std@@@8 	 DATA
	??_R0?AV?$_Node_class@DV?$regex_traits@D@std@@@std@@@8 	 DATA
	??_R0?AV?$_Node_str@D@std@@@8 	 DATA
	??_R0?AV?$basic_filebuf@DU?$char_traits@D@std@@@std@@@8 	 DATA
	??_R0?AV?$basic_ifstream@DU?$char_traits@D@std@@@std@@@8 	 DATA
	??_R0?AV?$basic_ios@DU?$char_traits@D@std@@@std@@@8 	 DATA
	??_R0?AV?$basic_istream@DU?$char_traits@D@std@@@std@@@8 	 DATA
	??_R0?AV?$basic_ofstream@DU?$char_traits@D@std@@@std@@@8 	 DATA
	??_R0?AV?$basic_ostream@DU?$char_traits@D@std@@@std@@@8 	 DATA
	??_R0?AV?$basic_streambuf@DU?$char_traits@D@std@@@std@@@8 	 DATA
	??_R0?AV?$codecvt@_WDU_Mbstatet@@@std@@@8 	 DATA
	??_R0?AV?$codecvt_utf8@_W$0BAPPPP@$0A@@std@@@8 	 DATA
	??_R0?AV?$collate@D@std@@@8 	 DATA
	??_R0?AV?$wstring_convert@V?$codecvt_utf8@_W$0BAPPPP@$0A@@std@@_WV?$allocator@_W@2@V?$allocator@D@2@@std@@@8 	 DATA
	??_R0?AV_Facet_base@std@@@8 	 DATA
	??_R0?AV_Node_assert@std@@@8 	 DATA
	??_R0?AV_Node_back@std@@@8 	 DATA
	??_R0?AV_Node_base@std@@@8 	 DATA
	??_R0?AV_Node_capture@std@@@8 	 DATA
	??_R0?AV_Node_end_group@std@@@8 	 DATA
	??_R0?AV_Node_end_rep@std@@@8 	 DATA
	??_R0?AV_Node_endif@std@@@8 	 DATA
	??_R0?AV_Node_if@std@@@8 	 DATA
	??_R0?AV_Node_rep@std@@@8 	 DATA
	??_R0?AV_Root_node@std@@@8 	 DATA
	??_R0?AVbad_alloc@std@@@8 	 DATA
	??_R0?AVbad_array_new_length@std@@@8 	 DATA
	??_R0?AVbad_cast@std@@@8 	 DATA
	??_R0?AVcodecvt_base@std@@@8 	 DATA
	??_R0?AVexception@std@@@8 	 DATA
	??_R0?AVfacet@locale@std@@@8 	 DATA
	??_R0?AVios_base@std@@@8 	 DATA
	??_R0?AVrange_error@std@@@8 	 DATA
	??_R0?AVruntime_error@std@@@8 	 DATA
	?_OptionsStorage@?1??__local_stdio_printf_options@@9@4_KA 	 DATA
	?_Psave@?$_Facetptr@V?$codecvt@DDU_Mbstatet@@@std@@@std@@2PBVfacet@locale@2@B 	 DATA
	?_Psave@?$_Facetptr@V?$collate@D@std@@@std@@2PBVfacet@locale@2@B 	 DATA
	?_Psave@?$_Facetptr@V?$ctype@D@std@@@std@@2PBVfacet@locale@2@B 	 DATA
	?_Stinit@?1??_Init@?$basic_filebuf@DU?$char_traits@D@std@@@std@@IAEXPAU_iobuf@@W4_Initfl@23@@Z@4U_Mbstatet@@A 	 DATA
	??$?0$$CBV?$basic_string@DU?$char_traits@D@std@@V?$allocator@D@2@@std@@H$0A@@?$pair@V?$basic_string@DU?$char_traits@D@std@@V?$allocator@D@2@@std@@H@std@@QAE@ABU?$pair@$$CBV?$basic_string@DU?$char_traits@D@std@@V?$allocator@D@2@@std@@H@1@@Z
	??$?0$$CBV?$basic_string@DU?$char_traits@D@std@@V?$allocator@D@2@@std@@U?$pair@HV?$basic_string@DU?$char_traits@D@std@@V?$allocator@D@2@@std@@@1@$0A@@?$pair@$$CBV?$basic_string@DU?$char_traits@D@std@@V?$allocator@D@2@@std@@U?$pair@HV?$basic_string@DU?$char_traits@D@std@@V?$allocator@D@2@@std@@@2@@std@@QAE@ABV?$basic_string@DU?$char_traits@D@std@@V?$allocator@D@2@@1@ABU?$pair@HV?$basic_string@DU?$char_traits@D@std@@V?$allocator@D@2@@std@@@1@@Z
	??$?0$$CBW4asr_system@@V?$map@W4asr_tensor@@PBDU?$less@W4asr_tensor@@@std@@V?$allocator@U?$pair@$$CBW4asr_tensor@@PBD@std@@@3@@std@@$0A@@?$pair@$$CBW4asr_system@@V?$map@W4asr_tensor@@PBDU?$less@W4asr_tensor@@@std@@V?$allocator@U?$pair@$$CBW4asr_tensor@@PBD@std@@@3@@std@@@std@@QAE@ABW4asr_system@@ABV?$map@W4asr_tensor@@PBDU?$less@W4asr_tensor@@@std@@V?$allocator@U?$pair@$$CBW4asr_tensor@@PBD@std@@@3@@1@@Z
	??$?0$$CBW4whisper_alignment_heads_preset@@Uwhisper_aheads@@$0A@@?$pair@$$CBW4whisper_alignment_heads_preset@@Uwhisper_aheads@@@std@@QAE@ABW4whisper_alignment_heads_preset@@ABUwhisper_aheads@@@Z
	??$?0$$QAV?$basic_string@DU?$char_traits@D@std@@V?$allocator@D@2@@std@@$$Z$$V@?$pair@$$CBV?$basic_string@DU?$char_traits@D@std@@V?$allocator@D@2@@std@@PAUggml_tensor@@@std@@QAE@Upiecewise_construct_t@1@V?$tuple@$$QAV?$basic_string@DU?$char_traits@D@std@@V?$allocator@D@2@@std@@@1@V?$tuple@$$V@1@@Z
	??$?0$$V@?$_Compressed_pair@V?$allocator@D@std@@V?$_String_val@U?$_Simple_types@D@std@@@2@$00@std@@QAE@U_Zero_then_variadic_args_t@1@@Z
	??$?0$$V@?$_Compressed_pair@V?$allocator@D@std@@V?$_Vector_val@U?$_Simple_types@D@std@@@2@$00@std@@QAE@U_Zero_then_variadic_args_t@1@@Z
	??$?0$$V@?$_Compressed_pair@V?$allocator@E@std@@V?$_Vector_val@U?$_Simple_types@E@std@@@2@$00@std@@QAE@U_Zero_then_variadic_args_t@1@@Z
	??$?0$$V@?$_Compressed_pair@V?$allocator@H@std@@V?$_Vector_val@U?$_Simple_types@H@std@@@2@$00@std@@QAE@U_Zero_then_variadic_args_t@1@@Z
	??$?0$$V@?$_Compressed_pair@V?$allocator@I@std@@V?$_Vector_val@U?$_Simple_types@I@std@@@2@$00@std@@QAE@U_Zero_then_variadic_args_t@1@@Z
	??$?0$$V@?$_Compressed_pair@V?$allocator@M@std@@V?$_Vector_val@U?$_Simple_types@M@std@@@2@$00@std@@QAE@U_Zero_then_variadic_args_t@1@@Z
	??$?0$$V@?$_Compressed_pair@V?$allocator@N@std@@V?$_Vector_val@U?$_Simple_types@N@std@@@2@$00@std@@QAE@U_Zero_then_variadic_args_t@1@@Z
	??$?0$$V@?$_Compressed_pair@V?$allocator@PAUggml_backend@@@std@@V?$_Vector_val@U?$_Simple_types@PAUggml_backend@@@std@@@2@$00@std@@QAE@U_Zero_then_variadic_args_t@1@@Z
	??$?0$$V@?$_Compressed_pair@V?$allocator@PAUggml_backend_buffer@@@std@@V?$_Vector_val@U?$_Simple_types@PAUggml_backend_buffer@@@std@@@2@$00@std@@QAE@U_Zero_then_variadic_args_t@1@@Z
	??$?0$$V@?$_Compressed_pair@V?$allocator@PAUggml_context@@@std@@V?$_Vector_val@U?$_Simple_types@PAUggml_context@@@std@@@2@$00@std@@QAE@U_Zero_then_variadic_args_t@1@@Z
	??$?0$$V@?$_Compressed_pair@V?$allocator@PAUggml_tensor@@@std@@V?$_Vector_val@U?$_Simple_types@PAUggml_tensor@@@std@@@2@$00@std@@QAE@U_Zero_then_variadic_args_t@1@@Z
	??$?0$$V@?$_Compressed_pair@V?$allocator@PAUwhisper_state@@@std@@V?$_Vector_val@U?$_Simple_types@PAUwhisper_state@@@std@@@2@$00@std@@QAE@U_Zero_then_variadic_args_t@1@@Z
	??$?0$$V@?$_Compressed_pair@V?$allocator@PBUwhisper_grammar_element@@@std@@V?$_Vector_val@U?$_Simple_types@PBUwhisper_grammar_element@@@std@@@2@$00@std@@QAE@U_Zero_then_variadic_args_t@1@@Z
	??$?0$$V@?$_Compressed_pair@V?$allocator@U?$_Tree_node@HPAX@std@@@std@@V?$_Tree_val@U?$_Tree_simple_types@H@std@@@2@$00@std@@QAE@U_Zero_then_variadic_args_t@1@@Z
	??$?0$$V@?$_Compressed_pair@V?$allocator@U?$_Tree_node@U?$pair@$$CBHH@std@@PAX@std@@@std@@V?$_Tree_val@U?$_Tree_simple_types@U?$pair@$$CBHH@std@@@std@@@2@$00@std@@QAE@U_Zero_then_variadic_args_t@1@@Z
	??$?0$$V@?$_Compressed_pair@V?$allocator@U?$_Tree_node@U?$pair@$$CBHV?$basic_string@DU?$char_traits@D@std@@V?$allocator@D@2@@std@@@std@@PAX@std@@@std@@V?$_Tree_val@U?$_Tree_simple_types@U?$pair@$$CBHV?$basic_string@DU?$char_traits@D@std@@V?$allocator@D@2@@std@@@std@@@std@@@2@$00@std@@QAE@U_Zero_then_variadic_args_t@1@@Z
	??$?0$$V@?$_Compressed_pair@V?$allocator@U?$_Tree_node@U?$pair@$$CBV?$basic_string@DU?$char_traits@D@std@@V?$allocator@D@2@@std@@H@std@@PAX@std@@@std@@V?$_Tree_val@U?$_Tree_simple_types@U?$pair@$$CBV?$basic_string@DU?$char_traits@D@std@@V?$allocator@D@2@@std@@H@std@@@std@@@2@$00@std@@QAE@U_Zero_then_variadic_args_t@1@@Z
	??$?0$$V@?$_Compressed_pair@V?$allocator@U?$_Tree_node@U?$pair@$$CBV?$basic_string@DU?$char_traits@D@std@@V?$allocator@D@2@@std@@PAUggml_tensor@@@std@@PAX@std@@@std@@V?$_Tree_val@U?$_Tree_simple_types@U?$pair@$$CBV?$basic_string@DU?$char_traits@D@std@@V?$allocator@D@2@@std@@PAUggml_tensor@@@std@@@std@@@2@$00@std@@QAE@U_Zero_then_variadic_args_t@1@@Z
	??$?0$$V@?$_Compressed_pair@V?$allocator@U?$_Tree_node@U?$pair@$$CBV?$basic_string@DU?$char_traits@D@std@@V?$allocator@D@2@@std@@U?$pair@HV?$basic_string@DU?$char_traits@D@std@@V?$allocator@D@2@@std@@@2@@std@@PAX@std@@@std@@V?$_Tree_val@U?$_Tree_simple_types@U?$pair@$$CBV?$basic_string@DU?$char_traits@D@std@@V?$allocator@D@2@@std@@U?$pair@HV?$basic_string@DU?$char_traits@D@std@@V?$allocator@D@2@@std@@@2@@std@@@std@@@2@$00@std@@QAE@U_Zero_then_variadic_args_t@1@@Z
	??$?0$$V@?$_Compressed_pair@V?$allocator@U?$_Tree_node@U?$pair@$$CBW4asr_system@@V?$map@W4asr_tensor@@PBDU?$less@W4asr_tensor@@@std@@V?$allocator@U?$pair@$$CBW4asr_tensor@@PBD@std@@@3@@std@@@std@@PAX@std@@@std@@V?$_Tree_val@U?$_Tree_simple_types@U?$pair@$$CBW4asr_system@@V?$map@W4asr_tensor@@PBDU?$less@W4asr_tensor@@@std@@V?$allocator@U?$pair@$$CBW4asr_tensor@@PBD@std@@@3@@std@@@std@@@std@@@2@$00@std@@QAE@U_Zero_then_variadic_args_t@1@@Z
	??$?0$$V@?$_Compressed_pair@V?$allocator@U?$_Tree_node@U?$pair@$$CBW4asr_tensor@@PBD@std@@PAX@std@@@std@@V?$_Tree_val@U?$_Tree_simple_types@U?$pair@$$CBW4asr_tensor@@PBD@std@@@std@@@2@$00@std@@QAE@U_Zero_then_variadic_args_t@1@@Z
	??$?0$$V@?$_Compressed_pair@V?$allocator@U?$_Tree_node@U?$pair@$$CBW4asr_tensor@@W4ggml_op@@@std@@PAX@std@@@std@@V?$_Tree_val@U?$_Tree_simple_types@U?$pair@$$CBW4asr_tensor@@W4ggml_op@@@std@@@std@@@2@$00@std@@QAE@U_Zero_then_variadic_args_t@1@@Z
	??$?0$$V@?$_Compressed_pair@V?$allocator@U?$_Tree_node@U?$pair@$$CBW4e_model@@V?$basic_string@DU?$char_traits@D@std@@V?$allocator@D@2@@std@@@std@@PAX@std@@@std@@V?$_Tree_val@U?$_Tree_simple_types@U?$pair@$$CBW4e_model@@V?$basic_string@DU?$char_traits@D@std@@V?$allocator@D@2@@std@@@std@@@std@@@2@$00@std@@QAE@U_Zero_then_variadic_args_t@1@@Z
	??$?0$$V@?$_Compressed_pair@V?$allocator@U?$_Tree_node@U?$pair@$$CBW4vad_tensor@@PBD@std@@PAX@std@@@std@@V?$_Tree_val@U?$_Tree_simple_types@U?$pair@$$CBW4vad_tensor@@PBD@std@@@std@@@2@$00@std@@QAE@U_Zero_then_variadic_args_t@1@@Z
	??$?0$$V@?$_Compressed_pair@V?$allocator@U?$_Tree_node@U?$pair@$$CBW4vad_tensor@@W4ggml_op@@@std@@PAX@std@@@std@@V?$_Tree_val@U?$_Tree_simple_types@U?$pair@$$CBW4vad_tensor@@W4ggml_op@@@std@@@std@@@2@$00@std@@QAE@U_Zero_then_variadic_args_t@1@@Z
	??$?0$$V@?$_Compressed_pair@V?$allocator@U?$_Tree_node@U?$pair@$$CBW4whisper_alignment_heads_preset@@Uwhisper_aheads@@@std@@PAX@std@@@std@@V?$_Tree_val@U?$_Tree_simple_types@U?$pair@$$CBW4whisper_alignment_heads_preset@@Uwhisper_aheads@@@std@@@std@@@2@$00@std@@QAE@U_Zero_then_variadic_args_t@1@@Z
	??$?0$$V@?$_Compressed_pair@V?$allocator@U?$_Tree_node@U?$pair@QAUggml_backend_buffer_type@@PAUggml_context@@@std@@PAX@std@@@std@@V?$_Tree_val@U?$_Tree_simple_types@U?$pair@QAUggml_backend_buffer_type@@PAUggml_context@@@std@@@std@@@2@$00@std@@QAE@U_Zero_then_variadic_args_t@1@@Z
	??$?0$$V@?$_Compressed_pair@V?$allocator@U?$pair@PAUggml_backend_device@@PAUggml_backend_buffer_type@@@std@@@std@@V?$_Vector_val@U?$_Simple_types@U?$pair@PAUggml_backend_device@@PAUggml_backend_buffer_type@@@std@@@std@@@2@$00@std@@QAE@U_Zero_then_variadic_args_t@1@@Z
	??$?0$$V@?$_Compressed_pair@V?$allocator@U?$pair@V?$vector@IV?$allocator@I@std@@@std@@Uwhisper_partial_utf8@@@std@@@std@@V?$_Vector_val@U?$_Simple_types@U?$pair@V?$vector@IV?$allocator@I@std@@@std@@Uwhisper_partial_utf8@@@std@@@std@@@2@$00@std@@QAE@U_Zero_then_variadic_args_t@1@@Z
	??$?0$$V@?$_Compressed_pair@V?$allocator@U?$whisper_pair@NH@@@std@@V?$_Vector_val@U?$_Simple_types@U?$whisper_pair@NH@@@std@@@2@$00@std@@QAE@U_Zero_then_variadic_args_t@1@@Z
	??$?0$$V@?$_Compressed_pair@V?$allocator@U_Grp_t@?$_Tgt_state_t@PBD@std@@@std@@V?$_Vector_val@U?$_Simple_types@U_Grp_t@?$_Tgt_state_t@PBD@std@@@std@@@2@$00@std@@QAE@U_Zero_then_variadic_args_t@1@@Z
	??$?0$$V@?$_Compressed_pair@V?$allocator@U_Grp_t@?$_Tgt_state_t@V?$_String_const_iterator@V?$_String_val@U?$_Simple_types@D@std@@@std@@@std@@@std@@@std@@V?$_Vector_val@U?$_Simple_types@U_Grp_t@?$_Tgt_state_t@V?$_String_const_iterator@V?$_String_val@U?$_Simple_types@D@std@@@std@@@std@@@std@@@std@@@2@$00@std@@QAE@U_Zero_then_variadic_args_t@1@@Z
	??$?0$$V@?$_Compressed_pair@V?$allocator@U_Loop_vals_t@std@@@std@@V?$_Vector_val@U?$_Simple_types@U_Loop_vals_t@std@@@std@@@2@$00@std@@QAE@U_Zero_then_variadic_args_t@1@@Z
	??$?0$$V@?$_Compressed_pair@V?$allocator@Uvad_segment_info@whisper_state@@@std@@V?$_Vector_val@U?$_Simple_types@Uvad_segment_info@whisper_state@@@std@@@2@$00@std@@QAE@U_Zero_then_variadic_args_t@1@@Z
	??$?0$$V@?$_Compressed_pair@V?$allocator@Uvad_time_mapping@@@std@@V?$_Vector_val@U?$_Simple_types@Uvad_time_mapping@@@std@@@2@$00@std@@QAE@U_Zero_then_variadic_args_t@1@@Z
	??$?0$$V@?$_Compressed_pair@V?$allocator@Uwhisper_grammar_candidate@@@std@@V?$_Vector_val@U?$_Simple_types@Uwhisper_grammar_candidate@@@std@@@2@$00@std@@QAE@U_Zero_then_variadic_args_t@1@@Z
	??$?0$$V@?$_Compressed_pair@V?$allocator@Uwhisper_grammar_element@@@std@@V?$_Vector_val@U?$_Simple_types@Uwhisper_grammar_element@@@std@@@2@$00@std@@QAE@U_Zero_then_variadic_args_t@1@@Z
	??$?0$$V@?$_Compressed_pair@V?$allocator@Uwhisper_kv_cell@@@std@@V?$_Vector_val@U?$_Simple_types@Uwhisper_kv_cell@@@std@@@2@$00@std@@QAE@U_Zero_then_variadic_args_t@1@@Z
	??$?0$$V@?$_Compressed_pair@V?$allocator@Uwhisper_layer_decoder@@@std@@V?$_Vector_val@U?$_Simple_types@Uwhisper_layer_decoder@@@std@@@2@$00@std@@QAE@U_Zero_then_variadic_args_t@1@@Z
	??$?0$$V@?$_Compressed_pair@V?$allocator@Uwhisper_layer_encoder@@@std@@V?$_Vector_val@U?$_Simple_types@Uwhisper_layer_encoder@@@std@@@2@$00@std@@QAE@U_Zero_then_variadic_args_t@1@@Z
	??$?0$$V@?$_Compressed_pair@V?$allocator@Uwhisper_segment@@@std@@V?$_Vector_val@U?$_Simple_types@Uwhisper_segment@@@std@@@2@$00@std@@QAE@U_Zero_then_variadic_args_t@1@@Z
	??$?0$$V@?$_Compressed_pair@V?$allocator@Uwhisper_token_data@@@std@@V?$_Vector_val@U?$_Simple_types@Uwhisper_token_data@@@std@@@2@$00@std@@QAE@U_Zero_then_variadic_args_t@1@@Z
	??$?0$$V@?$_Compressed_pair@V?$allocator@Uwhisper_vad_segment@@@std@@V?$_Vector_val@U?$_Simple_types@Uwhisper_vad_segment@@@std@@@2@$00@std@@QAE@U_Zero_then_variadic_args_t@1@@Z
	??$?0$$V@?$_Compressed_pair@V?$allocator@V?$basic_string@DU?$char_traits@D@std@@V?$allocator@D@2@@std@@@std@@V?$_Vector_val@U?$_Simple_types@V?$basic_string@DU?$char_traits@D@std@@V?$allocator@D@2@@std@@@std@@@2@$00@std@@QAE@U_Zero_then_variadic_args_t@1@@Z
	??$?0$$V@?$_Compressed_pair@V?$allocator@V?$sub_match@V?$_String_const_iterator@V?$_String_val@U?$_Simple_types@D@std@@@std@@@std@@@std@@@std@@V?$_Vector_val@U?$_Simple_types@V?$sub_match@V?$_String_const_iterator@V?$_String_val@U?$_Simple_types@D@std@@@std@@@std@@@std@@@std@@@2@$00@std@@QAE@U_Zero_then_variadic_args_t@1@@Z
	??$?0$$V@?$_Compressed_pair@V?$allocator@V?$vector@PBUwhisper_grammar_element@@V?$allocator@PBUwhisper_grammar_element@@@std@@@std@@@std@@V?$_Vector_val@U?$_Simple_types@V?$vector@PBUwhisper_grammar_element@@V?$allocator@PBUwhisper_grammar_element@@@std@@@std@@@std@@@2@$00@std@@QAE@U_Zero_then_variadic_args_t@1@@Z
	??$?0$$V@?$_Compressed_pair@V?$allocator@V?$vector@Uwhisper_grammar_element@@V?$allocator@Uwhisper_grammar_element@@@std@@@std@@@std@@V?$_Vector_val@U?$_Simple_types@V?$vector@Uwhisper_grammar_element@@V?$allocator@Uwhisper_grammar_element@@@std@@@std@@@std@@@2@$00@std@@QAE@U_Zero_then_variadic_args_t@1@@Z
	??$?0$$V@?$_Compressed_pair@V?$allocator@_W@std@@V?$_String_val@U?$_Simple_types@_W@std@@@2@$00@std@@QAE@U_Zero_then_variadic_args_t@1@@Z
	??$?0A6AHPAUwhisper_context@@PAUwhisper_state@@Uwhisper_full_params@@PBMH@Z@?$_Tuple_val@P6AHPAUwhisper_context@@PAUwhisper_state@@Uwhisper_full_params@@PBMH@Z@std@@QAE@A6AHPAUwhisper_context@@PAUwhisper_state@@Uwhisper_full_params@@PBMH@Z@Z
	??$?0A6AHPAUwhisper_context@@PAUwhisper_state@@Uwhisper_full_params@@PBMH@ZAAPAU0@AAPAU1@U2@PBMABH$0A@@?$tuple@P6AHPAUwhisper_context@@PAUwhisper_state@@Uwhisper_full_params@@PBMH@ZPAU1@PAU2@U3@PBMH@std@@QAE@A6AHPAUwhisper_context@@PAUwhisper_state@@Uwhisper_full_params@@PBMH@ZAAPAU2@AAPAU3@$$QAU4@$$QAPBMABH@Z
	??$?0A6AHPAUwhisper_context@@PAUwhisper_state@@Uwhisper_full_params@@PBMH@ZAAPAU0@AAPAU1@U2@PBMABH$0A@@thread@std@@QAE@A6AHPAUwhisper_context@@PAUwhisper_state@@Uwhisper_full_params@@PBMH@ZAAPAU2@AAPAU3@$$QAU4@$$QAPBMABH@Z
	??$?0A6AXHPBMABV?$vector@MV?$allocator@M@std@@@std@@HHHHABUwhisper_filters@@AAUwhisper_mel@@@Z@?$_Tuple_val@P6AXHPBMABV?$vector@MV?$allocator@M@std@@@std@@HHHHABUwhisper_filters@@AAUwhisper_mel@@@Z@std@@QAE@A6AXHPBMABV?$vector@MV?$allocator@M@std@@@1@HHHHABUwhisper_filters@@AAUwhisper_mel@@@Z@Z
	??$?0A6AXHPBMABV?$vector@MV?$allocator@M@std@@@std@@HHHHABUwhisper_filters@@AAUwhisper_mel@@@ZHAAPBMV?$reference_wrapper@$$CBV?$vector@MV?$allocator@M@std@@@std@@@1@_JABHABHABHV?$reference_wrapper@$$CBUwhisper_filters@@@1@V?$reference_wrapper@Uwhisper_mel@@@1@$0A@@?$tuple@P6AXHPBMABV?$vector@MV?$allocator@M@std@@@std@@HHHHABUwhisper_filters@@AAUwhisper_mel@@@ZHPBMV?$reference_wrapper@$$CBV?$vector@MV?$allocator@M@std@@@std@@@2@_JHHHV?$reference_wrapper@$$CBUwhisper_filters@@@2@V?$reference_wrapper@Uwhisper_mel@@@2@@std@@QAE@A6AXHPBMABV?$vector@MV?$allocator@M@std@@@1@HHHHABUwhisper_filters@@AAUwhisper_mel@@@Z$$QAHAAPBM$$QAV?$reference_wrapper@$$CBV?$vector@MV?$allocator@M@std@@@std@@@1@$$QA_JABH99$$QAV?$reference_wrapper@$$CBUwhisper_filters@@@1@$$QAV?$reference_wrapper@Uwhisper_mel@@@1@@Z
	??$?0A6AXHPBMABV?$vector@MV?$allocator@M@std@@@std@@HHHHABUwhisper_filters@@AAUwhisper_mel@@@ZHAAPBMV?$reference_wrapper@$$CBV?$vector@MV?$allocator@M@std@@@std@@@1@_JABHABHABHV?$reference_wrapper@$$CBUwhisper_filters@@@1@V?$reference_wrapper@Uwhisper_mel@@@1@$0A@@thread@std@@QAE@A6AXHPBMABV?$vector@MV?$allocator@M@std@@@1@HHHHABUwhisper_filters@@AAUwhisper_mel@@@Z$$QAHAAPBM$$QAV?$reference_wrapper@$$CBV?$vector@MV?$allocator@M@std@@@std@@@1@$$QA_JABH99$$QAV?$reference_wrapper@$$CBUwhisper_filters@@@1@$$QAV?$reference_wrapper@Uwhisper_mel@@@1@@Z
	??$?0AAH@?$_Tuple_val@H@std@@QAE@AAH@Z
	??$?0AAPAMAAPAM$0A@@?$pair@PAMPAM@std@@QAE@AAPAM0@Z
	??$?0AAPAU?$_Tree_node@HPAX@std@@AAPAU01@$0A@@?$pair@PAU?$_Tree_node@HPAX@std@@PAU12@@std@@QAE@AAPAU?$_Tree_node@HPAX@1@0@Z
	??$?0AAPAU?$_Tree_node@HPAX@std@@_N$0A@@?$pair@PAU?$_Tree_node@HPAX@std@@_N@std@@QAE@AAPAU?$_Tree_node@HPAX@1@$$QA_N@Z
	??$?0AAPAU?$whisper_pair@NH@@AAPAU0@$0A@@?$pair@PAU?$whisper_pair@NH@@PAU1@@std@@QAE@AAPAU?$whisper_pair@NH@@0@Z
	??$?0AAPAUggml_backend@@@?$_Compressed_pair@Uggml_backend_deleter@@PAUggml_backend@@$00@std@@QAE@U_Zero_then_variadic_args_t@1@AAPAUggml_backend@@@Z
	??$?0AAPAUggml_backend_device@@AAPAUggml_backend_buffer_type@@$0A@@?$pair@PAUggml_backend_device@@PAUggml_backend_buffer_type@@@std@@QAE@AAPAUggml_backend_device@@AAPAUggml_backend_buffer_type@@@Z
	??$?0AAPAUggml_backend_device@@PAUggml_backend_buffer_type@@$0A@@?$pair@PAUggml_backend_device@@PAUggml_backend_buffer_type@@@std@@QAE@AAPAUggml_backend_device@@$$QAPAUggml_backend_buffer_type@@@Z
	??$?0AAPAUggml_context@@@?$_Compressed_pair@Uggml_context_deleter@@PAUggml_context@@$00@std@@QAE@U_Zero_then_variadic_args_t@1@AAPAUggml_context@@@Z
	??$?0AAPAUvad_time_mapping@@AAPAU0@$0A@@?$pair@PAUvad_time_mapping@@PAU1@@std@@QAE@AAPAUvad_time_mapping@@0@Z
	??$?0AAPAUwhisper_context@@@?$_Tuple_val@PAUwhisper_context@@@std@@QAE@AAPAUwhisper_context@@@Z
	??$?0AAPAUwhisper_state@@@?$_Tuple_val@PAUwhisper_state@@@std@@QAE@AAPAUwhisper_state@@@Z
	??$?0AAPAV?$tuple@P6AHPAUwhisper_context@@PAUwhisper_state@@Uwhisper_full_params@@PBMH@ZPAU1@PAU2@U3@PBMH@std@@@?$_Compressed_pair@U?$default_delete@V?$tuple@P6AHPAUwhisper_context@@PAUwhisper_state@@Uwhisper_full_params@@PBMH@ZPAU1@PAU2@U3@PBMH@std@@@std@@PAV?$tuple@P6AHPAUwhisper_context@@PAUwhisper_state@@Uwhisper_full_params@@PBMH@ZPAU1@PAU2@U3@PBMH@2@$00@std@@QAE@U_Zero_then_variadic_args_t@1@AAPAV?$tuple@P6AHPAUwhisper_context@@PAUwhisper_state@@Uwhisper_full_params@@PBMH@ZPAU1@PAU2@U3@PBMH@1@@Z
	??$?0AAPAV?$tuple@P6AXHPBMABV?$vector@MV?$allocator@M@std@@@std@@HHHHABUwhisper_filters@@AAUwhisper_mel@@@ZHPBMV?$reference_wrapper@$$CBV?$vector@MV?$allocator@M@std@@@std@@@2@_JHHHV?$reference_wrapper@$$CBUwhisper_filters@@@2@V?$reference_wrapper@Uwhisper_mel@@@2@@std@@@?$_Compressed_pair@U?$default_delete@V?$tuple@P6AXHPBMABV?$vector@MV?$allocator@M@std@@@std@@HHHHABUwhisper_filters@@AAUwhisper_mel@@@ZHPBMV?$reference_wrapper@$$CBV?$vector@MV?$allocator@M@std@@@std@@@2@_JHHHV?$reference_wrapper@$$CBUwhisper_filters@@@2@V?$reference_wrapper@Uwhisper_mel@@@2@@std@@@std@@PAV?$tuple@P6AXHPBMABV?$vector@MV?$allocator@M@std@@@std@@HHHHABUwhisper_filters@@AAUwhisper_mel@@@ZHPBMV?$reference_wrapper@$$CBV?$vector@MV?$allocator@M@std@@@std@@@2@_JHHHV?$reference_wrapper@$$CBUwhisper_filters@@@2@V?$reference_wrapper@Uwhisper_mel@@@2@@2@$00@std@@QAE@U_Zero_then_variadic_args_t@1@AAPAV?$tuple@P6AXHPBMABV?$vector@MV?$allocator@M@std@@@std@@HHHHABUwhisper_filters@@AAUwhisper_mel@@@ZHPBMV?$reference_wrapper@$$CBV?$vector@MV?$allocator@M@std@@@std@@@2@_JHHHV?$reference_wrapper@$$CBUwhisper_filters@@@2@V?$reference_wrapper@Uwhisper_mel@@@2@@1@@Z
	??$?0AAPAV_Facet_base@std@@@?$_Compressed_pair@U?$default_delete@V_Facet_base@std@@@std@@PAV_Facet_base@2@$00@std@@QAE@U_Zero_then_variadic_args_t@1@AAPAV_Facet_base@1@@Z
	??$?0AAPAV_Node_assert@std@@@?$_Compressed_pair@U?$default_delete@V_Node_assert@std@@@std@@PAV_Node_assert@2@$00@std@@QAE@U_Zero_then_variadic_args_t@1@AAPAV_Node_assert@1@@Z
	??$?0AAPBM@?$_Tuple_val@PBM@std@@QAE@AAPBM@Z
	??$?0AAUwhisper_mel@@$0A@@?$reference_wrapper@Uwhisper_mel@@@std@@QAE@AAUwhisper_mel@@@Z
	??$?0AAV?$allocator@D@std@@$$V@?$_Compressed_pair@V?$allocator@D@std@@V?$_String_val@U?$_Simple_types@D@std@@@2@$00@std@@QAE@U_One_then_variadic_args_t@1@AAV?$allocator@D@1@@Z
	??$?0ABH$$Z$$V@?$pair@$$CBHH@std@@QAE@Upiecewise_construct_t@1@V?$tuple@ABH@1@V?$tuple@$$V@1@@Z
	??$?0ABH$$Z$$V@?$pair@$$CBHV?$basic_string@DU?$char_traits@D@std@@V?$allocator@D@2@@std@@@std@@QAE@Upiecewise_construct_t@1@V?$tuple@ABH@1@V?$tuple@$$V@1@@Z
	??$?0ABH$0A@@?$tuple@ABH@std@@QAE@ABH@Z
	??$?0ABH@?$_Tree_temp_node@V?$allocator@U?$_Tree_node@HPAX@std@@@std@@@std@@QAE@AAV?$allocator@U?$_Tree_node@HPAX@std@@@1@PAU?$_Tree_node@HPAX@1@ABH@Z
	??$?0ABH@?$_Tuple_val@ABH@std@@QAE@ABH@Z
	??$?0ABH@?$_Tuple_val@H@std@@QAE@ABH@Z
	??$?0ABQAU?$_Tree_node@U?$pair@$$CBHH@std@@PAX@std@@_N$0A@@?$pair@PAU?$_Tree_node@U?$pair@$$CBHH@std@@PAX@std@@_N@std@@QAE@ABQAU?$_Tree_node@U?$pair@$$CBHH@std@@PAX@1@$$QA_N@Z
	??$?0ABQAU?$_Tree_node@U?$pair@$$CBHV?$basic_string@DU?$char_traits@D@std@@V?$allocator@D@2@@std@@@std@@PAX@std@@_N$0A@@?$pair@PAU?$_Tree_node@U?$pair@$$CBHV?$basic_string@DU?$char_traits@D@std@@V?$allocator@D@2@@std@@@std@@PAX@std@@_N@std@@QAE@ABQAU?$_Tree_node@U?$pair@$$CBHV?$basic_string@DU?$char_traits@D@std@@V?$allocator@D@2@@std@@@std@@PAX@1@$$QA_N@Z
	??$?0ABQAU?$_Tree_node@U?$pair@$$CBV?$basic_string@DU?$char_traits@D@std@@V?$allocator@D@2@@std@@H@std@@PAX@std@@_N$0A@@?$pair@PAU?$_Tree_node@U?$pair@$$CBV?$basic_string@DU?$char_traits@D@std@@V?$allocator@D@2@@std@@H@std@@PAX@std@@_N@std@@QAE@ABQAU?$_Tree_node@U?$pair@$$CBV?$basic_string@DU?$char_traits@D@std@@V?$allocator@D@2@@std@@H@std@@PAX@1@$$QA_N@Z
	??$?0ABQAU?$_Tree_node@U?$pair@$$CBV?$basic_string@DU?$char_traits@D@std@@V?$allocator@D@2@@std@@PAUggml_tensor@@@std@@PAX@std@@_N$0A@@?$pair@PAU?$_Tree_node@U?$pair@$$CBV?$basic_string@DU?$char_traits@D@std@@V?$allocator@D@2@@std@@PAUggml_tensor@@@std@@PAX@std@@_N@std@@QAE@ABQAU?$_Tree_node@U?$pair@$$CBV?$basic_string@DU?$char_traits@D@std@@V?$allocator@D@2@@std@@PAUggml_tensor@@@std@@PAX@1@$$QA_N@Z
	??$?0ABQAU?$_Tree_node@U?$pair@QAUggml_backend_buffer_type@@PAUggml_context@@@std@@PAX@std@@_N$0A@@?$pair@PAU?$_Tree_node@U?$pair@QAUggml_backend_buffer_type@@PAUggml_context@@@std@@PAX@std@@_N@std@@QAE@ABQAU?$_Tree_node@U?$pair@QAUggml_backend_buffer_type@@PAUggml_context@@@std@@PAX@1@$$QA_N@Z
	??$?0ABQAUggml_backend_buffer_type@@$$Z$$V@?$pair@QAUggml_backend_buffer_type@@PAUggml_context@@@std@@QAE@Upiecewise_construct_t@1@V?$tuple@ABQAUggml_backend_buffer_type@@@1@V?$tuple@$$V@1@@Z
	??$?0ABQAUggml_backend_buffer_type@@$0A@@?$tuple@ABQAUggml_backend_buffer_type@@@std@@QAE@ABQAUggml_backend_buffer_type@@@Z
	??$?0ABQAUggml_backend_buffer_type@@@?$_Tuple_val@ABQAUggml_backend_buffer_type@@@std@@QAE@ABQAUggml_backend_buffer_type@@@Z
	??$?0ABU?$less@H@std@@U_Zero_then_variadic_args_t@1@@?$_Compressed_pair@U?$less@H@std@@V?$_Compressed_pair@V?$allocator@U?$_Tree_node@HPAX@std@@@std@@V?$_Tree_val@U?$_Tree_simple_types@H@std@@@2@$00@2@$00@std@@QAE@U_One_then_variadic_args_t@1@ABU?$less@H@1@$$QAU_Zero_then_variadic_args_t@1@@Z
	??$?0ABU?$less@H@std@@U_Zero_then_variadic_args_t@1@@?$_Compressed_pair@U?$less@H@std@@V?$_Compressed_pair@V?$allocator@U?$_Tree_node@U?$pair@$$CBHH@std@@PAX@std@@@std@@V?$_Tree_val@U?$_Tree_simple_types@U?$pair@$$CBHH@std@@@std@@@2@$00@2@$00@std@@QAE@U_One_then_variadic_args_t@1@ABU?$less@H@1@$$QAU_Zero_then_variadic_args_t@1@@Z
	??$?0ABU?$less@H@std@@U_Zero_then_variadic_args_t@1@@?$_Compressed_pair@U?$less@H@std@@V?$_Compressed_pair@V?$allocator@U?$_Tree_node@U?$pair@$$CBHV?$basic_string@DU?$char_traits@D@std@@V?$allocator@D@2@@std@@@std@@PAX@std@@@std@@V?$_Tree_val@U?$_Tree_simple_types@U?$pair@$$CBHV?$basic_string@DU?$char_traits@D@std@@V?$allocator@D@2@@std@@@std@@@std@@@2@$00@2@$00@std@@QAE@U_One_then_variadic_args_t@1@ABU?$less@H@1@$$QAU_Zero_then_variadic_args_t@1@@Z
	??$?0ABU?$less@PAUggml_backend_buffer_type@@@std@@U_Zero_then_variadic_args_t@1@@?$_Compressed_pair@U?$less@PAUggml_backend_buffer_type@@@std@@V?$_Compressed_pair@V?$allocator@U?$_Tree_node@U?$pair@QAUggml_backend_buffer_type@@PAUggml_context@@@std@@PAX@std@@@std@@V?$_Tree_val@U?$_Tree_simple_types@U?$pair@QAUggml_backend_buffer_type@@PAUggml_context@@@std@@@std@@@2@$00@2@$00@std@@QAE@U_One_then_variadic_args_t@1@ABU?$less@PAUggml_backend_buffer_type@@@1@$$QAU_Zero_then_variadic_args_t@1@@Z
	??$?0ABU?$less@V?$basic_string@DU?$char_traits@D@std@@V?$allocator@D@2@@std@@@std@@U_Zero_then_variadic_args_t@1@@?$_Compressed_pair@U?$less@V?$basic_string@DU?$char_traits@D@std@@V?$allocator@D@2@@std@@@std@@V?$_Compressed_pair@V?$allocator@U?$_Tree_node@U?$pair@$$CBV?$basic_string@DU?$char_traits@D@std@@V?$allocator@D@2@@std@@H@std@@PAX@std@@@std@@V?$_Tree_val@U?$_Tree_simple_types@U?$pair@$$CBV?$basic_string@DU?$char_traits@D@std@@V?$allocator@D@2@@std@@H@std@@@std@@@2@$00@2@$00@std@@QAE@U_One_then_variadic_args_t@1@ABU?$less@V?$basic_string@DU?$char_traits@D@std@@V?$allocator@D@2@@std@@@1@$$QAU_Zero_then_variadic_args_t@1@@Z
	??$?0ABU?$less@V?$basic_string@DU?$char_traits@D@std@@V?$allocator@D@2@@std@@@std@@U_Zero_then_variadic_args_t@1@@?$_Compressed_pair@U?$less@V?$basic_string@DU?$char_traits@D@std@@V?$allocator@D@2@@std@@@std@@V?$_Compressed_pair@V?$allocator@U?$_Tree_node@U?$pair@$$CBV?$basic_string@DU?$char_traits@D@std@@V?$allocator@D@2@@std@@PAUggml_tensor@@@std@@PAX@std@@@std@@V?$_Tree_val@U?$_Tree_simple_types@U?$pair@$$CBV?$basic_string@DU?$char_traits@D@std@@V?$allocator@D@2@@std@@PAUggml_tensor@@@std@@@std@@@2@$00@2@$00@std@@QAE@U_One_then_variadic_args_t@1@ABU?$less@V?$basic_string@DU?$char_traits@D@std@@V?$allocator@D@2@@std@@@1@$$QAU_Zero_then_variadic_args_t@1@@Z
	??$?0ABU?$less@V?$basic_string@DU?$char_traits@D@std@@V?$allocator@D@2@@std@@@std@@U_Zero_then_variadic_args_t@1@@?$_Compressed_pair@U?$less@V?$basic_string@DU?$char_traits@D@std@@V?$allocator@D@2@@std@@@std@@V?$_Compressed_pair@V?$allocator@U?$_Tree_node@U?$pair@$$CBV?$basic_string@DU?$char_traits@D@std@@V?$allocator@D@2@@std@@U?$pair@HV?$basic_string@DU?$char_traits@D@std@@V?$allocator@D@2@@std@@@2@@std@@PAX@std@@@std@@V?$_Tree_val@U?$_Tree_simple_types@U?$pair@$$CBV?$basic_string@DU?$char_traits@D@std@@V?$allocator@D@2@@std@@U?$pair@HV?$basic_string@DU?$char_traits@D@std@@V?$allocator@D@2@@std@@@2@@std@@@std@@@2@$00@2@$00@std@@QAE@U_One_then_variadic_args_t@1@ABU?$less@V?$basic_string@DU?$char_traits@D@std@@V?$allocator@D@2@@std@@@1@$$QAU_Zero_then_variadic_args_t@1@@Z
	??$?0ABU?$less@W4asr_system@@@std@@U_Zero_then_variadic_args_t@1@@?$_Compressed_pair@U?$less@W4asr_system@@@std@@V?$_Compressed_pair@V?$allocator@U?$_Tree_node@U?$pair@$$CBW4asr_system@@V?$map@W4asr_tensor@@PBDU?$less@W4asr_tensor@@@std@@V?$allocator@U?$pair@$$CBW4asr_tensor@@PBD@std@@@3@@std@@@std@@PAX@std@@@std@@V?$_Tree_val@U?$_Tree_simple_types@U?$pair@$$CBW4asr_system@@V?$map@W4asr_tensor@@PBDU?$less@W4asr_tensor@@@std@@V?$allocator@U?$pair@$$CBW4asr_tensor@@PBD@std@@@3@@std@@@std@@@std@@@2@$00@2@$00@std@@QAE@U_One_then_variadic_args_t@1@ABU?$less@W4asr_system@@@1@$$QAU_Zero_then_variadic_args_t@1@@Z
	??$?0ABU?$less@W4asr_tensor@@@std@@U_Zero_then_variadic_args_t@1@@?$_Compressed_pair@U?$less@W4asr_tensor@@@std@@V?$_Compressed_pair@V?$allocator@U?$_Tree_node@U?$pair@$$CBW4asr_tensor@@PBD@std@@PAX@std@@@std@@V?$_Tree_val@U?$_Tree_simple_types@U?$pair@$$CBW4asr_tensor@@PBD@std@@@std@@@2@$00@2@$00@std@@QAE@U_One_then_variadic_args_t@1@ABU?$less@W4asr_tensor@@@1@$$QAU_Zero_then_variadic_args_t@1@@Z
	??$?0ABU?$less@W4asr_tensor@@@std@@U_Zero_then_variadic_args_t@1@@?$_Compressed_pair@U?$less@W4asr_tensor@@@std@@V?$_Compressed_pair@V?$allocator@U?$_Tree_node@U?$pair@$$CBW4asr_tensor@@W4ggml_op@@@std@@PAX@std@@@std@@V?$_Tree_val@U?$_Tree_simple_types@U?$pair@$$CBW4asr_tensor@@W4ggml_op@@@std@@@std@@@2@$00@2@$00@std@@QAE@U_One_then_variadic_args_t@1@ABU?$less@W4asr_tensor@@@1@$$QAU_Zero_then_variadic_args_t@1@@Z
	??$?0ABU?$less@W4e_model@@@std@@U_Zero_then_variadic_args_t@1@@?$_Compressed_pair@U?$less@W4e_model@@@std@@V?$_Compressed_pair@V?$allocator@U?$_Tree_node@U?$pair@$$CBW4e_model@@V?$basic_string@DU?$char_traits@D@std@@V?$allocator@D@2@@std@@@std@@PAX@std@@@std@@V?$_Tree_val@U?$_Tree_simple_types@U?$pair@$$CBW4e_model@@V?$basic_string@DU?$char_traits@D@std@@V?$allocator@D@2@@std@@@std@@@std@@@2@$00@2@$00@std@@QAE@U_One_then_variadic_args_t@1@ABU?$less@W4e_model@@@1@$$QAU_Zero_then_variadic_args_t@1@@Z
	??$?0ABU?$less@W4vad_tensor@@@std@@U_Zero_then_variadic_args_t@1@@?$_Compressed_pair@U?$less@W4vad_tensor@@@std@@V?$_Compressed_pair@V?$allocator@U?$_Tree_node@U?$pair@$$CBW4vad_tensor@@PBD@std@@PAX@std@@@std@@V?$_Tree_val@U?$_Tree_simple_types@U?$pair@$$CBW4vad_tensor@@PBD@std@@@std@@@2@$00@2@$00@std@@QAE@U_One_then_variadic_args_t@1@ABU?$less@W4vad_tensor@@@1@$$QAU_Zero_then_variadic_args_t@1@@Z
	??$?0ABU?$less@W4vad_tensor@@@std@@U_Zero_then_variadic_args_t@1@@?$_Compressed_pair@U?$less@W4vad_tensor@@@std@@V?$_Compressed_pair@V?$allocator@U?$_Tree_node@U?$pair@$$CBW4vad_tensor@@W4ggml_op@@@std@@PAX@std@@@std@@V?$_Tree_val@U?$_Tree_simple_types@U?$pair@$$CBW4vad_tensor@@W4ggml_op@@@std@@@std@@@2@$00@2@$00@std@@QAE@U_One_then_variadic_args_t@1@ABU?$less@W4vad_tensor@@@1@$$QAU_Zero_then_variadic_args_t@1@@Z
	??$?0ABU?$less@W4whisper_alignment_heads_preset@@@std@@U_Zero_then_variadic_args_t@1@@?$_Compressed_pair@U?$less@W4whisper_alignment_heads_preset@@@std@@V?$_Compressed_pair@V?$allocator@U?$_Tree_node@U?$pair@$$CBW4whisper_alignment_heads_preset@@Uwhisper_aheads@@@std@@PAX@std@@@std@@V?$_Tree_val@U?$_Tree_simple_types@U?$pair@$$CBW4whisper_alignment_heads_preset@@Uwhisper_aheads@@@std@@@std@@@2@$00@2@$00@std@@QAE@U_One_then_variadic_args_t@1@ABU?$less@W4whisper_alignment_heads_preset@@@1@$$QAU_Zero_then_variadic_args_t@1@@Z
	??$?0ABU?$pair@$$CBV?$basic_string@DU?$char_traits@D@std@@V?$allocator@D@2@@std@@U?$pair@HV?$basic_string@DU?$char_traits@D@std@@V?$allocator@D@2@@std@@@2@@std@@@?$_Tree_temp_node@V?$allocator@U?$_Tree_node@U?$pair@$$CBV?$basic_string@DU?$char_traits@D@std@@V?$allocator@D@2@@std@@U?$pair@HV?$basic_string@DU?$char_traits@D@std@@V?$allocator@D@2@@std@@@2@@std@@PAX@std@@@std@@@std@@QAE@AAV?$allocator@U?$_Tree_node@U?$pair@$$CBV?$basic_string@DU?$char_traits@D@std@@V?$allocator@D@2@@std@@U?$pair@HV?$basic_string@DU?$char_traits@D@std@@V?$allocator@D@2@@std@@@2@@std@@PAX@std@@@1@PAU?$_Tree_node@U?$pair@$$CBV?$basic_string@DU?$char_traits@D@std@@V?$allocator@D@2@@std@@U?$pair@HV?$basic_string@DU?$char_traits@D@std@@V?$allocator@D@2@@std@@@2@@std@@PAX@1@ABU?$pair@$$CBV?$basic_string@DU?$char_traits@D@std@@V?$allocator@D@2@@std@@U?$pair@HV?$basic_string@DU?$char_traits@D@std@@V?$allocator@D@2@@std@@@2@@1@@Z
	??$?0ABU?$pair@$$CBW4asr_system@@V?$map@W4asr_tensor@@PBDU?$less@W4asr_tensor@@@std@@V?$allocator@U?$pair@$$CBW4asr_tensor@@PBD@std@@@3@@std@@@std@@@?$_Tree_temp_node@V?$allocator@U?$_Tree_node@U?$pair@$$CBW4asr_system@@V?$map@W4asr_tensor@@PBDU?$less@W4asr_tensor@@@std@@V?$allocator@U?$pair@$$CBW4asr_tensor@@PBD@std@@@3@@std@@@std@@PAX@std@@@std@@@std@@QAE@AAV?$allocator@U?$_Tree_node@U?$pair@$$CBW4asr_system@@V?$map@W4asr_tensor@@PBDU?$less@W4asr_tensor@@@std@@V?$allocator@U?$pair@$$CBW4asr_tensor@@PBD@std@@@3@@std@@@std@@PAX@std@@@1@PAU?$_Tree_node@U?$pair@$$CBW4asr_system@@V?$map@W4asr_tensor@@PBDU?$less@W4asr_tensor@@@std@@V?$allocator@U?$pair@$$CBW4asr_tensor@@PBD@std@@@3@@std@@@std@@PAX@1@ABU?$pair@$$CBW4asr_system@@V?$map@W4asr_tensor@@PBDU?$less@W4asr_tensor@@@std@@V?$allocator@U?$pair@$$CBW4asr_tensor@@PBD@std@@@3@@std@@@1@@Z
	??$?0ABU?$pair@$$CBW4asr_tensor@@PBD@std@@@?$_Tree_temp_node@V?$allocator@U?$_Tree_node@U?$pair@$$CBW4asr_tensor@@PBD@std@@PAX@std@@@std@@@std@@QAE@AAV?$allocator@U?$_Tree_node@U?$pair@$$CBW4asr_tensor@@PBD@std@@PAX@std@@@1@PAU?$_Tree_node@U?$pair@$$CBW4asr_tensor@@PBD@std@@PAX@1@ABU?$pair@$$CBW4asr_tensor@@PBD@1@@Z
	??$?0ABU?$pair@$$CBW4asr_tensor@@W4ggml_op@@@std@@@?$_Tree_temp_node@V?$allocator@U?$_Tree_node@U?$pair@$$CBW4asr_tensor@@W4ggml_op@@@std@@PAX@std@@@std@@@std@@QAE@AAV?$allocator@U?$_Tree_node@U?$pair@$$CBW4asr_tensor@@W4ggml_op@@@std@@PAX@std@@@1@PAU?$_Tree_node@U?$pair@$$CBW4asr_tensor@@W4ggml_op@@@std@@PAX@1@ABU?$pair@$$CBW4asr_tensor@@W4ggml_op@@@1@@Z
	??$?0ABU?$pair@$$CBW4e_model@@V?$basic_string@DU?$char_traits@D@std@@V?$allocator@D@2@@std@@@std@@@?$_Tree_temp_node@V?$allocator@U?$_Tree_node@U?$pair@$$CBW4e_model@@V?$basic_string@DU?$char_traits@D@std@@V?$allocator@D@2@@std@@@std@@PAX@std@@@std@@@std@@QAE@AAV?$allocator@U?$_Tree_node@U?$pair@$$CBW4e_model@@V?$basic_string@DU?$char_traits@D@std@@V?$allocator@D@2@@std@@@std@@PAX@std@@@1@PAU?$_Tree_node@U?$pair@$$CBW4e_model@@V?$basic_string@DU?$char_traits@D@std@@V?$allocator@D@2@@std@@@std@@PAX@1@ABU?$pair@$$CBW4e_model@@V?$basic_string@DU?$char_traits@D@std@@V?$allocator@D@2@@std@@@1@@Z
	??$?0ABU?$pair@$$CBW4vad_tensor@@PBD@std@@@?$_Tree_temp_node@V?$allocator@U?$_Tree_node@U?$pair@$$CBW4vad_tensor@@PBD@std@@PAX@std@@@std@@@std@@QAE@AAV?$allocator@U?$_Tree_node@U?$pair@$$CBW4vad_tensor@@PBD@std@@PAX@std@@@1@PAU?$_Tree_node@U?$pair@$$CBW4vad_tensor@@PBD@std@@PAX@1@ABU?$pair@$$CBW4vad_tensor@@PBD@1@@Z
	??$?0ABU?$pair@$$CBW4vad_tensor@@W4ggml_op@@@std@@@?$_Tree_temp_node@V?$allocator@U?$_Tree_node@U?$pair@$$CBW4vad_tensor@@W4ggml_op@@@std@@PAX@std@@@std@@@std@@QAE@AAV?$allocator@U?$_Tree_node@U?$pair@$$CBW4vad_tensor@@W4ggml_op@@@std@@PAX@std@@@1@PAU?$_Tree_node@U?$pair@$$CBW4vad_tensor@@W4ggml_op@@@std@@PAX@1@ABU?$pair@$$CBW4vad_tensor@@W4ggml_op@@@1@@Z
	??$?0ABU?$pair@$$CBW4whisper_alignment_heads_preset@@Uwhisper_aheads@@@std@@@?$_Tree_temp_node@V?$allocator@U?$_Tree_node@U?$pair@$$CBW4whisper_alignment_heads_preset@@Uwhisper_aheads@@@std@@PAX@std@@@std@@@std@@QAE@AAV?$allocator@U?$_Tree_node@U?$pair@$$CBW4whisper_alignment_heads_preset@@Uwhisper_aheads@@@std@@PAX@std@@@1@PAU?$_Tree_node@U?$pair@$$CBW4whisper_alignment_heads_preset@@Uwhisper_aheads@@@std@@PAX@1@ABU?$pair@$$CBW4whisper_alignment_heads_preset@@Uwhisper_aheads@@@1@@Z
	??$?0ABUpiecewise_construct_t@std@@V?$tuple@$$QAV?$basic_string@DU?$char_traits@D@std@@V?$allocator@D@2@@std@@@1@V?$tuple@$$V@1@@?$_Tree_temp_node@V?$allocator@U?$_Tree_node@U?$pair@$$CBV?$basic_string@DU?$char_traits@D@std@@V?$allocator@D@2@@std@@PAUggml_tensor@@@std@@PAX@std@@@std@@@std@@QAE@AAV?$allocator@U?$_Tree_node@U?$pair@$$CBV?$basic_string@DU?$char_traits@D@std@@V?$allocator@D@2@@std@@PAUggml_tensor@@@std@@PAX@std@@@1@PAU?$_Tree_node@U?$pair@$$CBV?$basic_string@DU?$char_traits@D@std@@V?$allocator@D@2@@std@@PAUggml_tensor@@@std@@PAX@1@ABUpiecewise_construct_t@1@$$QAV?$tuple@$$QAV?$basic_string@DU?$char_traits@D@std@@V?$allocator@D@2@@std@@@1@$$QAV?$tuple@$$V@1@@Z
	??$?0ABUpiecewise_construct_t@std@@V?$tuple@ABH@1@V?$tuple@$$V@1@@?$_Tree_temp_node@V?$allocator@U?$_Tree_node@U?$pair@$$CBHH@std@@PAX@std@@@std@@@std@@QAE@AAV?$allocator@U?$_Tree_node@U?$pair@$$CBHH@std@@PAX@std@@@1@PAU?$_Tree_node@U?$pair@$$CBHH@std@@PAX@1@ABUpiecewise_construct_t@1@$$QAV?$tuple@ABH@1@$$QAV?$tuple@$$V@1@@Z
	??$?0ABUpiecewise_construct_t@std@@V?$tuple@ABH@1@V?$tuple@$$V@1@@?$_Tree_temp_node@V?$allocator@U?$_Tree_node@U?$pair@$$CBHV?$basic_string@DU?$char_traits@D@std@@V?$allocator@D@2@@std@@@std@@PAX@std@@@std@@@std@@QAE@AAV?$allocator@U?$_Tree_node@U?$pair@$$CBHV?$basic_string@DU?$char_traits@D@std@@V?$allocator@D@2@@std@@@std@@PAX@std@@@1@PAU?$_Tree_node@U?$pair@$$CBHV?$basic_string@DU?$char_traits@D@std@@V?$allocator@D@2@@std@@@std@@PAX@1@ABUpiecewise_construct_t@1@$$QAV?$tuple@ABH@1@$$QAV?$tuple@$$V@1@@Z
	??$?0ABUpiecewise_construct_t@std@@V?$tuple@ABQAUggml_backend_buffer_type@@@1@V?$tuple@$$V@1@@?$_Tree_temp_node@V?$allocator@U?$_Tree_node@U?$pair@QAUggml_backend_buffer_type@@PAUggml_context@@@std@@PAX@std@@@std@@@std@@QAE@AAV?$allocator@U?$_Tree_node@U?$pair@QAUggml_backend_buffer_type@@PAUggml_context@@@std@@PAX@std@@@1@PAU?$_Tree_node@U?$pair@QAUggml_backend_buffer_type@@PAUggml_context@@@std@@PAX@1@ABUpiecewise_construct_t@1@$$QAV?$tuple@ABQAUggml_backend_buffer_type@@@1@$$QAV?$tuple@$$V@1@@Z
	??$?0ABUpiecewise_construct_t@std@@V?$tuple@ABV?$basic_string@DU?$char_traits@D@std@@V?$allocator@D@2@@std@@@1@V?$tuple@$$V@1@@?$_Tree_temp_node@V?$allocator@U?$_Tree_node@U?$pair@$$CBV?$basic_string@DU?$char_traits@D@std@@V?$allocator@D@2@@std@@H@std@@PAX@std@@@std@@@std@@QAE@AAV?$allocator@U?$_Tree_node@U?$pair@$$CBV?$basic_string@DU?$char_traits@D@std@@V?$allocator@D@2@@std@@H@std@@PAX@std@@@1@PAU?$_Tree_node@U?$pair@$$CBV?$basic_string@DU?$char_traits@D@std@@V?$allocator@D@2@@std@@H@std@@PAX@1@ABUpiecewise_construct_t@1@$$QAV?$tuple@ABV?$basic_string@DU?$char_traits@D@std@@V?$allocator@D@2@@std@@@1@$$QAV?$tuple@$$V@1@@Z
	??$?0ABUwhisper_filters@@$0A@@?$reference_wrapper@$$CBUwhisper_filters@@@std@@QAE@ABUwhisper_filters@@@Z
	??$?0ABV?$allocator@D@std@@$$V@?$_Compressed_pair@V?$allocator@D@std@@V?$_String_val@U?$_Simple_types@D@std@@@2@$00@std@@QAE@U_One_then_variadic_args_t@1@ABV?$allocator@D@1@@Z
	??$?0ABV?$allocator@D@std@@$$V@?$_Compressed_pair@V?$allocator@D@std@@V?$_Vector_val@U?$_Simple_types@D@std@@@2@$00@std@@QAE@U_One_then_variadic_args_t@1@ABV?$allocator@D@1@@Z
	??$?0ABV?$allocator@E@std@@$$V@?$_Compressed_pair@V?$allocator@E@std@@V?$_Vector_val@U?$_Simple_types@E@std@@@2@$00@std@@QAE@U_One_then_variadic_args_t@1@ABV?$allocator@E@1@@Z
	??$?0ABV?$allocator@H@std@@$$V@?$_Compressed_pair@V?$allocator@H@std@@V?$_Vector_val@U?$_Simple_types@H@std@@@2@$00@std@@QAE@U_One_then_variadic_args_t@1@ABV?$allocator@H@1@@Z
	??$?0ABV?$allocator@I@std@@$$V@?$_Compressed_pair@V?$allocator@I@std@@V?$_Vector_val@U?$_Simple_types@I@std@@@2@$00@std@@QAE@U_One_then_variadic_args_t@1@ABV?$allocator@I@1@@Z
	??$?0ABV?$allocator@M@std@@$$V@?$_Compressed_pair@V?$allocator@M@std@@V?$_Vector_val@U?$_Simple_types@M@std@@@2@$00@std@@QAE@U_One_then_variadic_args_t@1@ABV?$allocator@M@1@@Z
	??$?0ABV?$allocator@N@std@@$$V@?$_Compressed_pair@V?$allocator@N@std@@V?$_Vector_val@U?$_Simple_types@N@std@@@2@$00@std@@QAE@U_One_then_variadic_args_t@1@ABV?$allocator@N@1@@Z
	??$?0ABV?$allocator@PBUwhisper_grammar_element@@@std@@$$V@?$_Compressed_pair@V?$allocator@PBUwhisper_grammar_element@@@std@@V?$_Vector_val@U?$_Simple_types@PBUwhisper_grammar_element@@@std@@@2@$00@std@@QAE@U_One_then_variadic_args_t@1@ABV?$allocator@PBUwhisper_grammar_element@@@1@@Z
	??$?0ABV?$allocator@V?$basic_string@DU?$char_traits@D@std@@V?$allocator@D@2@@std@@@std@@$$V@?$_Compressed_pair@V?$allocator@V?$basic_string@DU?$char_traits@D@std@@V?$allocator@D@2@@std@@@std@@V?$_Vector_val@U?$_Simple_types@V?$basic_string@DU?$char_traits@D@std@@V?$allocator@D@2@@std@@@std@@@2@$00@std@@QAE@U_One_then_variadic_args_t@1@ABV?$allocator@V?$basic_string@DU?$char_traits@D@std@@V?$allocator@D@2@@std@@@1@@Z
	??$?0ABV?$allocator@V?$vector@Uwhisper_grammar_element@@V?$allocator@Uwhisper_grammar_element@@@std@@@std@@@std@@$$V@?$_Compressed_pair@V?$allocator@V?$vector@Uwhisper_grammar_element@@V?$allocator@Uwhisper_grammar_element@@@std@@@std@@@std@@V?$_Vector_val@U?$_Simple_types@V?$vector@Uwhisper_grammar_element@@V?$allocator@Uwhisper_grammar_element@@@std@@@std@@@std@@@2@$00@std@@QAE@U_One_then_variadic_args_t@1@ABV?$allocator@V?$vector@Uwhisper_grammar_element@@V?$allocator@Uwhisper_grammar_element@@@std@@@std@@@1@@Z
	??$?0ABV?$allocator@Vthread@std@@@std@@$$V@?$_Compressed_pair@V?$allocator@Vthread@std@@@std@@V?$_Vector_val@U?$_Simple_types@Vthread@std@@@std@@@2@$00@std@@QAE@U_One_then_variadic_args_t@1@ABV?$allocator@Vthread@std@@@1@@Z
	??$?0ABV?$basic_string@DU?$char_traits@D@std@@V?$allocator@D@2@@std@@$$Z$$V@?$pair@$$CBV?$basic_string@DU?$char_traits@D@std@@V?$allocator@D@2@@std@@H@std@@QAE@Upiecewise_construct_t@1@V?$tuple@ABV?$basic_string@DU?$char_traits@D@std@@V?$allocator@D@2@@std@@@1@V?$tuple@$$V@1@@Z
	??$?0ABV?$basic_string@DU?$char_traits@D@std@@V?$allocator@D@2@@std@@$0A@@?$tuple@ABV?$basic_string@DU?$char_traits@D@std@@V?$allocator@D@2@@std@@@std@@QAE@ABV?$basic_string@DU?$char_traits@D@std@@V?$allocator@D@2@@1@@Z
	??$?0ABV?$basic_string@DU?$char_traits@D@std@@V?$allocator@D@2@@std@@@?$_Tuple_val@ABV?$basic_string@DU?$char_traits@D@std@@V?$allocator@D@2@@std@@@std@@QAE@ABV?$basic_string@DU?$char_traits@D@std@@V?$allocator@D@2@@1@@Z
	??$?0ABV?$vector@MV?$allocator@M@std@@@std@@$0A@@?$reference_wrapper@$$CBV?$vector@MV?$allocator@M@std@@@std@@@std@@QAE@ABV?$vector@MV?$allocator@M@std@@@1@@Z
	??$?0D@?$allocator@U_Container_proxy@std@@@std@@QAE@ABV?$allocator@D@1@@Z
	??$?0E@?$allocator@U_Container_proxy@std@@@std@@QAE@ABV?$allocator@E@1@@Z
	??$?0H@?$_Tuple_val@H@std@@QAE@$$QAH@Z
	??$?0H@?$allocator@U_Container_proxy@std@@@std@@QAE@ABV?$allocator@H@1@@Z
	??$?0HAAY03$$CBD$0A@@?$pair@HV?$basic_string@DU?$char_traits@D@std@@V?$allocator@D@2@@std@@@std@@QAE@$$QAHAAY03$$CBD@Z
	??$?0HAAY04$$CBD$0A@@?$pair@HV?$basic_string@DU?$char_traits@D@std@@V?$allocator@D@2@@std@@@std@@QAE@$$QAHAAY04$$CBD@Z
	??$?0HAAY05$$CBD$0A@@?$pair@HV?$basic_string@DU?$char_traits@D@std@@V?$allocator@D@2@@std@@@std@@QAE@$$QAHAAY05$$CBD@Z
	??$?0HAAY06$$CBD$0A@@?$pair@HV?$basic_string@DU?$char_traits@D@std@@V?$allocator@D@2@@std@@@std@@QAE@$$QAHAAY06$$CBD@Z
	??$?0HAAY07$$CBD$0A@@?$pair@HV?$basic_string@DU?$char_traits@D@std@@V?$allocator@D@2@@std@@@std@@QAE@$$QAHAAY07$$CBD@Z
	??$?0HAAY08$$CBD$0A@@?$pair@HV?$basic_string@DU?$char_traits@D@std@@V?$allocator@D@2@@std@@@std@@QAE@$$QAHAAY08$$CBD@Z
	??$?0HAAY09$$CBD$0A@@?$pair@HV?$basic_string@DU?$char_traits@D@std@@V?$allocator@D@2@@std@@@std@@QAE@$$QAHAAY09$$CBD@Z
	??$?0HAAY0L@$$CBD$0A@@?$pair@HV?$basic_string@DU?$char_traits@D@std@@V?$allocator@D@2@@std@@@std@@QAE@$$QAHAAY0L@$$CBD@Z
	??$?0HAAY0M@$$CBD$0A@@?$pair@HV?$basic_string@DU?$char_traits@D@std@@V?$allocator@D@2@@std@@@std@@QAE@$$QAHAAY0M@$$CBD@Z
	??$?0HAAY0O@$$CBD$0A@@?$pair@HV?$basic_string@DU?$char_traits@D@std@@V?$allocator@D@2@@std@@@std@@QAE@$$QAHAAY0O@$$CBD@Z
	??$?0HAAY0P@$$CBD$0A@@?$pair@HV?$basic_string@DU?$char_traits@D@std@@V?$allocator@D@2@@std@@@std@@QAE@$$QAHAAY0P@$$CBD@Z
	??$?0I@?$allocator@U_Container_proxy@std@@@std@@QAE@ABV?$allocator@I@1@@Z
	??$?0M@?$allocator@U_Container_proxy@std@@@std@@QAE@ABV?$allocator@M@1@@Z
	??$?0N@?$allocator@U_Container_proxy@std@@@std@@QAE@ABV?$allocator@N@1@@Z
	??$?0PAD$0A@@?$basic_string@DU?$char_traits@D@std@@V?$allocator@D@2@@std@@QAE@PAD0ABV?$allocator@D@1@@Z
	??$?0PAD$0A@@?$vector@DV?$allocator@D@std@@@std@@QAE@PAD0ABV?$allocator@D@1@@Z
	??$?0PAU?$_Tree_node@HPAX@std@@_N$0A@@?$pair@PAU?$_Tree_node@HPAX@std@@_N@std@@QAE@$$QAPAU?$_Tree_node@HPAX@1@$$QA_N@Z
	??$?0PAU?$_Tree_node@U?$pair@$$CBHH@std@@PAX@std@@_N$0A@@?$pair@PAU?$_Tree_node@U?$pair@$$CBHH@std@@PAX@std@@_N@std@@QAE@$$QAPAU?$_Tree_node@U?$pair@$$CBHH@std@@PAX@1@$$QA_N@Z
	??$?0PAU?$_Tree_node@U?$pair@$$CBHV?$basic_string@DU?$char_traits@D@std@@V?$allocator@D@2@@std@@@std@@PAX@std@@_N$0A@@?$pair@PAU?$_Tree_node@U?$pair@$$CBHV?$basic_string@DU?$char_traits@D@std@@V?$allocator@D@2@@std@@@std@@PAX@std@@_N@std@@QAE@$$QAPAU?$_Tree_node@U?$pair@$$CBHV?$basic_string@DU?$char_traits@D@std@@V?$allocator@D@2@@std@@@std@@PAX@1@$$QA_N@Z
	??$?0PAU?$_Tree_node@U?$pair@$$CBV?$basic_string@DU?$char_traits@D@std@@V?$allocator@D@2@@std@@H@std@@PAX@std@@_N$0A@@?$pair@PAU?$_Tree_node@U?$pair@$$CBV?$basic_string@DU?$char_traits@D@std@@V?$allocator@D@2@@std@@H@std@@PAX@std@@_N@std@@QAE@$$QAPAU?$_Tree_node@U?$pair@$$CBV?$basic_string@DU?$char_traits@D@std@@V?$allocator@D@2@@std@@H@std@@PAX@1@$$QA_N@Z
	??$?0PAU?$_Tree_node@U?$pair@$$CBV?$basic_string@DU?$char_traits@D@std@@V?$allocator@D@2@@std@@PAUggml_tensor@@@std@@PAX@std@@_N$0A@@?$pair@PAU?$_Tree_node@U?$pair@$$CBV?$basic_string@DU?$char_traits@D@std@@V?$allocator@D@2@@std@@PAUggml_tensor@@@std@@PAX@std@@_N@std@@QAE@$$QAPAU?$_Tree_node@U?$pair@$$CBV?$basic_string@DU?$char_traits@D@std@@V?$allocator@D@2@@std@@PAUggml_tensor@@@std@@PAX@1@$$QA_N@Z
	??$?0PAU?$_Tree_node@U?$pair@QAUggml_backend_buffer_type@@PAUggml_context@@@std@@PAX@std@@_N$0A@@?$pair@PAU?$_Tree_node@U?$pair@QAUggml_backend_buffer_type@@PAUggml_context@@@std@@PAX@std@@_N@std@@QAE@$$QAPAU?$_Tree_node@U?$pair@QAUggml_backend_buffer_type@@PAUggml_context@@@std@@PAX@1@$$QA_N@Z
	??$?0PAUggml_backend@@@?$allocator@U_Container_proxy@std@@@std@@QAE@ABV?$allocator@PAUggml_backend@@@1@@Z
	??$?0PAUggml_backend_buffer@@@?$allocator@U_Container_proxy@std@@@std@@QAE@ABV?$allocator@PAUggml_backend_buffer@@@1@@Z
	??$?0PAUggml_context@@@?$allocator@U_Container_proxy@std@@@std@@QAE@ABV?$allocator@PAUggml_context@@@1@@Z
	??$?0PAUggml_tensor@@@?$allocator@U_Container_proxy@std@@@std@@QAE@ABV?$allocator@PAUggml_tensor@@@1@@Z
	??$?0PAUwhisper_state@@@?$allocator@U_Container_proxy@std@@@std@@QAE@ABV?$allocator@PAUwhisper_state@@@1@@Z
	??$?0PBD$0A@@?$vector@DV?$allocator@D@std@@@std@@QAE@PBD0ABV?$allocator@D@1@@Z
	??$?0PBDPBD$0A@@?$pair@PBDPBD@std@@QAE@XZ
	??$?0PBM@?$_Tuple_val@PBM@std@@QAE@$$QAPBM@Z
	??$?0PBUwhisper_grammar_element@@@?$allocator@U_Container_proxy@std@@@std@@QAE@ABV?$allocator@PBUwhisper_grammar_element@@@1@@Z
	??$?0U?$_Tree_node@HPAX@std@@@?$allocator@U_Container_proxy@std@@@std@@QAE@ABV?$allocator@U?$_Tree_node@HPAX@std@@@1@@Z
	??$?0U?$_Tree_node@U?$pair@$$CBHH@std@@PAX@std@@@?$allocator@U_Container_proxy@std@@@std@@QAE@ABV?$allocator@U?$_Tree_node@U?$pair@$$CBHH@std@@PAX@std@@@1@@Z
	??$?0U?$_Tree_node@U?$pair@$$CBHV?$basic_string@DU?$char_traits@D@std@@V?$allocator@D@2@@std@@@std@@PAX@std@@@?$allocator@U_Container_proxy@std@@@std@@QAE@ABV?$allocator@U?$_Tree_node@U?$pair@$$CBHV?$basic_string@DU?$char_traits@D@std@@V?$allocator@D@2@@std@@@std@@PAX@std@@@1@@Z
	??$?0U?$_Tree_node@U?$pair@$$CBV?$basic_string@DU?$char_traits@D@std@@V?$allocator@D@2@@std@@H@std@@PAX@std@@@?$allocator@U_Container_proxy@std@@@std@@QAE@ABV?$allocator@U?$_Tree_node@U?$pair@$$CBV?$basic_string@DU?$char_traits@D@std@@V?$allocator@D@2@@std@@H@std@@PAX@std@@@1@@Z
	??$?0U?$_Tree_node@U?$pair@$$CBV?$basic_string@DU?$char_traits@D@std@@V?$allocator@D@2@@std@@PAUggml_tensor@@@std@@PAX@std@@@?$allocator@U_Container_proxy@std@@@std@@QAE@ABV?$allocator@U?$_Tree_node@U?$pair@$$CBV?$basic_string@DU?$char_traits@D@std@@V?$allocator@D@2@@std@@PAUggml_tensor@@@std@@PAX@std@@@1@@Z
	??$?0U?$_Tree_node@U?$pair@$$CBV?$basic_string@DU?$char_traits@D@std@@V?$allocator@D@2@@std@@U?$pair@HV?$basic_string@DU?$char_traits@D@std@@V?$allocator@D@2@@std@@@2@@std@@PAX@std@@@?$allocator@U_Container_proxy@std@@@std@@QAE@ABV?$allocator@U?$_Tree_node@U?$pair@$$CBV?$basic_string@DU?$char_traits@D@std@@V?$allocator@D@2@@std@@U?$pair@HV?$basic_string@DU?$char_traits@D@std@@V?$allocator@D@2@@std@@@2@@std@@PAX@std@@@1@@Z
	??$?0U?$_Tree_node@U?$pair@$$CBW4asr_system@@V?$map@W4asr_tensor@@PBDU?$less@W4asr_tensor@@@std@@V?$allocator@U?$pair@$$CBW4asr_tensor@@PBD@std@@@3@@std@@@std@@PAX@std@@@?$allocator@U_Container_proxy@std@@@std@@QAE@ABV?$allocator@U?$_Tree_node@U?$pair@$$CBW4asr_system@@V?$map@W4asr_tensor@@PBDU?$less@W4asr_tensor@@@std@@V?$allocator@U?$pair@$$CBW4asr_tensor@@PBD@std@@@3@@std@@@std@@PAX@std@@@1@@Z
	??$?0U?$_Tree_node@U?$pair@$$CBW4asr_tensor@@PBD@std@@PAX@std@@@?$allocator@U_Container_proxy@std@@@std@@QAE@ABV?$allocator@U?$_Tree_node@U?$pair@$$CBW4asr_tensor@@PBD@std@@PAX@std@@@1@@Z
	??$?0U?$_Tree_node@U?$pair@$$CBW4asr_tensor@@W4ggml_op@@@std@@PAX@std@@@?$allocator@U_Container_proxy@std@@@std@@QAE@ABV?$allocator@U?$_Tree_node@U?$pair@$$CBW4asr_tensor@@W4ggml_op@@@std@@PAX@std@@@1@@Z
	??$?0U?$_Tree_node@U?$pair@$$CBW4e_model@@V?$basic_string@DU?$char_traits@D@std@@V?$allocator@D@2@@std@@@std@@PAX@std@@@?$allocator@U_Container_proxy@std@@@std@@QAE@ABV?$allocator@U?$_Tree_node@U?$pair@$$CBW4e_model@@V?$basic_string@DU?$char_traits@D@std@@V?$allocator@D@2@@std@@@std@@PAX@std@@@1@@Z
	??$?0U?$_Tree_node@U?$pair@$$CBW4vad_tensor@@PBD@std@@PAX@std@@@?$allocator@U_Container_proxy@std@@@std@@QAE@ABV?$allocator@U?$_Tree_node@U?$pair@$$CBW4vad_tensor@@PBD@std@@PAX@std@@@1@@Z
	??$?0U?$_Tree_node@U?$pair@$$CBW4vad_tensor@@W4ggml_op@@@std@@PAX@std@@@?$allocator@U_Container_proxy@std@@@std@@QAE@ABV?$allocator@U?$_Tree_node@U?$pair@$$CBW4vad_tensor@@W4ggml_op@@@std@@PAX@std@@@1@@Z
	??$?0U?$_Tree_node@U?$pair@$$CBW4whisper_alignment_heads_preset@@Uwhisper_aheads@@@std@@PAX@std@@@?$allocator@U_Container_proxy@std@@@std@@QAE@ABV?$allocator@U?$_Tree_node@U?$pair@$$CBW4whisper_alignment_heads_preset@@Uwhisper_aheads@@@std@@PAX@std@@@1@@Z
	??$?0U?$_Tree_node@U?$pair@QAUggml_backend_buffer_type@@PAUggml_context@@@std@@PAX@std@@@?$allocator@U_Container_proxy@std@@@std@@QAE@ABV?$allocator@U?$_Tree_node@U?$pair@QAUggml_backend_buffer_type@@PAUggml_context@@@std@@PAX@std@@@1@@Z
	??$?0U?$char_traits@D@std@@V?$allocator@D@1@@?$basic_regex@DV?$regex_traits@D@std@@@std@@QAE@ABV?$basic_string@DU?$char_traits@D@std@@V?$allocator@D@2@@1@W4syntax_option_type@regex_constants@1@@Z
	??$?0U?$default_delete@V?$tuple@P6AHPAUwhisper_context@@PAUwhisper_state@@Uwhisper_full_params@@PBMH@ZPAU1@PAU2@U3@PBMH@std@@@std@@$0A@@?$unique_ptr@V?$tuple@P6AHPAUwhisper_context@@PAUwhisper_state@@Uwhisper_full_params@@PBMH@ZPAU1@PAU2@U3@PBMH@std@@U?$default_delete@V?$tuple@P6AHPAUwhisper_context@@PAUwhisper_state@@Uwhisper_full_params@@PBMH@ZPAU1@PAU2@U3@PBMH@std@@@2@@std@@QAE@PAV?$tuple@P6AHPAUwhisper_context@@PAUwhisper_state@@Uwhisper_full_params@@PBMH@ZPAU1@PAU2@U3@PBMH@1@@Z
	??$?0U?$default_delete@V?$tuple@P6AXHPBMABV?$vector@MV?$allocator@M@std@@@std@@HHHHABUwhisper_filters@@AAUwhisper_mel@@@ZHPBMV?$reference_wrapper@$$CBV?$vector@MV?$allocator@M@std@@@std@@@2@_JHHHV?$reference_wrapper@$$CBUwhisper_filters@@@2@V?$reference_wrapper@Uwhisper_mel@@@2@@std@@@std@@$0A@@?$unique_ptr@V?$tuple@P6AXHPBMABV?$vector@MV?$allocator@M@std@@@std@@HHHHABUwhisper_filters@@AAUwhisper_mel@@@ZHPBMV?$reference_wrapper@$$CBV?$vector@MV?$allocator@M@std@@@std@@@2@_JHHHV?$reference_wrapper@$$CBUwhisper_filters@@@2@V?$reference_wrapper@Uwhisper_mel@@@2@@std@@U?$default_delete@V?$tuple@P6AXHPBMABV?$vector@MV?$allocator@M@std@@@std@@HHHHABUwhisper_filters@@AAUwhisper_mel@@@ZHPBMV?$reference_wrapper@$$CBV?$vector@MV?$allocator@M@std@@@std@@@2@_JHHHV?$reference_wrapper@$$CBUwhisper_filters@@@2@V?$reference_wrapper@Uwhisper_mel@@@2@@std@@@2@@std@@QAE@PAV?$tuple@P6AXHPBMABV?$vector@MV?$allocator@M@std@@@std@@HHHHABUwhisper_filters@@AAUwhisper_mel@@@ZHPBMV?$reference_wrapper@$$CBV?$vector@MV?$allocator@M@std@@@std@@@2@_JHHHV?$reference_wrapper@$$CBUwhisper_filters@@@2@V?$reference_wrapper@Uwhisper_mel@@@2@@1@@Z
	??$?0U?$default_delete@V_Facet_base@std@@@std@@$0A@@?$unique_ptr@V_Facet_base@std@@U?$default_delete@V_Facet_base@std@@@2@@std@@QAE@PAV_Facet_base@1@@Z
	??$?0U?$default_delete@V_Node_assert@std@@@std@@$0A@@?$unique_ptr@V_Node_assert@std@@U?$default_delete@V_Node_assert@std@@@2@@std@@QAE@PAV_Node_assert@1@@Z
	??$?0U?$less@H@std@@U_One_then_variadic_args_t@1@V?$allocator@U?$_Tree_node@HPAX@std@@@1@@?$_Compressed_pair@U?$less@H@std@@V?$_Compressed_pair@V?$allocator@U?$_Tree_node@HPAX@std@@@std@@V?$_Tree_val@U?$_Tree_simple_types@H@std@@@2@$00@2@$00@std@@QAE@U_One_then_variadic_args_t@1@$$QAU?$less@H@1@$$QAU21@$$QAV?$allocator@U?$_Tree_node@HPAX@std@@@1@@Z
	??$?0U?$less@W4asr_tensor@@@std@@U_One_then_variadic_args_t@1@V?$allocator@U?$_Tree_node@U?$pair@$$CBW4asr_tensor@@PBD@std@@PAX@std@@@1@@?$_Compressed_pair@U?$less@W4asr_tensor@@@std@@V?$_Compressed_pair@V?$allocator@U?$_Tree_node@U?$pair@$$CBW4asr_tensor@@PBD@std@@PAX@std@@@std@@V?$_Tree_val@U?$_Tree_simple_types@U?$pair@$$CBW4asr_tensor@@PBD@std@@@std@@@2@$00@2@$00@std@@QAE@U_One_then_variadic_args_t@1@$$QAU?$less@W4asr_tensor@@@1@$$QAU21@$$QAV?$allocator@U?$_Tree_node@U?$pair@$$CBW4asr_tensor@@PBD@std@@PAX@std@@@1@@Z
	??$?0U?$pair@PAUggml_backend_device@@PAUggml_backend_buffer_type@@@std@@@?$allocator@U_Container_proxy@std@@@std@@QAE@ABV?$allocator@U?$pair@PAUggml_backend_device@@PAUggml_backend_buffer_type@@@std@@@1@@Z
	??$?0U?$pair@V?$vector@IV?$allocator@I@std@@@std@@Uwhisper_partial_utf8@@@std@@@?$allocator@U_Container_proxy@std@@@std@@QAE@ABV?$allocator@U?$pair@V?$vector@IV?$allocator@I@std@@@std@@Uwhisper_partial_utf8@@@std@@@1@@Z
	??$?0U?$whisper_pair@NH@@@?$allocator@U_Container_proxy@std@@@std@@QAE@ABV?$allocator@U?$whisper_pair@NH@@@1@@Z
	??$?0U_Exact_args_t@std@@$0A@@?$tuple@$$V@std@@QAE@U_Exact_args_t@1@@Z
	??$?0U_Exact_args_t@std@@A6AHPAUwhisper_context@@PAUwhisper_state@@Uwhisper_full_params@@PBMH@ZAAPAU2@AAPAU3@U4@PBMABH$0A@@?$tuple@P6AHPAUwhisper_context@@PAUwhisper_state@@Uwhisper_full_params@@PBMH@ZPAU1@PAU2@U3@PBMH@std@@QAE@U_Exact_args_t@1@A6AHPAUwhisper_context@@PAUwhisper_state@@Uwhisper_full_params@@PBMH@ZAAPAU3@AAPAU4@$$QAU5@$$QAPBMABH@Z
	??$?0U_Exact_args_t@std@@A6AXHPBMABV?$vector@MV?$allocator@M@std@@@1@HHHHABUwhisper_filters@@AAUwhisper_mel@@@ZHAAPBMV?$reference_wrapper@$$CBV?$vector@MV?$allocator@M@std@@@std@@@1@_JABHABHABHV?$reference_wrapper@$$CBUwhisper_filters@@@1@V?$reference_wrapper@Uwhisper_mel@@@1@$0A@@?$tuple@P6AXHPBMABV?$vector@MV?$allocator@M@std@@@std@@HHHHABUwhisper_filters@@AAUwhisper_mel@@@ZHPBMV?$reference_wrapper@$$CBV?$vector@MV?$allocator@M@std@@@std@@@2@_JHHHV?$reference_wrapper@$$CBUwhisper_filters@@@2@V?$reference_wrapper@Uwhisper_mel@@@2@@std@@QAE@U_Exact_args_t@1@A6AXHPBMABV?$vector@MV?$allocator@M@std@@@1@HHHHABUwhisper_filters@@AAUwhisper_mel@@@Z$$QAHAAPBM$$QAV?$reference_wrapper@$$CBV?$vector@MV?$allocator@M@std@@@std@@@1@$$QA_JABHABHABH$$QAV?$reference_wrapper@$$CBUwhisper_filters@@@1@$$QAV?$reference_wrapper@Uwhisper_mel@@@1@@Z
	??$?0U_Exact_args_t@std@@AAH$$V$0A@@?$tuple@H@std@@QAE@U_Exact_args_t@1@AAH@Z
	??$?0U_Exact_args_t@std@@AAPAUwhisper_context@@AAPAUwhisper_state@@Uwhisper_full_params@@PBMABH$0A@@?$tuple@PAUwhisper_context@@PAUwhisper_state@@Uwhisper_full_params@@PBMH@std@@QAE@U_Exact_args_t@1@AAPAUwhisper_context@@AAPAUwhisper_state@@$$QAUwhisper_full_params@@$$QAPBMABH@Z
	??$?0U_Exact_args_t@std@@AAPAUwhisper_state@@Uwhisper_full_params@@PBMABH$0A@@?$tuple@PAUwhisper_state@@Uwhisper_full_params@@PBMH@std@@QAE@U_Exact_args_t@1@AAPAUwhisper_state@@$$QAUwhisper_full_params@@$$QAPBMABH@Z
	??$?0U_Exact_args_t@std@@AAPBMV?$reference_wrapper@$$CBV?$vector@MV?$allocator@M@std@@@std@@@1@_JABHABHABHV?$reference_wrapper@$$CBUwhisper_filters@@@1@V?$reference_wrapper@Uwhisper_mel@@@1@$0A@@?$tuple@PBMV?$reference_wrapper@$$CBV?$vector@MV?$allocator@M@std@@@std@@@std@@_JHHHV?$reference_wrapper@$$CBUwhisper_filters@@@2@V?$reference_wrapper@Uwhisper_mel@@@2@@std@@QAE@U_Exact_args_t@1@AAPBM$$QAV?$reference_wrapper@$$CBV?$vector@MV?$allocator@M@std@@@std@@@1@$$QA_JABH44$$QAV?$reference_wrapper@$$CBUwhisper_filters@@@1@$$QAV?$reference_wrapper@Uwhisper_mel@@@1@@Z
	??$?0U_Exact_args_t@std@@ABH$$V$0A@@?$tuple@ABH@std@@QAE@U_Exact_args_t@1@ABH@Z
	??$?0U_Exact_args_t@std@@ABH$$V$0A@@?$tuple@H@std@@QAE@U_Exact_args_t@1@ABH@Z
	??$?0U_Exact_args_t@std@@ABHABHABHV?$reference_wrapper@$$CBUwhisper_filters@@@1@V?$reference_wrapper@Uwhisper_mel@@@1@$0A@@?$tuple@HHHV?$reference_wrapper@$$CBUwhisper_filters@@@std@@V?$reference_wrapper@Uwhisper_mel@@@2@@std@@QAE@U_Exact_args_t@1@ABH11$$QAV?$reference_wrapper@$$CBUwhisper_filters@@@1@$$QAV?$reference_wrapper@Uwhisper_mel@@@1@@Z
	??$?0U_Exact_args_t@std@@ABHABHV?$reference_wrapper@$$CBUwhisper_filters@@@1@V?$reference_wrapper@Uwhisper_mel@@@1@$0A@@?$tuple@HHV?$reference_wrapper@$$CBUwhisper_filters@@@std@@V?$reference_wrapper@Uwhisper_mel@@@2@@std@@QAE@U_Exact_args_t@1@ABH1$$QAV?$reference_wrapper@$$CBUwhisper_filters@@@1@$$QAV?$reference_wrapper@Uwhisper_mel@@@1@@Z
	??$?0U_Exact_args_t@std@@ABHV?$reference_wrapper@$$CBUwhisper_filters@@@1@V?$reference_wrapper@Uwhisper_mel@@@1@$0A@@?$tuple@HV?$reference_wrapper@$$CBUwhisper_filters@@@std@@V?$reference_wrapper@Uwhisper_mel@@@2@@std@@QAE@U_Exact_args_t@1@ABH$$QAV?$reference_wrapper@$$CBUwhisper_filters@@@1@$$QAV?$reference_wrapper@Uwhisper_mel@@@1@@Z
	??$?0U_Exact_args_t@std@@ABQAUggml_backend_buffer_type@@$$V$0A@@?$tuple@ABQAUggml_backend_buffer_type@@@std@@QAE@U_Exact_args_t@1@ABQAUggml_backend_buffer_type@@@Z
	??$?0U_Exact_args_t@std@@ABV?$basic_string@DU?$char_traits@D@std@@V?$allocator@D@2@@1@$$V$0A@@?$tuple@ABV?$basic_string@DU?$char_traits@D@std@@V?$allocator@D@2@@std@@@std@@QAE@U_Exact_args_t@1@ABV?$basic_string@DU?$char_traits@D@std@@V?$allocator@D@2@@1@@Z
	??$?0U_Exact_args_t@std@@HAAPBMV?$reference_wrapper@$$CBV?$vector@MV?$allocator@M@std@@@std@@@1@_JABHABHABHV?$reference_wrapper@$$CBUwhisper_filters@@@1@V?$reference_wrapper@Uwhisper_mel@@@1@$0A@@?$tuple@HPBMV?$reference_wrapper@$$CBV?$vector@MV?$allocator@M@std@@@std@@@std@@_JHHHV?$reference_wrapper@$$CBUwhisper_filters@@@2@V?$reference_wrapper@Uwhisper_mel@@@2@@std@@QAE@U_Exact_args_t@1@$$QAHAAPBM$$QAV?$reference_wrapper@$$CBV?$vector@MV?$allocator@M@std@@@std@@@1@$$QA_JABH55$$QAV?$reference_wrapper@$$CBUwhisper_filters@@@1@$$QAV?$reference_wrapper@Uwhisper_mel@@@1@@Z
	??$?0U_Exact_args_t@std@@PBMABH$0A@@?$tuple@PBMH@std@@QAE@U_Exact_args_t@1@$$QAPBMABH@Z
	??$?0U_Exact_args_t@std@@Uwhisper_full_params@@PBMABH$0A@@?$tuple@Uwhisper_full_params@@PBMH@std@@QAE@U_Exact_args_t@1@$$QAUwhisper_full_params@@$$QAPBMABH@Z
	??$?0U_Exact_args_t@std@@V?$basic_string@DU?$char_traits@D@std@@V?$allocator@D@2@@1@$$V$0A@@?$tuple@$$QAV?$basic_string@DU?$char_traits@D@std@@V?$allocator@D@2@@std@@@std@@QAE@U_Exact_args_t@1@$$QAV?$basic_string@DU?$char_traits@D@std@@V?$allocator@D@2@@1@@Z
	??$?0U_Exact_args_t@std@@V?$reference_wrapper@$$CBUwhisper_filters@@@1@V?$reference_wrapper@Uwhisper_mel@@@1@$0A@@?$tuple@V?$reference_wrapper@$$CBUwhisper_filters@@@std@@V?$reference_wrapper@Uwhisper_mel@@@2@@std@@QAE@U_Exact_args_t@1@$$QAV?$reference_wrapper@$$CBUwhisper_filters@@@1@$$QAV?$reference_wrapper@Uwhisper_mel@@@1@@Z
	??$?0U_Exact_args_t@std@@V?$reference_wrapper@$$CBV?$vector@MV?$allocator@M@std@@@std@@@1@_JABHABHABHV?$reference_wrapper@$$CBUwhisper_filters@@@1@V?$reference_wrapper@Uwhisper_mel@@@1@$0A@@?$tuple@V?$reference_wrapper@$$CBV?$vector@MV?$allocator@M@std@@@std@@@std@@_JHHHV?$reference_wrapper@$$CBUwhisper_filters@@@2@V?$reference_wrapper@Uwhisper_mel@@@2@@std@@QAE@U_Exact_args_t@1@$$QAV?$reference_wrapper@$$CBV?$vector@MV?$allocator@M@std@@@std@@@1@$$QA_JABH33$$QAV?$reference_wrapper@$$CBUwhisper_filters@@@1@$$QAV?$reference_wrapper@Uwhisper_mel@@@1@@Z
	??$?0U_Exact_args_t@std@@V?$reference_wrapper@Uwhisper_mel@@@1@$$V$0A@@?$tuple@V?$reference_wrapper@Uwhisper_mel@@@std@@@std@@QAE@U_Exact_args_t@1@$$QAV?$reference_wrapper@Uwhisper_mel@@@1@@Z
	??$?0U_Exact_args_t@std@@_JABHABHABHV?$reference_wrapper@$$CBUwhisper_filters@@@1@V?$reference_wrapper@Uwhisper_mel@@@1@$0A@@?$tuple@_JHHHV?$reference_wrapper@$$CBUwhisper_filters@@@std@@V?$reference_wrapper@Uwhisper_mel@@@2@@std@@QAE@U_Exact_args_t@1@$$QA_JABH22$$QAV?$reference_wrapper@$$CBUwhisper_filters@@@1@$$QAV?$reference_wrapper@Uwhisper_mel@@@1@@Z
	??$?0U_Grp_t@?$_Tgt_state_t@PBD@std@@@?$allocator@U_Container_proxy@std@@@std@@QAE@ABV?$allocator@U_Grp_t@?$_Tgt_state_t@PBD@std@@@1@@Z
	??$?0U_Grp_t@?$_Tgt_state_t@V?$_String_const_iterator@V?$_String_val@U?$_Simple_types@D@std@@@std@@@std@@@std@@@?$allocator@U_Container_proxy@std@@@std@@QAE@ABV?$allocator@U_Grp_t@?$_Tgt_state_t@V?$_String_const_iterator@V?$_String_val@U?$_Simple_types@D@std@@@std@@@std@@@std@@@1@@Z
	??$?0U_Loop_vals_t@std@@@?$allocator@U_Container_proxy@std@@@std@@QAE@ABV?$allocator@U_Loop_vals_t@std@@@1@@Z
	??$?0Uggml_backend_deleter@@$0A@@?$unique_ptr@Uggml_backend@@Uggml_backend_deleter@@@std@@QAE@PAUggml_backend@@@Z
	??$?0Uggml_context_deleter@@$0A@@?$unique_ptr@Uggml_context@@Uggml_context_deleter@@@std@@QAE@PAUggml_context@@@Z
	??$?0Uvad_segment_info@whisper_state@@@?$allocator@U_Container_proxy@std@@@std@@QAE@ABV?$allocator@Uvad_segment_info@whisper_state@@@1@@Z
	??$?0Uvad_time_mapping@@@?$allocator@U_Container_proxy@std@@@std@@QAE@ABV?$allocator@Uvad_time_mapping@@@1@@Z
	??$?0Uwhisper_full_params@@@?$_Tuple_val@Uwhisper_full_params@@@std@@QAE@$$QAUwhisper_full_params@@@Z
	??$?0Uwhisper_grammar_candidate@@@?$allocator@U_Container_proxy@std@@@std@@QAE@ABV?$allocator@Uwhisper_grammar_candidate@@@1@@Z
	??$?0Uwhisper_grammar_element@@@?$allocator@U_Container_proxy@std@@@std@@QAE@ABV?$allocator@Uwhisper_grammar_element@@@1@@Z
	??$?0Uwhisper_kv_cell@@@?$allocator@U_Container_proxy@std@@@std@@QAE@ABV?$allocator@Uwhisper_kv_cell@@@1@@Z
	??$?0Uwhisper_layer_decoder@@@?$allocator@U_Container_proxy@std@@@std@@QAE@ABV?$allocator@Uwhisper_layer_decoder@@@1@@Z
	??$?0Uwhisper_layer_encoder@@@?$allocator@U_Container_proxy@std@@@std@@QAE@ABV?$allocator@Uwhisper_layer_encoder@@@1@@Z
	??$?0Uwhisper_segment@@@?$allocator@U_Container_proxy@std@@@std@@QAE@ABV?$allocator@Uwhisper_segment@@@1@@Z
	??$?0Uwhisper_token_data@@@?$allocator@U_Container_proxy@std@@@std@@QAE@ABV?$allocator@Uwhisper_token_data@@@1@@Z
	??$?0Uwhisper_vad_segment@@@?$allocator@U_Container_proxy@std@@@std@@QAE@ABV?$allocator@Uwhisper_vad_segment@@@1@@Z
	??$?0V?$_String_const_iterator@V?$_String_val@U?$_Simple_types@D@std@@@std@@@std@@$0A@@?$basic_string@DU?$char_traits@D@std@@V?$allocator@D@2@@std@@QAE@V?$_String_const_iterator@V?$_String_val@U?$_Simple_types@D@std@@@std@@@1@0ABV?$allocator@D@1@@Z
	??$?0V?$_String_const_iterator@V?$_String_val@U?$_Simple_types@D@std@@@std@@@std@@V01@$0A@@?$pair@V?$_String_const_iterator@V?$_String_val@U?$_Simple_types@D@std@@@std@@@std@@V12@@std@@QAE@XZ
	??$?0V?$_String_iterator@V?$_String_val@U?$_Simple_types@D@std@@@std@@@std@@$0A@@?$vector@DV?$allocator@D@std@@@std@@QAE@V?$_String_iterator@V?$_String_val@U?$_Simple_types@D@std@@@std@@@1@0ABV?$allocator@D@1@@Z
	??$?0V?$_Tree_const_iterator@V?$_Tree_val@U?$_Tree_simple_types@H@std@@@std@@@std@@AB_N$0A@@?$pair@V?$_Tree_const_iterator@V?$_Tree_val@U?$_Tree_simple_types@H@std@@@std@@@std@@_N@std@@QAE@$$QAV?$_Tree_const_iterator@V?$_Tree_val@U?$_Tree_simple_types@H@std@@@std@@@1@AB_N@Z
	??$?0V?$_Vector_const_iterator@V?$_Vector_val@U?$_Simple_types@M@std@@@std@@@std@@$0A@@?$vector@NV?$allocator@N@std@@@std@@QAE@V?$_Vector_const_iterator@V?$_Vector_val@U?$_Simple_types@M@std@@@std@@@1@0ABV?$allocator@N@1@@Z
	??$?0V?$_Vector_const_iterator@V?$_Vector_val@U?$_Simple_types@M@std@@@std@@@std@@@?$discrete_distribution@H@std@@QAE@V?$_Vector_const_iterator@V?$_Vector_val@U?$_Simple_types@M@std@@@std@@@1@0@Z
	??$?0V?$_Vector_const_iterator@V?$_Vector_val@U?$_Simple_types@M@std@@@std@@@std@@@param_type@?$discrete_distribution@H@std@@QAE@V?$_Vector_const_iterator@V?$_Vector_val@U?$_Simple_types@M@std@@@std@@@2@0@Z
	??$?0V?$_Vector_const_iterator@V?$_Vector_val@U?$_Simple_types@PBUwhisper_grammar_element@@@std@@@std@@@std@@$0A@@?$vector@PBUwhisper_grammar_element@@V?$allocator@PBUwhisper_grammar_element@@@std@@@std@@QAE@V?$_Vector_const_iterator@V?$_Vector_val@U?$_Simple_types@PBUwhisper_grammar_element@@@std@@@std@@@1@0ABV?$allocator@PBUwhisper_grammar_element@@@1@@Z
	??$?0V?$allocator@D@std@@$$V@?$_Compressed_pair@V?$allocator@D@std@@V?$_String_val@U?$_Simple_types@D@std@@@2@$00@std@@QAE@U_One_then_variadic_args_t@1@$$QAV?$allocator@D@1@@Z
	??$?0V?$allocator@H@std@@PAHPAHPAH@?$_Compressed_pair@V?$allocator@H@std@@V?$_Vector_val@U?$_Simple_types@H@std@@@2@$00@std@@QAE@U_One_then_variadic_args_t@1@$$QAV?$allocator@H@1@$$QAPAH22@Z
	??$?0V?$allocator@I@std@@$$V@?$_Compressed_pair@V?$allocator@I@std@@V?$_Vector_val@U?$_Simple_types@I@std@@@2@$00@std@@QAE@U_One_then_variadic_args_t@1@$$QAV?$allocator@I@1@@Z
	??$?0V?$allocator@I@std@@PAIPAIPAI@?$_Compressed_pair@V?$allocator@I@std@@V?$_Vector_val@U?$_Simple_types@I@std@@@2@$00@std@@QAE@U_One_then_variadic_args_t@1@$$QAV?$allocator@I@1@$$QAPAI22@Z
	??$?0V?$allocator@M@std@@PAMPAMPAM@?$_Compressed_pair@V?$allocator@M@std@@V?$_Vector_val@U?$_Simple_types@M@std@@@2@$00@std@@QAE@U_One_then_variadic_args_t@1@$$QAV?$allocator@M@1@$$QAPAM22@Z
	??$?0V?$allocator@PAUggml_backend@@@std@@$$V@?$_Compressed_pair@V?$allocator@PAUggml_backend@@@std@@V?$_Vector_val@U?$_Simple_types@PAUggml_backend@@@std@@@2@$00@std@@QAE@U_One_then_variadic_args_t@1@$$QAV?$allocator@PAUggml_backend@@@1@@Z
	??$?0V?$allocator@PAUggml_backend@@@std@@PAPAUggml_backend@@PAPAU2@PAPAU2@@?$_Compressed_pair@V?$allocator@PAUggml_backend@@@std@@V?$_Vector_val@U?$_Simple_types@PAUggml_backend@@@std@@@2@$00@std@@QAE@U_One_then_variadic_args_t@1@$$QAV?$allocator@PAUggml_backend@@@1@$$QAPAPAUggml_backend@@22@Z
	??$?0V?$allocator@PBUwhisper_grammar_element@@@std@@$$V@?$_Compressed_pair@V?$allocator@PBUwhisper_grammar_element@@@std@@V?$_Vector_val@U?$_Simple_types@PBUwhisper_grammar_element@@@std@@@2@$00@std@@QAE@U_One_then_variadic_args_t@1@$$QAV?$allocator@PBUwhisper_grammar_element@@@1@@Z
	??$?0V?$allocator@PBUwhisper_grammar_element@@@std@@PAPBUwhisper_grammar_element@@PAPBU2@PAPBU2@@?$_Compressed_pair@V?$allocator@PBUwhisper_grammar_element@@@std@@V?$_Vector_val@U?$_Simple_types@PBUwhisper_grammar_element@@@std@@@2@$00@std@@QAE@U_One_then_variadic_args_t@1@$$QAV?$allocator@PBUwhisper_grammar_element@@@1@$$QAPAPBUwhisper_grammar_element@@22@Z
	??$?0V?$allocator@U?$_Tree_node@HPAX@std@@@std@@$$V@?$_Compressed_pair@V?$allocator@U?$_Tree_node@HPAX@std@@@std@@V?$_Tree_val@U?$_Tree_simple_types@H@std@@@2@$00@std@@QAE@U_One_then_variadic_args_t@1@$$QAV?$allocator@U?$_Tree_node@HPAX@std@@@1@@Z
	??$?0V?$allocator@U?$_Tree_node@HPAX@std@@@std@@@?$_Tree@V?$_Tset_traits@HU?$less@H@std@@V?$allocator@H@2@$0A@@std@@@std@@QAE@ABV01@$$QAV?$allocator@U?$_Tree_node@HPAX@std@@@1@@Z
	??$?0V?$allocator@U?$_Tree_node@U?$pair@$$CBW4asr_tensor@@PBD@std@@PAX@std@@@std@@$$V@?$_Compressed_pair@V?$allocator@U?$_Tree_node@U?$pair@$$CBW4asr_tensor@@PBD@std@@PAX@std@@@std@@V?$_Tree_val@U?$_Tree_simple_types@U?$pair@$$CBW4asr_tensor@@PBD@std@@@std@@@2@$00@std@@QAE@U_One_then_variadic_args_t@1@$$QAV?$allocator@U?$_Tree_node@U?$pair@$$CBW4asr_tensor@@PBD@std@@PAX@std@@@1@@Z
	??$?0V?$allocator@U?$_Tree_node@U?$pair@$$CBW4asr_tensor@@PBD@std@@PAX@std@@@std@@@?$_Tree@V?$_Tmap_traits@W4asr_tensor@@PBDU?$less@W4asr_tensor@@@std@@V?$allocator@U?$pair@$$CBW4asr_tensor@@PBD@std@@@3@$0A@@std@@@std@@QAE@ABV01@$$QAV?$allocator@U?$_Tree_node@U?$pair@$$CBW4asr_tensor@@PBD@std@@PAX@std@@@1@@Z
	??$?0V?$allocator@U?$pair@PAUggml_backend_device@@PAUggml_backend_buffer_type@@@std@@@std@@$$V@?$_Compressed_pair@V?$allocator@U?$pair@PAUggml_backend_device@@PAUggml_backend_buffer_type@@@std@@@std@@V?$_Vector_val@U?$_Simple_types@U?$pair@PAUggml_backend_device@@PAUggml_backend_buffer_type@@@std@@@std@@@2@$00@std@@QAE@U_One_then_variadic_args_t@1@$$QAV?$allocator@U?$pair@PAUggml_backend_device@@PAUggml_backend_buffer_type@@@std@@@1@@Z
	??$?0V?$allocator@U?$pair@PAUggml_backend_device@@PAUggml_backend_buffer_type@@@std@@@std@@PAU?$pair@PAUggml_backend_device@@PAUggml_backend_buffer_type@@@1@PAU21@PAU21@@?$_Compressed_pair@V?$allocator@U?$pair@PAUggml_backend_device@@PAUggml_backend_buffer_type@@@std@@@std@@V?$_Vector_val@U?$_Simple_types@U?$pair@PAUggml_backend_device@@PAUggml_backend_buffer_type@@@std@@@std@@@2@$00@std@@QAE@U_One_then_variadic_args_t@1@$$QAV?$allocator@U?$pair@PAUggml_backend_device@@PAUggml_backend_buffer_type@@@std@@@1@$$QAPAU?$pair@PAUggml_backend_device@@PAUggml_backend_buffer_type@@@1@22@Z
	??$?0V?$allocator@U_Grp_t@?$_Tgt_state_t@PBD@std@@@std@@$$V@?$_Compressed_pair@V?$allocator@U_Grp_t@?$_Tgt_state_t@PBD@std@@@std@@V?$_Vector_val@U?$_Simple_types@U_Grp_t@?$_Tgt_state_t@PBD@std@@@std@@@2@$00@std@@QAE@U_One_then_variadic_args_t@1@$$QAV?$allocator@U_Grp_t@?$_Tgt_state_t@PBD@std@@@1@@Z
	??$?0V?$allocator@U_Grp_t@?$_Tgt_state_t@V?$_String_const_iterator@V?$_String_val@U?$_Simple_types@D@std@@@std@@@std@@@std@@@std@@$$V@?$_Compressed_pair@V?$allocator@U_Grp_t@?$_Tgt_state_t@V?$_String_const_iterator@V?$_String_val@U?$_Simple_types@D@std@@@std@@@std@@@std@@@std@@V?$_Vector_val@U?$_Simple_types@U_Grp_t@?$_Tgt_state_t@V?$_String_const_iterator@V?$_String_val@U?$_Simple_types@D@std@@@std@@@std@@@std@@@std@@@2@$00@std@@QAE@U_One_then_variadic_args_t@1@$$QAV?$allocator@U_Grp_t@?$_Tgt_state_t@V?$_String_const_iterator@V?$_String_val@U?$_Simple_types@D@std@@@std@@@std@@@std@@@1@@Z
	??$?0V?$allocator@Uwhisper_grammar_candidate@@@std@@PAUwhisper_grammar_candidate@@PAU2@PAU2@@?$_Compressed_pair@V?$allocator@Uwhisper_grammar_candidate@@@std@@V?$_Vector_val@U?$_Simple_types@Uwhisper_grammar_candidate@@@std@@@2@$00@std@@QAE@U_One_then_variadic_args_t@1@$$QAV?$allocator@Uwhisper_grammar_candidate@@@1@$$QAPAUwhisper_grammar_candidate@@22@Z
	??$?0V?$allocator@Uwhisper_grammar_element@@@std@@$$V@?$_Compressed_pair@V?$allocator@Uwhisper_grammar_element@@@std@@V?$_Vector_val@U?$_Simple_types@Uwhisper_grammar_element@@@std@@@2@$00@std@@QAE@U_One_then_variadic_args_t@1@$$QAV?$allocator@Uwhisper_grammar_element@@@1@@Z
	??$?0V?$allocator@Uwhisper_token_data@@@std@@$$V@?$_Compressed_pair@V?$allocator@Uwhisper_token_data@@@std@@V?$_Vector_val@U?$_Simple_types@Uwhisper_token_data@@@std@@@2@$00@std@@QAE@U_One_then_variadic_args_t@1@$$QAV?$allocator@Uwhisper_token_data@@@1@@Z
	??$?0V?$allocator@Uwhisper_token_data@@@std@@PAUwhisper_token_data@@PAU2@PAU2@@?$_Compressed_pair@V?$allocator@Uwhisper_token_data@@@std@@V?$_Vector_val@U?$_Simple_types@Uwhisper_token_data@@@std@@@2@$00@std@@QAE@U_One_then_variadic_args_t@1@$$QAV?$allocator@Uwhisper_token_data@@@1@$$QAPAUwhisper_token_data@@22@Z
	??$?0V?$allocator@V?$vector@PBUwhisper_grammar_element@@V?$allocator@PBUwhisper_grammar_element@@@std@@@std@@@std@@$$V@?$_Compressed_pair@V?$allocator@V?$vector@PBUwhisper_grammar_element@@V?$allocator@PBUwhisper_grammar_element@@@std@@@std@@@std@@V?$_Vector_val@U?$_Simple_types@V?$vector@PBUwhisper_grammar_element@@V?$allocator@PBUwhisper_grammar_element@@@std@@@std@@@std@@@2@$00@std@@QAE@U_One_then_variadic_args_t@1@$$QAV?$allocator@V?$vector@PBUwhisper_grammar_element@@V?$allocator@PBUwhisper_grammar_element@@@std@@@std@@@1@@Z
	??$?0V?$allocator@V?$vector@PBUwhisper_grammar_element@@V?$allocator@PBUwhisper_grammar_element@@@std@@@std@@@std@@PAV?$vector@PBUwhisper_grammar_element@@V?$allocator@PBUwhisper_grammar_element@@@std@@@1@PAV21@PAV21@@?$_Compressed_pair@V?$allocator@V?$vector@PBUwhisper_grammar_element@@V?$allocator@PBUwhisper_grammar_element@@@std@@@std@@@std@@V?$_Vector_val@U?$_Simple_types@V?$vector@PBUwhisper_grammar_element@@V?$allocator@PBUwhisper_grammar_element@@@std@@@std@@@std@@@2@$00@std@@QAE@U_One_then_variadic_args_t@1@$$QAV?$allocator@V?$vector@PBUwhisper_grammar_element@@V?$allocator@PBUwhisper_grammar_element@@@std@@@std@@@1@$$QAPAV?$vector@PBUwhisper_grammar_element@@V?$allocator@PBUwhisper_grammar_element@@@std@@@1@22@Z
	??$?0V?$allocator@V?$vector@Uwhisper_grammar_element@@V?$allocator@Uwhisper_grammar_element@@@std@@@std@@@std@@$$V@?$_Compressed_pair@V?$allocator@V?$vector@Uwhisper_grammar_element@@V?$allocator@Uwhisper_grammar_element@@@std@@@std@@@std@@V?$_Vector_val@U?$_Simple_types@V?$vector@Uwhisper_grammar_element@@V?$allocator@Uwhisper_grammar_element@@@std@@@std@@@std@@@2@$00@std@@QAE@U_One_then_variadic_args_t@1@$$QAV?$allocator@V?$vector@Uwhisper_grammar_element@@V?$allocator@Uwhisper_grammar_element@@@std@@@std@@@1@@Z
	??$?0V?$allocator@V?$vector@Uwhisper_grammar_element@@V?$allocator@Uwhisper_grammar_element@@@std@@@std@@@std@@PAV?$vector@Uwhisper_grammar_element@@V?$allocator@Uwhisper_grammar_element@@@std@@@1@PAV21@PAV21@@?$_Compressed_pair@V?$allocator@V?$vector@Uwhisper_grammar_element@@V?$allocator@Uwhisper_grammar_element@@@std@@@std@@@std@@V?$_Vector_val@U?$_Simple_types@V?$vector@Uwhisper_grammar_element@@V?$allocator@Uwhisper_grammar_element@@@std@@@std@@@std@@@2@$00@std@@QAE@U_One_then_variadic_args_t@1@$$QAV?$allocator@V?$vector@Uwhisper_grammar_element@@V?$allocator@Uwhisper_grammar_element@@@std@@@std@@@1@$$QAPAV?$vector@Uwhisper_grammar_element@@V?$allocator@Uwhisper_grammar_element@@@std@@@1@22@Z
	??$?0V?$allocator@_W@std@@$$V@?$_Compressed_pair@V?$allocator@_W@std@@V?$_String_val@U?$_Simple_types@_W@std@@@2@$00@std@@QAE@U_One_then_variadic_args_t@1@$$QAV?$allocator@_W@1@@Z
	??$?0V?$basic_string@DU?$char_traits@D@std@@V?$allocator@D@2@@std@@$$V$0A@@?$tuple@$$QAV?$basic_string@DU?$char_traits@D@std@@V?$allocator@D@2@@std@@@std@@QAE@$$QAV?$basic_string@DU?$char_traits@D@std@@V?$allocator@D@2@@1@@Z
	??$?0V?$basic_string@DU?$char_traits@D@std@@V?$allocator@D@2@@std@@@?$_Tuple_val@$$QAV?$basic_string@DU?$char_traits@D@std@@V?$allocator@D@2@@std@@@std@@QAE@$$QAV?$basic_string@DU?$char_traits@D@std@@V?$allocator@D@2@@1@@Z
	??$?0V?$basic_string@DU?$char_traits@D@std@@V?$allocator@D@2@@std@@@?$allocator@U_Container_proxy@std@@@std@@QAE@ABV?$allocator@V?$basic_string@DU?$char_traits@D@std@@V?$allocator@D@2@@std@@@1@@Z
	??$?0V?$codecvt_utf8@_W$0BAPPPP@$0A@@std@@@locale@std@@QAE@ABV01@PBV?$codecvt_utf8@_W$0BAPPPP@$0A@@1@@Z
	??$?0V?$reference_wrapper@$$CBUwhisper_filters@@@std@@@?$_Tuple_val@V?$reference_wrapper@$$CBUwhisper_filters@@@std@@@std@@QAE@$$QAV?$reference_wrapper@$$CBUwhisper_filters@@@1@@Z
	??$?0V?$reference_wrapper@$$CBV?$vector@MV?$allocator@M@std@@@std@@@std@@@?$_Tuple_val@V?$reference_wrapper@$$CBV?$vector@MV?$allocator@M@std@@@std@@@std@@@std@@QAE@$$QAV?$reference_wrapper@$$CBV?$vector@MV?$allocator@M@std@@@std@@@1@@Z
	??$?0V?$reference_wrapper@Uwhisper_mel@@@std@@@?$_Tuple_val@V?$reference_wrapper@Uwhisper_mel@@@std@@@std@@QAE@$$QAV?$reference_wrapper@Uwhisper_mel@@@1@@Z
	??$?0V?$sub_match@V?$_String_const_iterator@V?$_String_val@U?$_Simple_types@D@std@@@std@@@std@@@std@@@?$allocator@U_Container_proxy@std@@@std@@QAE@ABV?$allocator@V?$sub_match@V?$_String_const_iterator@V?$_String_val@U?$_Simple_types@D@std@@@std@@@std@@@std@@@1@@Z
	??$?0V?$tuple@$$QAV?$basic_string@DU?$char_traits@D@std@@V?$allocator@D@2@@std@@@std@@V?$tuple@$$V@1@$0A@$$Z$S@?$pair@$$CBV?$basic_string@DU?$char_traits@D@std@@V?$allocator@D@2@@std@@PAUggml_tensor@@@std@@QAE@AAV?$tuple@$$QAV?$basic_string@DU?$char_traits@D@std@@V?$allocator@D@2@@std@@@1@AAV?$tuple@$$V@1@U?$integer_sequence@I$0A@@1@U?$integer_sequence@I$S@1@@Z
	??$?0V?$tuple@ABH@std@@V?$tuple@$$V@1@$0A@$$Z$S@?$pair@$$CBHH@std@@QAE@AAV?$tuple@ABH@1@AAV?$tuple@$$V@1@U?$integer_sequence@I$0A@@1@U?$integer_sequence@I$S@1@@Z
	??$?0V?$tuple@ABH@std@@V?$tuple@$$V@1@$0A@$$Z$S@?$pair@$$CBHV?$basic_string@DU?$char_traits@D@std@@V?$allocator@D@2@@std@@@std@@QAE@AAV?$tuple@ABH@1@AAV?$tuple@$$V@1@U?$integer_sequence@I$0A@@1@U?$integer_sequence@I$S@1@@Z
	??$?0V?$tuple@ABQAUggml_backend_buffer_type@@@std@@V?$tuple@$$V@1@$0A@$$Z$S@?$pair@QAUggml_backend_buffer_type@@PAUggml_context@@@std@@QAE@AAV?$tuple@ABQAUggml_backend_buffer_type@@@1@AAV?$tuple@$$V@1@U?$integer_sequence@I$0A@@1@U?$integer_sequence@I$S@1@@Z
	??$?0V?$tuple@ABV?$basic_string@DU?$char_traits@D@std@@V?$allocator@D@2@@std@@@std@@V?$tuple@$$V@1@$0A@$$Z$S@?$pair@$$CBV?$basic_string@DU?$char_traits@D@std@@V?$allocator@D@2@@std@@H@std@@QAE@AAV?$tuple@ABV?$basic_string@DU?$char_traits@D@std@@V?$allocator@D@2@@std@@@1@AAV?$tuple@$$V@1@U?$integer_sequence@I$0A@@1@U?$integer_sequence@I$S@1@@Z
	??$?0V?$vector@IV?$allocator@I@std@@@std@@Uwhisper_partial_utf8@@$0A@@?$pair@V?$vector@IV?$allocator@I@std@@@std@@Uwhisper_partial_utf8@@@std@@QAE@$$QAV?$vector@IV?$allocator@I@std@@@1@$$QAUwhisper_partial_utf8@@@Z
	??$?0V?$vector@PBUwhisper_grammar_element@@V?$allocator@PBUwhisper_grammar_element@@@std@@@std@@@?$allocator@U_Container_proxy@std@@@std@@QAE@ABV?$allocator@V?$vector@PBUwhisper_grammar_element@@V?$allocator@PBUwhisper_grammar_element@@@std@@@std@@@1@@Z
	??$?0V?$vector@Uwhisper_grammar_element@@V?$allocator@Uwhisper_grammar_element@@@std@@@std@@@?$allocator@U_Container_proxy@std@@@std@@QAE@ABV?$allocator@V?$vector@Uwhisper_grammar_element@@V?$allocator@Uwhisper_grammar_element@@@std@@@std@@@1@@Z
	??$?0Vthread@std@@@?$allocator@U_Container_proxy@std@@@std@@QAE@ABV?$allocator@Vthread@std@@@1@@Z
	??$?0W4asr_tensor@@AAY0BA@$$CBD$0A@@?$pair@$$CBW4asr_tensor@@PBD@std@@QAE@$$QAW4asr_tensor@@AAY0BA@$$CBD@Z
	??$?0W4asr_tensor@@AAY0BC@$$CBD$0A@@?$pair@$$CBW4asr_tensor@@PBD@std@@QAE@$$QAW4asr_tensor@@AAY0BC@$$CBD@Z
	??$?0W4asr_tensor@@AAY0BD@$$CBD$0A@@?$pair@$$CBW4asr_tensor@@PBD@std@@QAE@$$QAW4asr_tensor@@AAY0BD@$$CBD@Z
	??$?0W4asr_tensor@@AAY0BF@$$CBD$0A@@?$pair@$$CBW4asr_tensor@@PBD@std@@QAE@$$QAW4asr_tensor@@AAY0BF@$$CBD@Z
	??$?0W4asr_tensor@@AAY0BH@$$CBD$0A@@?$pair@$$CBW4asr_tensor@@PBD@std@@QAE@$$QAW4asr_tensor@@AAY0BH@$$CBD@Z
	??$?0W4asr_tensor@@AAY0BN@$$CBD$0A@@?$pair@$$CBW4asr_tensor@@PBD@std@@QAE@$$QAW4asr_tensor@@AAY0BN@$$CBD@Z
	??$?0W4asr_tensor@@AAY0BO@$$CBD$0A@@?$pair@$$CBW4asr_tensor@@PBD@std@@QAE@$$QAW4asr_tensor@@AAY0BO@$$CBD@Z
	??$?0W4asr_tensor@@AAY0BP@$$CBD$0A@@?$pair@$$CBW4asr_tensor@@PBD@std@@QAE@$$QAW4asr_tensor@@AAY0BP@$$CBD@Z
	??$?0W4asr_tensor@@AAY0CA@$$CBD$0A@@?$pair@$$CBW4asr_tensor@@PBD@std@@QAE@$$QAW4asr_tensor@@AAY0CA@$$CBD@Z
	??$?0W4asr_tensor@@AAY0CB@$$CBD$0A@@?$pair@$$CBW4asr_tensor@@PBD@std@@QAE@$$QAW4asr_tensor@@AAY0CB@$$CBD@Z
	??$?0W4asr_tensor@@AAY0CC@$$CBD$0A@@?$pair@$$CBW4asr_tensor@@PBD@std@@QAE@$$QAW4asr_tensor@@AAY0CC@$$CBD@Z
	??$?0W4asr_tensor@@AAY0CE@$$CBD$0A@@?$pair@$$CBW4asr_tensor@@PBD@std@@QAE@$$QAW4asr_tensor@@AAY0CE@$$CBD@Z
	??$?0W4asr_tensor@@AAY0CF@$$CBD$0A@@?$pair@$$CBW4asr_tensor@@PBD@std@@QAE@$$QAW4asr_tensor@@AAY0CF@$$CBD@Z
	??$?0W4asr_tensor@@AAY0CG@$$CBD$0A@@?$pair@$$CBW4asr_tensor@@PBD@std@@QAE@$$QAW4asr_tensor@@AAY0CG@$$CBD@Z
	??$?0W4asr_tensor@@AAY0CH@$$CBD$0A@@?$pair@$$CBW4asr_tensor@@PBD@std@@QAE@$$QAW4asr_tensor@@AAY0CH@$$CBD@Z
	??$?0W4asr_tensor@@AAY0CI@$$CBD$0A@@?$pair@$$CBW4asr_tensor@@PBD@std@@QAE@$$QAW4asr_tensor@@AAY0CI@$$CBD@Z
	??$?0W4asr_tensor@@AAY0CK@$$CBD$0A@@?$pair@$$CBW4asr_tensor@@PBD@std@@QAE@$$QAW4asr_tensor@@AAY0CK@$$CBD@Z
	??$?0W4asr_tensor@@W4ggml_op@@$0A@@?$pair@$$CBW4asr_tensor@@W4ggml_op@@@std@@QAE@$$QAW4asr_tensor@@$$QAW4ggml_op@@@Z
	??$?0W4e_model@@AAY04$$CBD$0A@@?$pair@$$CBW4e_model@@V?$basic_string@DU?$char_traits@D@std@@V?$allocator@D@2@@std@@@std@@QAE@$$QAW4e_model@@AAY04$$CBD@Z
	??$?0W4e_model@@AAY05$$CBD$0A@@?$pair@$$CBW4e_model@@V?$basic_string@DU?$char_traits@D@std@@V?$allocator@D@2@@std@@@std@@QAE@$$QAW4e_model@@AAY05$$CBD@Z
	??$?0W4e_model@@AAY06$$CBD$0A@@?$pair@$$CBW4e_model@@V?$basic_string@DU?$char_traits@D@std@@V?$allocator@D@2@@std@@@std@@QAE@$$QAW4e_model@@AAY06$$CBD@Z
	??$?0W4e_model@@AAY07$$CBD$0A@@?$pair@$$CBW4e_model@@V?$basic_string@DU?$char_traits@D@std@@V?$allocator@D@2@@std@@@std@@QAE@$$QAW4e_model@@AAY07$$CBD@Z
	??$?0W4vad_tensor@@AAY0BL@$$CBD$0A@@?$pair@$$CBW4vad_tensor@@PBD@std@@QAE@$$QAW4vad_tensor@@AAY0BL@$$CBD@Z
	??$?0W4vad_tensor@@AAY0BN@$$CBD$0A@@?$pair@$$CBW4vad_tensor@@PBD@std@@QAE@$$QAW4vad_tensor@@AAY0BN@$$CBD@Z
	??$?0W4vad_tensor@@AAY0BO@$$CBD$0A@@?$pair@$$CBW4vad_tensor@@PBD@std@@QAE@$$QAW4vad_tensor@@AAY0BO@$$CBD@Z
	??$?0W4vad_tensor@@AAY0CA@$$CBD$0A@@?$pair@$$CBW4vad_tensor@@PBD@std@@QAE@$$QAW4vad_tensor@@AAY0CA@$$CBD@Z
	??$?0W4vad_tensor@@AAY0CB@$$CBD$0A@@?$pair@$$CBW4vad_tensor@@PBD@std@@QAE@$$QAW4vad_tensor@@AAY0CB@$$CBD@Z
	??$?0W4vad_tensor@@AAY0CD@$$CBD$0A@@?$pair@$$CBW4vad_tensor@@PBD@std@@QAE@$$QAW4vad_tensor@@AAY0CD@$$CBD@Z
	??$?0W4vad_tensor@@AAY0CF@$$CBD$0A@@?$pair@$$CBW4vad_tensor@@PBD@std@@QAE@$$QAW4vad_tensor@@AAY0CF@$$CBD@Z
	??$?0W4vad_tensor@@W4ggml_op@@$0A@@?$pair@$$CBW4vad_tensor@@W4ggml_op@@@std@@QAE@$$QAW4vad_tensor@@$$QAW4ggml_op@@@Z
	??$?0_J@?$_Tuple_val@_J@std@@QAE@$$QA_J@Z
	??$?0_N@?$allocator@I@std@@QAE@ABV?$allocator@_N@1@@Z
	??$?0_NAAPBUwhisper_grammar_element@@$0A@@?$pair@_NPBUwhisper_grammar_element@@@std@@QAE@$$QA_NAAPBUwhisper_grammar_element@@@Z
	??$?0_W@?$allocator@U_Container_proxy@std@@@std@@QAE@ABV?$allocator@_W@1@@Z
	??$?6U?$char_traits@D@std@@@std@@YAAAV?$basic_ostream@DU?$char_traits@D@std@@@0@AAV10@PBD@Z
	??$?8DU?$char_traits@D@std@@V?$allocator@D@1@@std@@YA_NABV?$basic_string@DU?$char_traits@D@std@@V?$allocator@D@2@@0@0@Z
	??$?8DU?$char_traits@D@std@@V?$allocator@D@1@@std@@YA_NABV?$basic_string@DU?$char_traits@D@std@@V?$allocator@D@2@@0@QBD@Z
	??$?HDU?$char_traits@D@std@@V?$allocator@D@1@@std@@YA?AV?$basic_string@DU?$char_traits@D@std@@V?$allocator@D@2@@0@$$QAV10@0@Z
	??$?HDU?$char_traits@D@std@@V?$allocator@D@1@@std@@YA?AV?$basic_string@DU?$char_traits@D@std@@V?$allocator@D@2@@0@$$QAV10@QBD@Z
	??$?HDU?$char_traits@D@std@@V?$allocator@D@1@@std@@YA?AV?$basic_string@DU?$char_traits@D@std@@V?$allocator@D@2@@0@QBD$$QAV10@@Z
	??$?HDU?$char_traits@D@std@@V?$allocator@D@1@@std@@YA?AV?$basic_string@DU?$char_traits@D@std@@V?$allocator@D@2@@0@QBDABV10@@Z
	??$?RAAMAAM@?$less@X@std@@QBE_NAAM0@Z
	??$?RABMABM@?$less@X@std@@QBE_NABM0@Z
	??$?RABNABN@?$less@X@std@@QBE_NABN0@Z
	??$?RV?$mersenne_twister_engine@I$0CA@$0CHA@$0BIN@$0BP@$0JJAILANP@$0L@$0PPPPPPPP@$06$0JNCMFGIA@$0P@$0OPMGAAAA@$0BC@$0GMAHIJGF@@std@@@?$discrete_distribution@H@std@@QBEHAAV?$mersenne_twister_engine@I$0CA@$0CHA@$0BIN@$0BP@$0JJAILANP@$0L@$0PPPPPPPP@$06$0JNCMFGIA@$0P@$0OPMGAAAA@$0BC@$0GMAHIJGF@@1@@Z
	??$?__MDU?$char_traits@D@std@@V?$allocator@D@1@@std@@YA?AUstrong_ordering@0@ABV?$basic_string@DU?$char_traits@D@std@@V?$allocator@D@2@@0@0@Z
	??$_Adl_verify_range@PADPAD@std@@YAXABQAD0@Z
	??$_Adl_verify_range@PAHPAH@std@@YAXABQAH0@Z
	??$_Adl_verify_range@PAIPAI@std@@YAXABQAI0@Z
	??$_Adl_verify_range@PANPAN@std@@YAXABQAN0@Z
	??$_Adl_verify_range@PAPBUwhisper_grammar_element@@PAPBU1@@std@@YAXABQAPBUwhisper_grammar_element@@0@Z
	??$_Adl_verify_range@PAU_Grp_t@?$_Tgt_state_t@PBD@std@@PAU123@@std@@YAXABQAU_Grp_t@?$_Tgt_state_t@PBD@0@0@Z
	??$_Adl_verify_range@PAU_Grp_t@?$_Tgt_state_t@V?$_String_const_iterator@V?$_String_val@U?$_Simple_types@D@std@@@std@@@std@@@std@@PAU123@@std@@YAXABQAU_Grp_t@?$_Tgt_state_t@V?$_String_const_iterator@V?$_String_val@U?$_Simple_types@D@std@@@std@@@std@@@0@0@Z
	??$_Adl_verify_range@PAUwhisper_grammar_element@@PAU1@@std@@YAXABQAUwhisper_grammar_element@@0@Z
	??$_Adl_verify_range@PAUwhisper_token_data@@PAU1@@std@@YAXABQAUwhisper_token_data@@0@Z
	??$_Adl_verify_range@PAV?$vector@PBUwhisper_grammar_element@@V?$allocator@PBUwhisper_grammar_element@@@std@@@std@@PAV12@@std@@YAXABQAV?$vector@PBUwhisper_grammar_element@@V?$allocator@PBUwhisper_grammar_element@@@std@@@0@0@Z
	??$_Adl_verify_range@PAV?$vector@Uwhisper_grammar_element@@V?$allocator@Uwhisper_grammar_element@@@std@@@std@@PAV12@@std@@YAXABQAV?$vector@Uwhisper_grammar_element@@V?$allocator@Uwhisper_grammar_element@@@std@@@0@0@Z
	??$_Adl_verify_range@PBDPBD@std@@YAXABQBD0@Z
	??$_Adl_verify_range@PBMPBM@std@@YAXABQBM0@Z
	??$_Adl_verify_range@PBU?$pair@$$CBV?$basic_string@DU?$char_traits@D@std@@V?$allocator@D@2@@std@@U?$pair@HV?$basic_string@DU?$char_traits@D@std@@V?$allocator@D@2@@std@@@2@@std@@PBU12@@std@@YAXABQBU?$pair@$$CBV?$basic_string@DU?$char_traits@D@std@@V?$allocator@D@2@@std@@U?$pair@HV?$basic_string@DU?$char_traits@D@std@@V?$allocator@D@2@@std@@@2@@0@0@Z
	??$_Adl_verify_range@PBU?$pair@$$CBW4asr_system@@V?$map@W4asr_tensor@@PBDU?$less@W4asr_tensor@@@std@@V?$allocator@U?$pair@$$CBW4asr_tensor@@PBD@std@@@3@@std@@@std@@PBU12@@std@@YAXABQBU?$pair@$$CBW4asr_system@@V?$map@W4asr_tensor@@PBDU?$less@W4asr_tensor@@@std@@V?$allocator@U?$pair@$$CBW4asr_tensor@@PBD@std@@@3@@std@@@0@0@Z
	??$_Adl_verify_range@PBU?$pair@$$CBW4asr_tensor@@PBD@std@@PBU12@@std@@YAXABQBU?$pair@$$CBW4asr_tensor@@PBD@0@0@Z
	??$_Adl_verify_range@PBU?$pair@$$CBW4asr_tensor@@W4ggml_op@@@std@@PBU12@@std@@YAXABQBU?$pair@$$CBW4asr_tensor@@W4ggml_op@@@0@0@Z
	??$_Adl_verify_range@PBU?$pair@$$CBW4e_model@@V?$basic_string@DU?$char_traits@D@std@@V?$allocator@D@2@@std@@@std@@PBU12@@std@@YAXABQBU?$pair@$$CBW4e_model@@V?$basic_string@DU?$char_traits@D@std@@V?$allocator@D@2@@std@@@0@0@Z
	??$_Adl_verify_range@PBU?$pair@$$CBW4vad_tensor@@PBD@std@@PBU12@@std@@YAXABQBU?$pair@$$CBW4vad_tensor@@PBD@0@0@Z
	??$_Adl_verify_range@PBU?$pair@$$CBW4vad_tensor@@W4ggml_op@@@std@@PBU12@@std@@YAXABQBU?$pair@$$CBW4vad_tensor@@W4ggml_op@@@0@0@Z
	??$_Adl_verify_range@PBU?$pair@$$CBW4whisper_alignment_heads_preset@@Uwhisper_aheads@@@std@@PBU12@@std@@YAXABQBU?$pair@$$CBW4whisper_alignment_heads_preset@@Uwhisper_aheads@@@0@0@Z
	??$_Adl_verify_range@V?$_String_const_iterator@V?$_String_val@U?$_Simple_types@D@std@@@std@@@std@@V12@@std@@YAXABV?$_String_const_iterator@V?$_String_val@U?$_Simple_types@D@std@@@std@@@0@0@Z
	??$_Adl_verify_range@V?$_String_iterator@V?$_String_val@U?$_Simple_types@D@std@@@std@@@std@@V12@@std@@YAXABV?$_String_iterator@V?$_String_val@U?$_Simple_types@D@std@@@std@@@0@0@Z
	??$_Adl_verify_range@V?$_Tree_unchecked_const_iterator@V?$_Tree_val@U?$_Tree_simple_types@H@std@@@std@@U_Iterator_base0@2@@std@@V12@@std@@YAXABV?$_Tree_unchecked_const_iterator@V?$_Tree_val@U?$_Tree_simple_types@H@std@@@std@@U_Iterator_base0@2@@0@0@Z
	??$_Adl_verify_range@V?$_Vb_iterator@U?$_Wrap_alloc@V?$allocator@I@std@@@std@@@std@@V12@@std@@YAXABV?$_Vb_iterator@U?$_Wrap_alloc@V?$allocator@I@std@@@std@@@0@0@Z
	??$_Adl_verify_range@V?$_Vector_const_iterator@V?$_Vector_val@U?$_Simple_types@M@std@@@std@@@std@@V12@@std@@YAXABV?$_Vector_const_iterator@V?$_Vector_val@U?$_Simple_types@M@std@@@std@@@0@0@Z
	??$_Adl_verify_range@V?$_Vector_const_iterator@V?$_Vector_val@U?$_Simple_types@N@std@@@std@@@std@@V12@@std@@YAXABV?$_Vector_const_iterator@V?$_Vector_val@U?$_Simple_types@N@std@@@std@@@0@0@Z
	??$_Adl_verify_range@V?$_Vector_const_iterator@V?$_Vector_val@U?$_Simple_types@PBUwhisper_grammar_element@@@std@@@std@@@std@@V12@@std@@YAXABV?$_Vector_const_iterator@V?$_Vector_val@U?$_Simple_types@PBUwhisper_grammar_element@@@std@@@std@@@0@0@Z
	??$_Adl_verify_range@V?$_Vector_const_iterator@V?$_Vector_val@U?$_Simple_types@Uvad_time_mapping@@@std@@@std@@@std@@V12@@std@@YAXABV?$_Vector_const_iterator@V?$_Vector_val@U?$_Simple_types@Uvad_time_mapping@@@std@@@std@@@0@0@Z
	??$_Adl_verify_range@V?$_Vector_iterator@V?$_Vector_val@U?$_Simple_types@H@std@@@std@@@std@@V12@@std@@YAXABV?$_Vector_iterator@V?$_Vector_val@U?$_Simple_types@H@std@@@std@@@0@0@Z
	??$_Adl_verify_range@V?$_Vector_iterator@V?$_Vector_val@U?$_Simple_types@M@std@@@std@@@std@@V12@@std@@YAXABV?$_Vector_iterator@V?$_Vector_val@U?$_Simple_types@M@std@@@std@@@0@0@Z
	??$_Adl_verify_range@V?$_Vector_iterator@V?$_Vector_val@U?$_Simple_types@U?$whisper_pair@NH@@@std@@@std@@@std@@V12@@std@@YAXABV?$_Vector_iterator@V?$_Vector_val@U?$_Simple_types@U?$whisper_pair@NH@@@std@@@std@@@0@0@Z
	??$_Adl_verify_range@V?$_Vector_iterator@V?$_Vector_val@U?$_Simple_types@Uvad_time_mapping@@@std@@@std@@@std@@V12@@std@@YAXABV?$_Vector_iterator@V?$_Vector_val@U?$_Simple_types@Uvad_time_mapping@@@std@@@std@@@0@0@Z
	??$_Adl_verify_range@V?$_Vector_iterator@V?$_Vector_val@U?$_Simple_types@Uwhisper_token_data@@@std@@@std@@@std@@V12@@std@@YAXABV?$_Vector_iterator@V?$_Vector_val@U?$_Simple_types@Uwhisper_token_data@@@std@@@std@@@0@0@Z
	??$_Alloc_proxy@V?$allocator@U_Container_proxy@std@@@std@@@_Container_base12@std@@QAEX$$QAV?$allocator@U_Container_proxy@std@@@1@@Z
	??$_Allocate@$07U_Default_allocate_traits@std@@$0A@@std@@YAPAXI@Z
	??$_Allocate_manually_vector_aligned@U_Default_allocate_traits@std@@@std@@YAPAXI@Z
	??$_Allocators_equal@V?$allocator@D@std@@@std@@YA_NABV?$allocator@D@0@0@Z
	??$_Assign_range@PAI@?$vector@IV?$allocator@I@std@@@std@@AAEXPAI0Uforward_iterator_tag@1@@Z
	??$_Assign_range@PAPBUwhisper_grammar_element@@@?$vector@PBUwhisper_grammar_element@@V?$allocator@PBUwhisper_grammar_element@@@std@@@std@@AAEXPAPBUwhisper_grammar_element@@0Uforward_iterator_tag@1@@Z
	??$_Assign_range@PAU_Grp_t@?$_Tgt_state_t@PBD@std@@@?$vector@U_Grp_t@?$_Tgt_state_t@PBD@std@@V?$allocator@U_Grp_t@?$_Tgt_state_t@PBD@std@@@3@@std@@AAEXPAU_Grp_t@?$_Tgt_state_t@PBD@1@0Uforward_iterator_tag@1@@Z
	??$_Assign_range@PAU_Grp_t@?$_Tgt_state_t@V?$_String_const_iterator@V?$_String_val@U?$_Simple_types@D@std@@@std@@@std@@@std@@@?$vector@U_Grp_t@?$_Tgt_state_t@V?$_String_const_iterator@V?$_String_val@U?$_Simple_types@D@std@@@std@@@std@@@std@@V?$allocator@U_Grp_t@?$_Tgt_state_t@V?$_String_const_iterator@V?$_String_val@U?$_Simple_types@D@std@@@std@@@std@@@std@@@3@@std@@AAEXPAU_Grp_t@?$_Tgt_state_t@V?$_String_const_iterator@V?$_String_val@U?$_Simple_types@D@std@@@std@@@std@@@1@0Uforward_iterator_tag@1@@Z
	??$_Assign_range@PAUwhisper_grammar_element@@@?$vector@Uwhisper_grammar_element@@V?$allocator@Uwhisper_grammar_element@@@std@@@std@@AAEXPAUwhisper_grammar_element@@0Uforward_iterator_tag@1@@Z
	??$_Assign_range@PAUwhisper_token_data@@@?$vector@Uwhisper_token_data@@V?$allocator@Uwhisper_token_data@@@std@@@std@@AAEXPAUwhisper_token_data@@0Uforward_iterator_tag@1@@Z
	??$_Assign_range@PAV?$vector@PBUwhisper_grammar_element@@V?$allocator@PBUwhisper_grammar_element@@@std@@@std@@@?$vector@V?$vector@PBUwhisper_grammar_element@@V?$allocator@PBUwhisper_grammar_element@@@std@@@std@@V?$allocator@V?$vector@PBUwhisper_grammar_element@@V?$allocator@PBUwhisper_grammar_element@@@std@@@std@@@2@@std@@AAEXPAV?$vector@PBUwhisper_grammar_element@@V?$allocator@PBUwhisper_grammar_element@@@std@@@1@0Uforward_iterator_tag@1@@Z
	??$_Assign_range@PAV?$vector@Uwhisper_grammar_element@@V?$allocator@Uwhisper_grammar_element@@@std@@@std@@@?$vector@V?$vector@Uwhisper_grammar_element@@V?$allocator@Uwhisper_grammar_element@@@std@@@std@@V?$allocator@V?$vector@Uwhisper_grammar_element@@V?$allocator@Uwhisper_grammar_element@@@std@@@std@@@2@@std@@AAEXPAV?$vector@Uwhisper_grammar_element@@V?$allocator@Uwhisper_grammar_element@@@std@@@1@0Uforward_iterator_tag@1@@Z
	??$_Assign_range@PBH@?$vector@HV?$allocator@H@std@@@std@@AAEXPBH0Uforward_iterator_tag@1@@Z
	??$_Atomic_address_as@JU?$_Atomic_padded@H@std@@@std@@YAPCJAAU?$_Atomic_padded@H@0@@Z
	??$_Buyheadnode@V?$allocator@U?$_Tree_node@HPAX@std@@@std@@@?$_Tree_node@HPAX@std@@SAPAU01@AAV?$allocator@U?$_Tree_node@HPAX@std@@@1@@Z
	??$_Buyheadnode@V?$allocator@U?$_Tree_node@U?$pair@$$CBHH@std@@PAX@std@@@std@@@?$_Tree_node@U?$pair@$$CBHH@std@@PAX@std@@SAPAU01@AAV?$allocator@U?$_Tree_node@U?$pair@$$CBHH@std@@PAX@std@@@1@@Z
	??$_Buyheadnode@V?$allocator@U?$_Tree_node@U?$pair@$$CBHV?$basic_string@DU?$char_traits@D@std@@V?$allocator@D@2@@std@@@std@@PAX@std@@@std@@@?$_Tree_node@U?$pair@$$CBHV?$basic_string@DU?$char_traits@D@std@@V?$allocator@D@2@@std@@@std@@PAX@std@@SAPAU01@AAV?$allocator@U?$_Tree_node@U?$pair@$$CBHV?$basic_string@DU?$char_traits@D@std@@V?$allocator@D@2@@std@@@std@@PAX@std@@@1@@Z
	??$_Buyheadnode@V?$allocator@U?$_Tree_node@U?$pair@$$CBV?$basic_string@DU?$char_traits@D@std@@V?$allocator@D@2@@std@@H@std@@PAX@std@@@std@@@?$_Tree_node@U?$pair@$$CBV?$basic_string@DU?$char_traits@D@std@@V?$allocator@D@2@@std@@H@std@@PAX@std@@SAPAU01@AAV?$allocator@U?$_Tree_node@U?$pair@$$CBV?$basic_string@DU?$char_traits@D@std@@V?$allocator@D@2@@std@@H@std@@PAX@std@@@1@@Z
	??$_Buyheadnode@V?$allocator@U?$_Tree_node@U?$pair@$$CBV?$basic_string@DU?$char_traits@D@std@@V?$allocator@D@2@@std@@PAUggml_tensor@@@std@@PAX@std@@@std@@@?$_Tree_node@U?$pair@$$CBV?$basic_string@DU?$char_traits@D@std@@V?$allocator@D@2@@std@@PAUggml_tensor@@@std@@PAX@std@@SAPAU01@AAV?$allocator@U?$_Tree_node@U?$pair@$$CBV?$basic_string@DU?$char_traits@D@std@@V?$allocator@D@2@@std@@PAUggml_tensor@@@std@@PAX@std@@@1@@Z
	??$_Buyheadnode@V?$allocator@U?$_Tree_node@U?$pair@$$CBV?$basic_string@DU?$char_traits@D@std@@V?$allocator@D@2@@std@@U?$pair@HV?$basic_string@DU?$char_traits@D@std@@V?$allocator@D@2@@std@@@2@@std@@PAX@std@@@std@@@?$_Tree_node@U?$pair@$$CBV?$basic_string@DU?$char_traits@D@std@@V?$allocator@D@2@@std@@U?$pair@HV?$basic_string@DU?$char_traits@D@std@@V?$allocator@D@2@@std@@@2@@std@@PAX@std@@SAPAU01@AAV?$allocator@U?$_Tree_node@U?$pair@$$CBV?$basic_string@DU?$char_traits@D@std@@V?$allocator@D@2@@std@@U?$pair@HV?$basic_string@DU?$char_traits@D@std@@V?$allocator@D@2@@std@@@2@@std@@PAX@std@@@1@@Z
	??$_Buyheadnode@V?$allocator@U?$_Tree_node@U?$pair@$$CBW4asr_system@@V?$map@W4asr_tensor@@PBDU?$less@W4asr_tensor@@@std@@V?$allocator@U?$pair@$$CBW4asr_tensor@@PBD@std@@@3@@std@@@std@@PAX@std@@@std@@@?$_Tree_node@U?$pair@$$CBW4asr_system@@V?$map@W4asr_tensor@@PBDU?$less@W4asr_tensor@@@std@@V?$allocator@U?$pair@$$CBW4asr_tensor@@PBD@std@@@3@@std@@@std@@PAX@std@@SAPAU01@AAV?$allocator@U?$_Tree_node@U?$pair@$$CBW4asr_system@@V?$map@W4asr_tensor@@PBDU?$less@W4asr_tensor@@@std@@V?$allocator@U?$pair@$$CBW4asr_tensor@@PBD@std@@@3@@std@@@std@@PAX@std@@@1@@Z
	??$_Buyheadnode@V?$allocator@U?$_Tree_node@U?$pair@$$CBW4asr_tensor@@PBD@std@@PAX@std@@@std@@@?$_Tree_node@U?$pair@$$CBW4asr_tensor@@PBD@std@@PAX@std@@SAPAU01@AAV?$allocator@U?$_Tree_node@U?$pair@$$CBW4asr_tensor@@PBD@std@@PAX@std@@@1@@Z
	??$_Buyheadnode@V?$allocator@U?$_Tree_node@U?$pair@$$CBW4asr_tensor@@W4ggml_op@@@std@@PAX@std@@@std@@@?$_Tree_node@U?$pair@$$CBW4asr_tensor@@W4ggml_op@@@std@@PAX@std@@SAPAU01@AAV?$allocator@U?$_Tree_node@U?$pair@$$CBW4asr_tensor@@W4ggml_op@@@std@@PAX@std@@@1@@Z
	??$_Buyheadnode@V?$allocator@U?$_Tree_node@U?$pair@$$CBW4e_model@@V?$basic_string@DU?$char_traits@D@std@@V?$allocator@D@2@@std@@@std@@PAX@std@@@std@@@?$_Tree_node@U?$pair@$$CBW4e_model@@V?$basic_string@DU?$char_traits@D@std@@V?$allocator@D@2@@std@@@std@@PAX@std@@SAPAU01@AAV?$allocator@U?$_Tree_node@U?$pair@$$CBW4e_model@@V?$basic_string@DU?$char_traits@D@std@@V?$allocator@D@2@@std@@@std@@PAX@std@@@1@@Z
	??$_Buyheadnode@V?$allocator@U?$_Tree_node@U?$pair@$$CBW4vad_tensor@@PBD@std@@PAX@std@@@std@@@?$_Tree_node@U?$pair@$$CBW4vad_tensor@@PBD@std@@PAX@std@@SAPAU01@AAV?$allocator@U?$_Tree_node@U?$pair@$$CBW4vad_tensor@@PBD@std@@PAX@std@@@1@@Z
	??$_Buyheadnode@V?$allocator@U?$_Tree_node@U?$pair@$$CBW4vad_tensor@@W4ggml_op@@@std@@PAX@std@@@std@@@?$_Tree_node@U?$pair@$$CBW4vad_tensor@@W4ggml_op@@@std@@PAX@std@@SAPAU01@AAV?$allocator@U?$_Tree_node@U?$pair@$$CBW4vad_tensor@@W4ggml_op@@@std@@PAX@std@@@1@@Z
	??$_Buyheadnode@V?$allocator@U?$_Tree_node@U?$pair@$$CBW4whisper_alignment_heads_preset@@Uwhisper_aheads@@@std@@PAX@std@@@std@@@?$_Tree_node@U?$pair@$$CBW4whisper_alignment_heads_preset@@Uwhisper_aheads@@@std@@PAX@std@@SAPAU01@AAV?$allocator@U?$_Tree_node@U?$pair@$$CBW4whisper_alignment_heads_preset@@Uwhisper_aheads@@@std@@PAX@std@@@1@@Z
	??$_Buyheadnode@V?$allocator@U?$_Tree_node@U?$pair@QAUggml_backend_buffer_type@@PAUggml_context@@@std@@PAX@std@@@std@@@?$_Tree_node@U?$pair@QAUggml_backend_buffer_type@@PAUggml_context@@@std@@PAX@std@@SAPAU01@AAV?$allocator@U?$_Tree_node@U?$pair@QAUggml_backend_buffer_type@@PAUggml_context@@@std@@PAX@std@@@1@@Z
	??$_Buynode@AAH@?$_Tree@V?$_Tset_traits@HU?$less@H@std@@V?$allocator@H@2@$0A@@std@@@std@@IAEPAU?$_Tree_node@HPAX@1@AAH@Z
	??$_Buynode@AAU?$pair@$$CBW4asr_tensor@@PBD@std@@@?$_Tree@V?$_Tmap_traits@W4asr_tensor@@PBDU?$less@W4asr_tensor@@@std@@V?$allocator@U?$pair@$$CBW4asr_tensor@@PBD@std@@@3@$0A@@std@@@std@@IAEPAU?$_Tree_node@U?$pair@$$CBW4asr_tensor@@PBD@std@@PAX@1@AAU?$pair@$$CBW4asr_tensor@@PBD@1@@Z
	??$_Buynode@V?$allocator@U?$_Tree_node@HPAX@std@@@std@@AAH@?$_Tree_node@HPAX@std@@SAPAU01@AAV?$allocator@U?$_Tree_node@HPAX@std@@@1@PAU01@AAH@Z
	??$_Buynode@V?$allocator@U?$_Tree_node@U?$pair@$$CBW4asr_tensor@@PBD@std@@PAX@std@@@std@@AAU?$pair@$$CBW4asr_tensor@@PBD@2@@?$_Tree_node@U?$pair@$$CBW4asr_tensor@@PBD@std@@PAX@std@@SAPAU01@AAV?$allocator@U?$_Tree_node@U?$pair@$$CBW4asr_tensor@@PBD@std@@PAX@std@@@1@PAU01@AAU?$pair@$$CBW4asr_tensor@@PBD@1@@Z
	??$_Cmp_chrange@PBDPBDU?$_Cmp_collate@V?$regex_traits@D@std@@@std@@@std@@YAPBDPBD000U?$_Cmp_collate@V?$regex_traits@D@std@@@0@@Z
	??$_Cmp_chrange@PBDPBDU?$_Cmp_cs@V?$regex_traits@D@std@@@std@@@std@@YAPBDPBD000U?$_Cmp_cs@V?$regex_traits@D@std@@@0@@Z
	??$_Cmp_chrange@PBDPBDU?$_Cmp_icase@V?$regex_traits@D@std@@@std@@@std@@YAPBDPBD000U?$_Cmp_icase@V?$regex_traits@D@std@@@0@@Z
	??$_Cmp_chrange@V?$_String_const_iterator@V?$_String_val@U?$_Simple_types@D@std@@@std@@@std@@PBDU?$_Cmp_collate@V?$regex_traits@D@std@@@2@@std@@YA?AV?$_String_const_iterator@V?$_String_val@U?$_Simple_types@D@std@@@std@@@0@V10@0PBD1U?$_Cmp_collate@V?$regex_traits@D@std@@@0@@Z
	??$_Cmp_chrange@V?$_String_const_iterator@V?$_String_val@U?$_Simple_types@D@std@@@std@@@std@@PBDU?$_Cmp_cs@V?$regex_traits@D@std@@@2@@std@@YA?AV?$_String_const_iterator@V?$_String_val@U?$_Simple_types@D@std@@@std@@@0@V10@0PBD1U?$_Cmp_cs@V?$regex_traits@D@std@@@0@@Z
	??$_Cmp_chrange@V?$_String_const_iterator@V?$_String_val@U?$_Simple_types@D@std@@@std@@@std@@PBDU?$_Cmp_icase@V?$regex_traits@D@std@@@2@@std@@YA?AV?$_String_const_iterator@V?$_String_val@U?$_Simple_types@D@std@@@std@@@0@V10@0PBD1U?$_Cmp_icase@V?$regex_traits@D@std@@@0@@Z
	??$_Cmp_chrange@V?$_String_const_iterator@V?$_String_val@U?$_Simple_types@D@std@@@std@@@std@@V12@U?$_Cmp_collate@V?$regex_traits@D@std@@@2@@std@@YA?AV?$_String_const_iterator@V?$_String_val@U?$_Simple_types@D@std@@@std@@@0@V10@000U?$_Cmp_collate@V?$regex_traits@D@std@@@0@@Z
	??$_Cmp_chrange@V?$_String_const_iterator@V?$_String_val@U?$_Simple_types@D@std@@@std@@@std@@V12@U?$_Cmp_cs@V?$regex_traits@D@std@@@2@@std@@YA?AV?$_String_const_iterator@V?$_String_val@U?$_Simple_types@D@std@@@std@@@0@V10@000U?$_Cmp_cs@V?$regex_traits@D@std@@@0@@Z
	??$_Cmp_chrange@V?$_String_const_iterator@V?$_String_val@U?$_Simple_types@D@std@@@std@@@std@@V12@U?$_Cmp_icase@V?$regex_traits@D@std@@@2@@std@@YA?AV?$_String_const_iterator@V?$_String_val@U?$_Simple_types@D@std@@@std@@@0@V10@000U?$_Cmp_icase@V?$regex_traits@D@std@@@0@@Z
	??$_Codecvt_do_length@V?$codecvt_utf8@_W$0BAPPPP@$0A@@std@@DU_Mbstatet@@@std@@YAHABV?$codecvt_utf8@_W$0BAPPPP@$0A@@0@AAU_Mbstatet@@PBD2I@Z
	??$_Compare@PBDPBDV?$regex_traits@D@std@@@std@@YAPBDPBD000ABV?$regex_traits@D@0@W4syntax_option_type@regex_constants@0@@Z
	??$_Compare@V?$_String_const_iterator@V?$_String_val@U?$_Simple_types@D@std@@@std@@@std@@PBDV?$regex_traits@D@2@@std@@YA?AV?$_String_const_iterator@V?$_String_val@U?$_Simple_types@D@std@@@std@@@0@V10@0PBD1ABV?$regex_traits@D@0@W4syntax_option_type@regex_constants@0@@Z
	??$_Compare@V?$_String_const_iterator@V?$_String_val@U?$_Simple_types@D@std@@@std@@@std@@V12@V?$regex_traits@D@2@@std@@YA?AV?$_String_const_iterator@V?$_String_val@U?$_Simple_types@D@std@@@std@@@0@V10@000ABV?$regex_traits@D@0@W4syntax_option_type@regex_constants@0@@Z
	??$_Construct_in_place@PADAAPAD@std@@YAXAAPAD0@Z
	??$_Construct_in_place@PADABQAD@std@@YAXAAPADABQAD@Z
	??$_Construct_in_place@PAU?$_Tree_node@HPAX@std@@AAPAU12@@std@@YAXAAPAU?$_Tree_node@HPAX@0@0@Z
	??$_Construct_in_place@PAU?$_Tree_node@HPAX@std@@ABQAU12@@std@@YAXAAPAU?$_Tree_node@HPAX@0@ABQAU10@@Z
	??$_Construct_in_place@PAU?$_Tree_node@U?$pair@$$CBHH@std@@PAX@std@@AAPAU12@@std@@YAXAAPAU?$_Tree_node@U?$pair@$$CBHH@std@@PAX@0@0@Z
	??$_Construct_in_place@PAU?$_Tree_node@U?$pair@$$CBHH@std@@PAX@std@@ABQAU12@@std@@YAXAAPAU?$_Tree_node@U?$pair@$$CBHH@std@@PAX@0@ABQAU10@@Z
	??$_Construct_in_place@PAU?$_Tree_node@U?$pair@$$CBHV?$basic_string@DU?$char_traits@D@std@@V?$allocator@D@2@@std@@@std@@PAX@std@@AAPAU12@@std@@YAXAAPAU?$_Tree_node@U?$pair@$$CBHV?$basic_string@DU?$char_traits@D@std@@V?$allocator@D@2@@std@@@std@@PAX@0@0@Z
	??$_Construct_in_place@PAU?$_Tree_node@U?$pair@$$CBHV?$basic_string@DU?$char_traits@D@std@@V?$allocator@D@2@@std@@@std@@PAX@std@@ABQAU12@@std@@YAXAAPAU?$_Tree_node@U?$pair@$$CBHV?$basic_string@DU?$char_traits@D@std@@V?$allocator@D@2@@std@@@std@@PAX@0@ABQAU10@@Z
	??$_Construct_in_place@PAU?$_Tree_node@U?$pair@$$CBV?$basic_string@DU?$char_traits@D@std@@V?$allocator@D@2@@std@@H@std@@PAX@std@@AAPAU12@@std@@YAXAAPAU?$_Tree_node@U?$pair@$$CBV?$basic_string@DU?$char_traits@D@std@@V?$allocator@D@2@@std@@H@std@@PAX@0@0@Z
	??$_Construct_in_place@PAU?$_Tree_node@U?$pair@$$CBV?$basic_string@DU?$char_traits@D@std@@V?$allocator@D@2@@std@@H@std@@PAX@std@@ABQAU12@@std@@YAXAAPAU?$_Tree_node@U?$pair@$$CBV?$basic_string@DU?$char_traits@D@std@@V?$allocator@D@2@@std@@H@std@@PAX@0@ABQAU10@@Z
	??$_Construct_in_place@PAU?$_Tree_node@U?$pair@$$CBV?$basic_string@DU?$char_traits@D@std@@V?$allocator@D@2@@std@@PAUggml_tensor@@@std@@PAX@std@@AAPAU12@@std@@YAXAAPAU?$_Tree_node@U?$pair@$$CBV?$basic_string@DU?$char_traits@D@std@@V?$allocator@D@2@@std@@PAUggml_tensor@@@std@@PAX@0@0@Z
	??$_Construct_in_place@PAU?$_Tree_node@U?$pair@$$CBV?$basic_string@DU?$char_traits@D@std@@V?$allocator@D@2@@std@@PAUggml_tensor@@@std@@PAX@std@@ABQAU12@@std@@YAXAAPAU?$_Tree_node@U?$pair@$$CBV?$basic_string@DU?$char_traits@D@std@@V?$allocator@D@2@@std@@PAUggml_tensor@@@std@@PAX@0@ABQAU10@@Z
	??$_Construct_in_place@PAU?$_Tree_node@U?$pair@$$CBV?$basic_string@DU?$char_traits@D@std@@V?$allocator@D@2@@std@@U?$pair@HV?$basic_string@DU?$char_traits@D@std@@V?$allocator@D@2@@std@@@2@@std@@PAX@std@@AAPAU12@@std@@YAXAAPAU?$_Tree_node@U?$pair@$$CBV?$basic_string@DU?$char_traits@D@std@@V?$allocator@D@2@@std@@U?$pair@HV?$basic_string@DU?$char_traits@D@std@@V?$allocator@D@2@@std@@@2@@std@@PAX@0@0@Z
	??$_Construct_in_place@PAU?$_Tree_node@U?$pair@$$CBV?$basic_string@DU?$char_traits@D@std@@V?$allocator@D@2@@std@@U?$pair@HV?$basic_string@DU?$char_traits@D@std@@V?$allocator@D@2@@std@@@2@@std@@PAX@std@@ABQAU12@@std@@YAXAAPAU?$_Tree_node@U?$pair@$$CBV?$basic_string@DU?$char_traits@D@std@@V?$allocator@D@2@@std@@U?$pair@HV?$basic_string@DU?$char_traits@D@std@@V?$allocator@D@2@@std@@@2@@std@@PAX@0@ABQAU10@@Z
	??$_Construct_in_place@PAU?$_Tree_node@U?$pair@$$CBW4asr_system@@V?$map@W4asr_tensor@@PBDU?$less@W4asr_tensor@@@std@@V?$allocator@U?$pair@$$CBW4asr_tensor@@PBD@std@@@3@@std@@@std@@PAX@std@@AAPAU12@@std@@YAXAAPAU?$_Tree_node@U?$pair@$$CBW4asr_system@@V?$map@W4asr_tensor@@PBDU?$less@W4asr_tensor@@@std@@V?$allocator@U?$pair@$$CBW4asr_tensor@@PBD@std@@@3@@std@@@std@@PAX@0@0@Z
	??$_Construct_in_place@PAU?$_Tree_node@U?$pair@$$CBW4asr_system@@V?$map@W4asr_tensor@@PBDU?$less@W4asr_tensor@@@std@@V?$allocator@U?$pair@$$CBW4asr_tensor@@PBD@std@@@3@@std@@@std@@PAX@std@@ABQAU12@@std@@YAXAAPAU?$_Tree_node@U?$pair@$$CBW4asr_system@@V?$map@W4asr_tensor@@PBDU?$less@W4asr_tensor@@@std@@V?$allocator@U?$pair@$$CBW4asr_tensor@@PBD@std@@@3@@std@@@std@@PAX@0@ABQAU10@@Z
	??$_Construct_in_place@PAU?$_Tree_node@U?$pair@$$CBW4asr_tensor@@PBD@std@@PAX@std@@AAPAU12@@std@@YAXAAPAU?$_Tree_node@U?$pair@$$CBW4asr_tensor@@PBD@std@@PAX@0@0@Z
	??$_Construct_in_place@PAU?$_Tree_node@U?$pair@$$CBW4asr_tensor@@PBD@std@@PAX@std@@ABQAU12@@std@@YAXAAPAU?$_Tree_node@U?$pair@$$CBW4asr_tensor@@PBD@std@@PAX@0@ABQAU10@@Z
	??$_Construct_in_place@PAU?$_Tree_node@U?$pair@$$CBW4asr_tensor@@W4ggml_op@@@std@@PAX@std@@AAPAU12@@std@@YAXAAPAU?$_Tree_node@U?$pair@$$CBW4asr_tensor@@W4ggml_op@@@std@@PAX@0@0@Z
	??$_Construct_in_place@PAU?$_Tree_node@U?$pair@$$CBW4asr_tensor@@W4ggml_op@@@std@@PAX@std@@ABQAU12@@std@@YAXAAPAU?$_Tree_node@U?$pair@$$CBW4asr_tensor@@W4ggml_op@@@std@@PAX@0@ABQAU10@@Z
	??$_Construct_in_place@PAU?$_Tree_node@U?$pair@$$CBW4e_model@@V?$basic_string@DU?$char_traits@D@std@@V?$allocator@D@2@@std@@@std@@PAX@std@@AAPAU12@@std@@YAXAAPAU?$_Tree_node@U?$pair@$$CBW4e_model@@V?$basic_string@DU?$char_traits@D@std@@V?$allocator@D@2@@std@@@std@@PAX@0@0@Z
	??$_Construct_in_place@PAU?$_Tree_node@U?$pair@$$CBW4e_model@@V?$basic_string@DU?$char_traits@D@std@@V?$allocator@D@2@@std@@@std@@PAX@std@@ABQAU12@@std@@YAXAAPAU?$_Tree_node@U?$pair@$$CBW4e_model@@V?$basic_string@DU?$char_traits@D@std@@V?$allocator@D@2@@std@@@std@@PAX@0@ABQAU10@@Z
	??$_Construct_in_place@PAU?$_Tree_node@U?$pair@$$CBW4vad_tensor@@PBD@std@@PAX@std@@AAPAU12@@std@@YAXAAPAU?$_Tree_node@U?$pair@$$CBW4vad_tensor@@PBD@std@@PAX@0@0@Z
	??$_Construct_in_place@PAU?$_Tree_node@U?$pair@$$CBW4vad_tensor@@PBD@std@@PAX@std@@ABQAU12@@std@@YAXAAPAU?$_Tree_node@U?$pair@$$CBW4vad_tensor@@PBD@std@@PAX@0@ABQAU10@@Z
	??$_Construct_in_place@PAU?$_Tree_node@U?$pair@$$CBW4vad_tensor@@W4ggml_op@@@std@@PAX@std@@AAPAU12@@std@@YAXAAPAU?$_Tree_node@U?$pair@$$CBW4vad_tensor@@W4ggml_op@@@std@@PAX@0@0@Z
	??$_Construct_in_place@PAU?$_Tree_node@U?$pair@$$CBW4vad_tensor@@W4ggml_op@@@std@@PAX@std@@ABQAU12@@std@@YAXAAPAU?$_Tree_node@U?$pair@$$CBW4vad_tensor@@W4ggml_op@@@std@@PAX@0@ABQAU10@@Z
	??$_Construct_in_place@PAU?$_Tree_node@U?$pair@$$CBW4whisper_alignment_heads_preset@@Uwhisper_aheads@@@std@@PAX@std@@AAPAU12@@std@@YAXAAPAU?$_Tree_node@U?$pair@$$CBW4whisper_alignment_heads_preset@@Uwhisper_aheads@@@std@@PAX@0@0@Z
	??$_Construct_in_place@PAU?$_Tree_node@U?$pair@$$CBW4whisper_alignment_heads_preset@@Uwhisper_aheads@@@std@@PAX@std@@ABQAU12@@std@@YAXAAPAU?$_Tree_node@U?$pair@$$CBW4whisper_alignment_heads_preset@@Uwhisper_aheads@@@std@@PAX@0@ABQAU10@@Z
	??$_Construct_in_place@PAU?$_Tree_node@U?$pair@QAUggml_backend_buffer_type@@PAUggml_context@@@std@@PAX@std@@AAPAU12@@std@@YAXAAPAU?$_Tree_node@U?$pair@QAUggml_backend_buffer_type@@PAUggml_context@@@std@@PAX@0@0@Z
	??$_Construct_in_place@PAU?$_Tree_node@U?$pair@QAUggml_backend_buffer_type@@PAUggml_context@@@std@@PAX@std@@ABQAU12@@std@@YAXAAPAU?$_Tree_node@U?$pair@QAUggml_backend_buffer_type@@PAUggml_context@@@std@@PAX@0@ABQAU10@@Z
	??$_Construct_in_place@PA_WAAPA_W@std@@YAXAAPA_W0@Z
	??$_Construct_in_place@PA_WABQA_W@std@@YAXAAPA_WABQA_W@Z
	??$_Construct_in_place@U_Container_proxy@std@@PAU_Container_base12@2@@std@@YAXAAU_Container_proxy@0@$$QAPAU_Container_base12@0@@Z
	??$_Construct_n_copies_of_ty@D@?$vector@DV?$allocator@D@std@@@std@@AAEXIABD@Z
	??$_Construct_n_copies_of_ty@I@?$vector@IV?$allocator@I@std@@@std@@AAEXIABI@Z
	??$_Construct_n_copies_of_ty@M@?$vector@MV?$allocator@M@std@@@std@@AAEXIABM@Z
	??$_Construct_n_copies_of_ty@U_Value_init_tag@std@@@?$vector@DV?$allocator@D@std@@@std@@AAEXIABU_Value_init_tag@1@@Z
	??$_Construct_n_copies_of_ty@U_Value_init_tag@std@@@?$vector@EV?$allocator@E@std@@@std@@AAEXIABU_Value_init_tag@1@@Z
	??$_Construct_n_copies_of_ty@U_Value_init_tag@std@@@?$vector@MV?$allocator@M@std@@@std@@AAEXIABU_Value_init_tag@1@@Z
	??$_Construct_n_copies_of_ty@U_Value_init_tag@std@@@?$vector@V?$vector@Uwhisper_grammar_element@@V?$allocator@Uwhisper_grammar_element@@@std@@@std@@V?$allocator@V?$vector@Uwhisper_grammar_element@@V?$allocator@Uwhisper_grammar_element@@@std@@@std@@@2@@std@@AAEXIABU_Value_init_tag@1@@Z
	??$_Construct_n_copies_of_ty@U_Value_init_tag@std@@@?$vector@Vthread@std@@V?$allocator@Vthread@std@@@2@@std@@AAEXIABU_Value_init_tag@1@@Z
	??$_Convert_size@I@std@@YAII@Z
	??$_Copy@U_Copy_tag@?$_Tree@V?$_Tmap_traits@W4asr_tensor@@PBDU?$less@W4asr_tensor@@@std@@V?$allocator@U?$pair@$$CBW4asr_tensor@@PBD@std@@@3@$0A@@std@@@std@@@?$_Tree@V?$_Tmap_traits@W4asr_tensor@@PBDU?$less@W4asr_tensor@@@std@@V?$allocator@U?$pair@$$CBW4asr_tensor@@PBD@std@@@3@$0A@@std@@@std@@IAEXABV01@U_Copy_tag@01@@Z
	??$_Copy@U_Copy_tag@?$_Tree@V?$_Tset_traits@HU?$less@H@std@@V?$allocator@H@2@$0A@@std@@@std@@@?$_Tree@V?$_Tset_traits@HU?$less@H@std@@V?$allocator@H@2@$0A@@std@@@std@@IAEXABV01@U_Copy_tag@01@@Z
	??$_Copy_backward_memmove@PAHPAH@std@@YAPAHPAH00@Z
	??$_Copy_backward_memmove@PAMPAM@std@@YAPAMPAM00@Z
	??$_Copy_backward_memmove@PAU?$whisper_pair@NH@@PAU1@@std@@YAPAU?$whisper_pair@NH@@PAU1@00@Z
	??$_Copy_backward_memmove@PAUvad_time_mapping@@PAU1@@std@@YAPAUvad_time_mapping@@PAU1@00@Z
	??$_Copy_backward_memmove@PAUwhisper_token_data@@PAU1@@std@@YAPAUwhisper_token_data@@PAU1@00@Z
	??$_Copy_backward_unchecked@V?$_Vb_iterator@U?$_Wrap_alloc@V?$allocator@I@std@@@std@@@std@@V12@@std@@YA?AV?$_Vb_iterator@U?$_Wrap_alloc@V?$allocator@I@std@@@std@@@0@V10@00@Z
	??$_Copy_memmove@PADPAD@std@@YAPADPAD00@Z
	??$_Copy_memmove@PAEPAE@std@@YAPAEPAE00@Z
	??$_Copy_memmove@PAHPAH@std@@YAPAHPAH00@Z
	??$_Copy_memmove@PAIPAI@std@@YAPAIPAI00@Z
	??$_Copy_memmove@PAMPAM@std@@YAPAMPAM00@Z
	??$_Copy_memmove@PANPAN@std@@YAPANPAN00@Z
	??$_Copy_memmove@PAPAUggml_backend@@PAPAU1@@std@@YAPAPAUggml_backend@@PAPAU1@00@Z
	??$_Copy_memmove@PAPAUggml_backend_buffer@@PAPAU1@@std@@YAPAPAUggml_backend_buffer@@PAPAU1@00@Z
	??$_Copy_memmove@PAPAUggml_context@@PAPAU1@@std@@YAPAPAUggml_context@@PAPAU1@00@Z
	??$_Copy_memmove@PAPAUggml_tensor@@PAPAU1@@std@@YAPAPAUggml_tensor@@PAPAU1@00@Z
	??$_Copy_memmove@PAPAUwhisper_state@@PAPAU1@@std@@YAPAPAUwhisper_state@@PAPAU1@00@Z
	??$_Copy_memmove@PAPBUwhisper_grammar_element@@PAPBU1@@std@@YAPAPBUwhisper_grammar_element@@PAPBU1@00@Z
	??$_Copy_memmove@PAU_Grp_t@?$_Tgt_state_t@PBD@std@@PAU123@@std@@YAPAU_Grp_t@?$_Tgt_state_t@PBD@0@PAU120@00@Z
	??$_Copy_memmove@PAU_Loop_vals_t@std@@PAU12@@std@@YAPAU_Loop_vals_t@0@PAU10@00@Z
	??$_Copy_memmove@PAUvad_segment_info@whisper_state@@PAU12@@std@@YAPAUvad_segment_info@whisper_state@@PAU12@00@Z
	??$_Copy_memmove@PAUvad_time_mapping@@PAU1@@std@@YAPAUvad_time_mapping@@PAU1@00@Z
	??$_Copy_memmove@PAUwhisper_grammar_candidate@@PAU1@@std@@YAPAUwhisper_grammar_candidate@@PAU1@00@Z
	??$_Copy_memmove@PAUwhisper_grammar_element@@PAU1@@std@@YAPAUwhisper_grammar_element@@PAU1@00@Z
	??$_Copy_memmove@PAUwhisper_layer_decoder@@PAU1@@std@@YAPAUwhisper_layer_decoder@@PAU1@00@Z
	??$_Copy_memmove@PAUwhisper_layer_encoder@@PAU1@@std@@YAPAUwhisper_layer_encoder@@PAU1@00@Z
	??$_Copy_memmove@PAUwhisper_token_data@@PAU1@@std@@YAPAUwhisper_token_data@@PAU1@00@Z
	??$_Copy_memmove@PAUwhisper_vad_segment@@PAU1@@std@@YAPAUwhisper_vad_segment@@PAU1@00@Z
	??$_Copy_memmove@PBDPAD@std@@YAPADPBD0PAD@Z
	??$_Copy_memmove@PBHPAH@std@@YAPAHPBH0PAH@Z
	??$_Copy_memmove@PBIPAI@std@@YAPAIPBI0PAI@Z
	??$_Copy_memmove@PBMPAM@std@@YAPAMPBM0PAM@Z
	??$_Copy_memmove@PBQBUwhisper_grammar_element@@PAPBU1@@std@@YAPAPBUwhisper_grammar_element@@PBQBU1@0PAPBU1@@Z
	??$_Copy_nodes@U_Copy_tag@?$_Tree@V?$_Tmap_traits@W4asr_tensor@@PBDU?$less@W4asr_tensor@@@std@@V?$allocator@U?$pair@$$CBW4asr_tensor@@PBD@std@@@3@$0A@@std@@@std@@@?$_Tree@V?$_Tmap_traits@W4asr_tensor@@PBDU?$less@W4asr_tensor@@@std@@V?$allocator@U?$pair@$$CBW4asr_tensor@@PBD@std@@@3@$0A@@std@@@std@@IAEPAU?$_Tree_node@U?$pair@$$CBW4asr_tensor@@PBD@std@@PAX@1@PAU21@0U_Copy_tag@01@@Z
	??$_Copy_nodes@U_Copy_tag@?$_Tree@V?$_Tset_traits@HU?$less@H@std@@V?$allocator@H@2@$0A@@std@@@std@@@?$_Tree@V?$_Tset_traits@HU?$less@H@std@@V?$allocator@H@2@$0A@@std@@@std@@IAEPAU?$_Tree_node@HPAX@1@PAU21@0U_Copy_tag@01@@Z
	??$_Copy_or_move@HU?$integral_constant@_N$00@std@@@?$_Tree@V?$_Tset_traits@HU?$less@H@std@@V?$allocator@H@2@$0A@@std@@@std@@IAEPAU?$_Tree_node@HPAX@1@AAHU_Copy_tag@01@U?$integral_constant@_N$00@1@@Z
	??$_Copy_or_move@U?$pair@$$CBW4asr_tensor@@PBD@std@@U?$integral_constant@_N$0A@@2@@?$_Tree@V?$_Tmap_traits@W4asr_tensor@@PBDU?$less@W4asr_tensor@@@std@@V?$allocator@U?$pair@$$CBW4asr_tensor@@PBD@std@@@3@$0A@@std@@@std@@IAEPAU?$_Tree_node@U?$pair@$$CBW4asr_tensor@@PBD@std@@PAX@1@AAU?$pair@$$CBW4asr_tensor@@PBD@1@U_Copy_tag@01@U?$integral_constant@_N$0A@@1@@Z
	??$_Copy_unchecked@PAIPAI@std@@YAPAIPAI00@Z
	??$_Copy_unchecked@PAMPAM@std@@YAPAMPAM00@Z
	??$_Copy_unchecked@PAPBUwhisper_grammar_element@@PAPBU1@@std@@YAPAPBUwhisper_grammar_element@@PAPBU1@00@Z
	??$_Copy_unchecked@PAU_Grp_t@?$_Tgt_state_t@PBD@std@@PAU123@@std@@YAPAU_Grp_t@?$_Tgt_state_t@PBD@0@PAU120@00@Z
	??$_Copy_unchecked@PAU_Grp_t@?$_Tgt_state_t@V?$_String_const_iterator@V?$_String_val@U?$_Simple_types@D@std@@@std@@@std@@@std@@PAU123@@std@@YAPAU_Grp_t@?$_Tgt_state_t@V?$_String_const_iterator@V?$_String_val@U?$_Simple_types@D@std@@@std@@@std@@@0@PAU120@00@Z
	??$_Copy_unchecked@PAUwhisper_grammar_element@@PAU1@@std@@YAPAUwhisper_grammar_element@@PAU1@00@Z
	??$_Copy_unchecked@PAUwhisper_token_data@@PAU1@@std@@YAPAUwhisper_token_data@@PAU1@00@Z
	??$_Copy_unchecked@PAV?$vector@PBUwhisper_grammar_element@@V?$allocator@PBUwhisper_grammar_element@@@std@@@std@@PAV12@@std@@YAPAV?$vector@PBUwhisper_grammar_element@@V?$allocator@PBUwhisper_grammar_element@@@std@@@0@PAV10@00@Z
	??$_Copy_unchecked@PAV?$vector@Uwhisper_grammar_element@@V?$allocator@Uwhisper_grammar_element@@@std@@@std@@PAV12@@std@@YAPAV?$vector@Uwhisper_grammar_element@@V?$allocator@Uwhisper_grammar_element@@@std@@@0@PAV10@00@Z
	??$_Copy_unchecked@PBHPAH@std@@YAPAHPBH0PAH@Z
	??$_Copy_unchecked@PBMPAM@std@@YAPAMPBM0PAM@Z
	??$_Copy_unchecked@V?$_Vb_iterator@U?$_Wrap_alloc@V?$allocator@I@std@@@std@@@std@@V12@@std@@YA?AV?$_Vb_iterator@U?$_Wrap_alloc@V?$allocator@I@std@@@std@@@0@V10@00@Z
	??$_Deallocate@$03$0A@@std@@YAXPAXI@Z
	??$_Deallocate@$07$0A@@std@@YAXPAXI@Z
	??$_Deallocate_plain@V?$allocator@U_Container_proxy@std@@@std@@@std@@YAXAAV?$allocator@U_Container_proxy@std@@@0@QAU_Container_proxy@0@@Z
	??$_Debug_lt_pred@AAU?$less@X@std@@AAMAAM$0A@@std@@YA_NAAU?$less@X@0@AAM1@Z
	??$_Debug_lt_pred@AAU?$less@X@std@@ABMABM$0A@@std@@YA_NAAU?$less@X@0@ABM1@Z
	??$_Debug_lt_pred@ABU?$less@H@std@@ABHABH$0A@@std@@YA_NABU?$less@H@0@ABH1@Z
	??$_Debug_lt_pred@ABU?$less@PAUggml_backend_buffer_type@@@std@@ABQAUggml_backend_buffer_type@@ABQAU3@$0A@@std@@YA_NABU?$less@PAUggml_backend_buffer_type@@@0@ABQAUggml_backend_buffer_type@@1@Z
	??$_Debug_lt_pred@ABU?$less@V?$basic_string@DU?$char_traits@D@std@@V?$allocator@D@2@@std@@@std@@ABV?$basic_string@DU?$char_traits@D@std@@V?$allocator@D@2@@2@ABV32@$0A@@std@@YA_NABU?$less@V?$basic_string@DU?$char_traits@D@std@@V?$allocator@D@2@@std@@@0@ABV?$basic_string@DU?$char_traits@D@std@@V?$allocator@D@2@@0@1@Z
	??$_Debug_lt_pred@ABU?$less@W4asr_system@@@std@@ABW4asr_system@@ABW43@$0A@@std@@YA_NABU?$less@W4asr_system@@@0@ABW4asr_system@@1@Z
	??$_Debug_lt_pred@ABU?$less@W4asr_tensor@@@std@@ABW4asr_tensor@@ABW43@$0A@@std@@YA_NABU?$less@W4asr_tensor@@@0@ABW4asr_tensor@@1@Z
	??$_Debug_lt_pred@ABU?$less@W4e_model@@@std@@ABW4e_model@@ABW43@$0A@@std@@YA_NABU?$less@W4e_model@@@0@ABW4e_model@@1@Z
	??$_Debug_lt_pred@ABU?$less@W4vad_tensor@@@std@@ABW4vad_tensor@@ABW43@$0A@@std@@YA_NABU?$less@W4vad_tensor@@@0@ABW4vad_tensor@@1@Z
	??$_Debug_lt_pred@ABU?$less@W4whisper_alignment_heads_preset@@@std@@ABW4whisper_alignment_heads_preset@@ABW43@$0A@@std@@YA_NABU?$less@W4whisper_alignment_heads_preset@@@0@ABW4whisper_alignment_heads_preset@@1@Z
	??$_Delete_plain_internal@V?$allocator@U_Container_proxy@std@@@std@@@std@@YAXAAV?$allocator@U_Container_proxy@std@@@0@QAU_Container_proxy@0@@Z
	??$_Destroy_in_place@PAD@std@@YAXAAPAD@Z
	??$_Destroy_in_place@PAU?$_Tree_node@HPAX@std@@@std@@YAXAAPAU?$_Tree_node@HPAX@0@@Z
	??$_Destroy_in_place@PAU?$_Tree_node@U?$pair@$$CBHH@std@@PAX@std@@@std@@YAXAAPAU?$_Tree_node@U?$pair@$$CBHH@std@@PAX@0@@Z
	??$_Destroy_in_place@PAU?$_Tree_node@U?$pair@$$CBHV?$basic_string@DU?$char_traits@D@std@@V?$allocator@D@2@@std@@@std@@PAX@std@@@std@@YAXAAPAU?$_Tree_node@U?$pair@$$CBHV?$basic_string@DU?$char_traits@D@std@@V?$allocator@D@2@@std@@@std@@PAX@0@@Z
	??$_Destroy_in_place@PAU?$_Tree_node@U?$pair@$$CBV?$basic_string@DU?$char_traits@D@std@@V?$allocator@D@2@@std@@H@std@@PAX@std@@@std@@YAXAAPAU?$_Tree_node@U?$pair@$$CBV?$basic_string@DU?$char_traits@D@std@@V?$allocator@D@2@@std@@H@std@@PAX@0@@Z
	??$_Destroy_in_place@PAU?$_Tree_node@U?$pair@$$CBV?$basic_string@DU?$char_traits@D@std@@V?$allocator@D@2@@std@@PAUggml_tensor@@@std@@PAX@std@@@std@@YAXAAPAU?$_Tree_node@U?$pair@$$CBV?$basic_string@DU?$char_traits@D@std@@V?$allocator@D@2@@std@@PAUggml_tensor@@@std@@PAX@0@@Z
	??$_Destroy_in_place@PAU?$_Tree_node@U?$pair@$$CBV?$basic_string@DU?$char_traits@D@std@@V?$allocator@D@2@@std@@U?$pair@HV?$basic_string@DU?$char_traits@D@std@@V?$allocator@D@2@@std@@@2@@std@@PAX@std@@@std@@YAXAAPAU?$_Tree_node@U?$pair@$$CBV?$basic_string@DU?$char_traits@D@std@@V?$allocator@D@2@@std@@U?$pair@HV?$basic_string@DU?$char_traits@D@std@@V?$allocator@D@2@@std@@@2@@std@@PAX@0@@Z
	??$_Destroy_in_place@PAU?$_Tree_node@U?$pair@$$CBW4asr_system@@V?$map@W4asr_tensor@@PBDU?$less@W4asr_tensor@@@std@@V?$allocator@U?$pair@$$CBW4asr_tensor@@PBD@std@@@3@@std@@@std@@PAX@std@@@std@@YAXAAPAU?$_Tree_node@U?$pair@$$CBW4asr_system@@V?$map@W4asr_tensor@@PBDU?$less@W4asr_tensor@@@std@@V?$allocator@U?$pair@$$CBW4asr_tensor@@PBD@std@@@3@@std@@@std@@PAX@0@@Z
	??$_Destroy_in_place@PAU?$_Tree_node@U?$pair@$$CBW4asr_tensor@@PBD@std@@PAX@std@@@std@@YAXAAPAU?$_Tree_node@U?$pair@$$CBW4asr_tensor@@PBD@std@@PAX@0@@Z
	??$_Destroy_in_place@PAU?$_Tree_node@U?$pair@$$CBW4asr_tensor@@W4ggml_op@@@std@@PAX@std@@@std@@YAXAAPAU?$_Tree_node@U?$pair@$$CBW4asr_tensor@@W4ggml_op@@@std@@PAX@0@@Z
	??$_Destroy_in_place@PAU?$_Tree_node@U?$pair@$$CBW4e_model@@V?$basic_string@DU?$char_traits@D@std@@V?$allocator@D@2@@std@@@std@@PAX@std@@@std@@YAXAAPAU?$_Tree_node@U?$pair@$$CBW4e_model@@V?$basic_string@DU?$char_traits@D@std@@V?$allocator@D@2@@std@@@std@@PAX@0@@Z
	??$_Destroy_in_place@PAU?$_Tree_node@U?$pair@$$CBW4vad_tensor@@PBD@std@@PAX@std@@@std@@YAXAAPAU?$_Tree_node@U?$pair@$$CBW4vad_tensor@@PBD@std@@PAX@0@@Z
	??$_Destroy_in_place@PAU?$_Tree_node@U?$pair@$$CBW4vad_tensor@@W4ggml_op@@@std@@PAX@std@@@std@@YAXAAPAU?$_Tree_node@U?$pair@$$CBW4vad_tensor@@W4ggml_op@@@std@@PAX@0@@Z
	??$_Destroy_in_place@PAU?$_Tree_node@U?$pair@$$CBW4whisper_alignment_heads_preset@@Uwhisper_aheads@@@std@@PAX@std@@@std@@YAXAAPAU?$_Tree_node@U?$pair@$$CBW4whisper_alignment_heads_preset@@Uwhisper_aheads@@@std@@PAX@0@@Z
	??$_Destroy_in_place@PAU?$_Tree_node@U?$pair@QAUggml_backend_buffer_type@@PAUggml_context@@@std@@PAX@std@@@std@@YAXAAPAU?$_Tree_node@U?$pair@QAUggml_backend_buffer_type@@PAUggml_context@@@std@@PAX@0@@Z
	??$_Destroy_in_place@PA_W@std@@YAXAAPA_W@Z
	??$_Destroy_range@V?$allocator@D@std@@@std@@YAXPADQADAAV?$allocator@D@0@@Z
	??$_Destroy_range@V?$allocator@E@std@@@std@@YAXPAEQAEAAV?$allocator@E@0@@Z
	??$_Destroy_range@V?$allocator@H@std@@@std@@YAXPAHQAHAAV?$allocator@H@0@@Z
	??$_Destroy_range@V?$allocator@I@std@@@std@@YAXPAIQAIAAV?$allocator@I@0@@Z
	??$_Destroy_range@V?$allocator@M@std@@@std@@YAXPAMQAMAAV?$allocator@M@0@@Z
	??$_Destroy_range@V?$allocator@N@std@@@std@@YAXPANQANAAV?$allocator@N@0@@Z
	??$_Destroy_range@V?$allocator@PAUggml_backend@@@std@@@std@@YAXPAPAUggml_backend@@QAPAU1@AAV?$allocator@PAUggml_backend@@@0@@Z
	??$_Destroy_range@V?$allocator@PAUggml_backend_buffer@@@std@@@std@@YAXPAPAUggml_backend_buffer@@QAPAU1@AAV?$allocator@PAUggml_backend_buffer@@@0@@Z
	??$_Destroy_range@V?$allocator@PAUggml_context@@@std@@@std@@YAXPAPAUggml_context@@QAPAU1@AAV?$allocator@PAUggml_context@@@0@@Z
	??$_Destroy_range@V?$allocator@PAUggml_tensor@@@std@@@std@@YAXPAPAUggml_tensor@@QAPAU1@AAV?$allocator@PAUggml_tensor@@@0@@Z
	??$_Destroy_range@V?$allocator@PAUwhisper_state@@@std@@@std@@YAXPAPAUwhisper_state@@QAPAU1@AAV?$allocator@PAUwhisper_state@@@0@@Z
	??$_Destroy_range@V?$allocator@PBUwhisper_grammar_element@@@std@@@std@@YAXPAPBUwhisper_grammar_element@@QAPBU1@AAV?$allocator@PBUwhisper_grammar_element@@@0@@Z
	??$_Destroy_range@V?$allocator@U?$pair@PAUggml_backend_device@@PAUggml_backend_buffer_type@@@std@@@std@@@std@@YAXPAU?$pair@PAUggml_backend_device@@PAUggml_backend_buffer_type@@@0@QAU10@AAV?$allocator@U?$pair@PAUggml_backend_device@@PAUggml_backend_buffer_type@@@std@@@0@@Z
	??$_Destroy_range@V?$allocator@U?$pair@V?$vector@IV?$allocator@I@std@@@std@@Uwhisper_partial_utf8@@@std@@@std@@@std@@YAXPAU?$pair@V?$vector@IV?$allocator@I@std@@@std@@Uwhisper_partial_utf8@@@0@QAU10@AAV?$allocator@U?$pair@V?$vector@IV?$allocator@I@std@@@std@@Uwhisper_partial_utf8@@@std@@@0@@Z
	??$_Destroy_range@V?$allocator@U?$whisper_pair@NH@@@std@@@std@@YAXPAU?$whisper_pair@NH@@QAU1@AAV?$allocator@U?$whisper_pair@NH@@@0@@Z
	??$_Destroy_range@V?$allocator@U_Grp_t@?$_Tgt_state_t@PBD@std@@@std@@@std@@YAXPAU_Grp_t@?$_Tgt_state_t@PBD@0@QAU120@AAV?$allocator@U_Grp_t@?$_Tgt_state_t@PBD@std@@@0@@Z
	??$_Destroy_range@V?$allocator@U_Grp_t@?$_Tgt_state_t@V?$_String_const_iterator@V?$_String_val@U?$_Simple_types@D@std@@@std@@@std@@@std@@@std@@@std@@YAXPAU_Grp_t@?$_Tgt_state_t@V?$_String_const_iterator@V?$_String_val@U?$_Simple_types@D@std@@@std@@@std@@@0@QAU120@AAV?$allocator@U_Grp_t@?$_Tgt_state_t@V?$_String_const_iterator@V?$_String_val@U?$_Simple_types@D@std@@@std@@@std@@@std@@@0@@Z
	??$_Destroy_range@V?$allocator@U_Loop_vals_t@std@@@std@@@std@@YAXPAU_Loop_vals_t@0@QAU10@AAV?$allocator@U_Loop_vals_t@std@@@0@@Z
	??$_Destroy_range@V?$allocator@Uvad_segment_info@whisper_state@@@std@@@std@@YAXPAUvad_segment_info@whisper_state@@QAU12@AAV?$allocator@Uvad_segment_info@whisper_state@@@0@@Z
	??$_Destroy_range@V?$allocator@Uvad_time_mapping@@@std@@@std@@YAXPAUvad_time_mapping@@QAU1@AAV?$allocator@Uvad_time_mapping@@@0@@Z
	??$_Destroy_range@V?$allocator@Uwhisper_grammar_candidate@@@std@@@std@@YAXPAUwhisper_grammar_candidate@@QAU1@AAV?$allocator@Uwhisper_grammar_candidate@@@0@@Z
	??$_Destroy_range@V?$allocator@Uwhisper_grammar_element@@@std@@@std@@YAXPAUwhisper_grammar_element@@QAU1@AAV?$allocator@Uwhisper_grammar_element@@@0@@Z
	??$_Destroy_range@V?$allocator@Uwhisper_kv_cell@@@std@@@std@@YAXPAUwhisper_kv_cell@@QAU1@AAV?$allocator@Uwhisper_kv_cell@@@0@@Z
	??$_Destroy_range@V?$allocator@Uwhisper_layer_decoder@@@std@@@std@@YAXPAUwhisper_layer_decoder@@QAU1@AAV?$allocator@Uwhisper_layer_decoder@@@0@@Z
	??$_Destroy_range@V?$allocator@Uwhisper_layer_encoder@@@std@@@std@@YAXPAUwhisper_layer_encoder@@QAU1@AAV?$allocator@Uwhisper_layer_encoder@@@0@@Z
	??$_Destroy_range@V?$allocator@Uwhisper_segment@@@std@@@std@@YAXPAUwhisper_segment@@QAU1@AAV?$allocator@Uwhisper_segment@@@0@@Z
	??$_Destroy_range@V?$allocator@Uwhisper_token_data@@@std@@@std@@YAXPAUwhisper_token_data@@QAU1@AAV?$allocator@Uwhisper_token_data@@@0@@Z
	??$_Destroy_range@V?$allocator@Uwhisper_vad_segment@@@std@@@std@@YAXPAUwhisper_vad_segment@@QAU1@AAV?$allocator@Uwhisper_vad_segment@@@0@@Z
	??$_Destroy_range@V?$allocator@V?$basic_string@DU?$char_traits@D@std@@V?$allocator@D@2@@std@@@std@@@std@@YAXPAV?$basic_string@DU?$char_traits@D@std@@V?$allocator@D@2@@0@QAV10@AAV?$allocator@V?$basic_string@DU?$char_traits@D@std@@V?$allocator@D@2@@std@@@0@@Z
	??$_Destroy_range@V?$allocator@V?$sub_match@PBD@std@@@std@@@std@@YAXPAV?$sub_match@PBD@0@QAV10@AAV?$allocator@V?$sub_match@PBD@std@@@0@@Z
	??$_Destroy_range@V?$allocator@V?$sub_match@V?$_String_const_iterator@V?$_String_val@U?$_Simple_types@D@std@@@std@@@std@@@std@@@std@@@std@@YAXPAV?$sub_match@V?$_String_const_iterator@V?$_String_val@U?$_Simple_types@D@std@@@std@@@std@@@0@QAV10@AAV?$allocator@V?$sub_match@V?$_String_const_iterator@V?$_String_val@U?$_Simple_types@D@std@@@std@@@std@@@std@@@0@@Z
	??$_Destroy_range@V?$allocator@V?$vector@PBUwhisper_grammar_element@@V?$allocator@PBUwhisper_grammar_element@@@std@@@std@@@std@@@std@@YAXPAV?$vector@PBUwhisper_grammar_element@@V?$allocator@PBUwhisper_grammar_element@@@std@@@0@QAV10@AAV?$allocator@V?$vector@PBUwhisper_grammar_element@@V?$allocator@PBUwhisper_grammar_element@@@std@@@std@@@0@@Z
	??$_Destroy_range@V?$allocator@V?$vector@Uwhisper_grammar_element@@V?$allocator@Uwhisper_grammar_element@@@std@@@std@@@std@@@std@@YAXPAV?$vector@Uwhisper_grammar_element@@V?$allocator@Uwhisper_grammar_element@@@std@@@0@QAV10@AAV?$allocator@V?$vector@Uwhisper_grammar_element@@V?$allocator@Uwhisper_grammar_element@@@std@@@std@@@0@@Z
	??$_Destroy_range@V?$allocator@Vthread@std@@@std@@@std@@YAXPAVthread@0@QAV10@AAV?$allocator@Vthread@std@@@0@@Z
	??$_Emplace@ABH@?$_Tree@V?$_Tset_traits@HU?$less@H@std@@V?$allocator@H@2@$0A@@std@@@std@@IAE?AU?$pair@PAU?$_Tree_node@HPAX@std@@_N@1@ABH@Z
	??$_Emplace_back@$$V@?$_Uninitialized_backout_al@V?$allocator@D@std@@@std@@QAEXXZ
	??$_Emplace_back@$$V@?$_Uninitialized_backout_al@V?$allocator@E@std@@@std@@QAEXXZ
	??$_Emplace_back@$$V@?$_Uninitialized_backout_al@V?$allocator@H@std@@@std@@QAEXXZ
	??$_Emplace_back@$$V@?$_Uninitialized_backout_al@V?$allocator@M@std@@@std@@QAEXXZ
	??$_Emplace_back@$$V@?$_Uninitialized_backout_al@V?$allocator@U?$whisper_pair@NH@@@std@@@std@@QAEXXZ
	??$_Emplace_back@$$V@?$_Uninitialized_backout_al@V?$allocator@U_Grp_t@?$_Tgt_state_t@PBD@std@@@std@@@std@@QAEXXZ
	??$_Emplace_back@$$V@?$_Uninitialized_backout_al@V?$allocator@U_Grp_t@?$_Tgt_state_t@V?$_String_const_iterator@V?$_String_val@U?$_Simple_types@D@std@@@std@@@std@@@std@@@std@@@std@@QAEXXZ
	??$_Emplace_back@$$V@?$_Uninitialized_backout_al@V?$allocator@U_Loop_vals_t@std@@@std@@@std@@QAEXXZ
	??$_Emplace_back@$$V@?$_Uninitialized_backout_al@V?$allocator@Uwhisper_kv_cell@@@std@@@std@@QAEXXZ
	??$_Emplace_back@$$V@?$_Uninitialized_backout_al@V?$allocator@Uwhisper_layer_decoder@@@std@@@std@@QAEXXZ
	??$_Emplace_back@$$V@?$_Uninitialized_backout_al@V?$allocator@Uwhisper_layer_encoder@@@std@@@std@@QAEXXZ
	??$_Emplace_back@$$V@?$_Uninitialized_backout_al@V?$allocator@Uwhisper_token_data@@@std@@@std@@QAEXXZ
	??$_Emplace_back@$$V@?$_Uninitialized_backout_al@V?$allocator@Uwhisper_vad_segment@@@std@@@std@@QAEXXZ
	??$_Emplace_back@$$V@?$_Uninitialized_backout_al@V?$allocator@V?$sub_match@PBD@std@@@std@@@std@@QAEXXZ
	??$_Emplace_back@$$V@?$_Uninitialized_backout_al@V?$allocator@V?$sub_match@V?$_String_const_iterator@V?$_String_val@U?$_Simple_types@D@std@@@std@@@std@@@std@@@std@@@std@@QAEXXZ
	??$_Emplace_back@$$V@?$_Uninitialized_backout_al@V?$allocator@V?$vector@Uwhisper_grammar_element@@V?$allocator@Uwhisper_grammar_element@@@std@@@std@@@std@@@std@@QAEXXZ
	??$_Emplace_back@$$V@?$_Uninitialized_backout_al@V?$allocator@Vthread@std@@@std@@@std@@QAEXXZ
	??$_Emplace_back@AAD@?$_Uninitialized_backout_al@V?$allocator@D@std@@@std@@QAEXAAD@Z
	??$_Emplace_back@AAH@?$_Uninitialized_backout_al@V?$allocator@H@std@@@std@@QAEXAAH@Z
	??$_Emplace_back@AAI@?$_Uninitialized_backout_al@V?$allocator@I@std@@@std@@QAEXAAI@Z
	??$_Emplace_back@AAPAUggml_backend@@@?$_Uninitialized_backout_al@V?$allocator@PAUggml_backend@@@std@@@std@@QAEXAAPAUggml_backend@@@Z
	??$_Emplace_back@AAPBUwhisper_grammar_element@@@?$_Uninitialized_backout_al@V?$allocator@PBUwhisper_grammar_element@@@std@@@std@@QAEXAAPBUwhisper_grammar_element@@@Z
	??$_Emplace_back@AAU?$pair@PAUggml_backend_device@@PAUggml_backend_buffer_type@@@std@@@?$_Uninitialized_backout_al@V?$allocator@U?$pair@PAUggml_backend_device@@PAUggml_backend_buffer_type@@@std@@@std@@@std@@QAEXAAU?$pair@PAUggml_backend_device@@PAUggml_backend_buffer_type@@@1@@Z
	??$_Emplace_back@AAU_Grp_t@?$_Tgt_state_t@PBD@std@@@?$_Uninitialized_backout_al@V?$allocator@U_Grp_t@?$_Tgt_state_t@PBD@std@@@std@@@std@@QAEXAAU_Grp_t@?$_Tgt_state_t@PBD@1@@Z
	??$_Emplace_back@AAU_Grp_t@?$_Tgt_state_t@V?$_String_const_iterator@V?$_String_val@U?$_Simple_types@D@std@@@std@@@std@@@std@@@?$_Uninitialized_backout_al@V?$allocator@U_Grp_t@?$_Tgt_state_t@V?$_String_const_iterator@V?$_String_val@U?$_Simple_types@D@std@@@std@@@std@@@std@@@std@@@std@@QAEXAAU_Grp_t@?$_Tgt_state_t@V?$_String_const_iterator@V?$_String_val@U?$_Simple_types@D@std@@@std@@@std@@@1@@Z
	??$_Emplace_back@AAUwhisper_grammar_element@@@?$_Uninitialized_backout_al@V?$allocator@Uwhisper_grammar_element@@@std@@@std@@QAEXAAUwhisper_grammar_element@@@Z
	??$_Emplace_back@AAUwhisper_kv_cell@@@?$_Uninitialized_backout_al@V?$allocator@Uwhisper_kv_cell@@@std@@@std@@QAEXAAUwhisper_kv_cell@@@Z
	??$_Emplace_back@AAUwhisper_token_data@@@?$_Uninitialized_backout_al@V?$allocator@Uwhisper_token_data@@@std@@@std@@QAEXAAUwhisper_token_data@@@Z
	??$_Emplace_back@AAV?$vector@PBUwhisper_grammar_element@@V?$allocator@PBUwhisper_grammar_element@@@std@@@std@@@?$_Uninitialized_backout_al@V?$allocator@V?$vector@PBUwhisper_grammar_element@@V?$allocator@PBUwhisper_grammar_element@@@std@@@std@@@std@@@std@@QAEXAAV?$vector@PBUwhisper_grammar_element@@V?$allocator@PBUwhisper_grammar_element@@@std@@@1@@Z
	??$_Emplace_back@AAV?$vector@Uwhisper_grammar_element@@V?$allocator@Uwhisper_grammar_element@@@std@@@std@@@?$_Uninitialized_backout_al@V?$allocator@V?$vector@Uwhisper_grammar_element@@V?$allocator@Uwhisper_grammar_element@@@std@@@std@@@std@@@std@@QAEXAAV?$vector@Uwhisper_grammar_element@@V?$allocator@Uwhisper_grammar_element@@@std@@@1@@Z
	??$_Emplace_back@ABD@?$_Uninitialized_backout_al@V?$allocator@D@std@@@std@@QAEXABD@Z
	??$_Emplace_back@ABH@?$_Uninitialized_backout_al@V?$allocator@H@std@@@std@@QAEXABH@Z
	??$_Emplace_back@ABI@?$_Uninitialized_backout_al@V?$allocator@I@std@@@std@@QAEXABI@Z
	??$_Emplace_back@ABM@?$_Uninitialized_backout_al@V?$allocator@M@std@@@std@@QAEXABM@Z
	??$_Emplace_back@ABM@?$_Uninitialized_backout_al@V?$allocator@N@std@@@std@@QAEXABM@Z
	??$_Emplace_back@ABN@?$_Uninitialized_backout_al@V?$allocator@N@std@@@std@@QAEXABN@Z
	??$_Emplace_back@ABQBUwhisper_grammar_element@@@?$_Uninitialized_backout_al@V?$allocator@PBUwhisper_grammar_element@@@std@@@std@@QAEXABQBUwhisper_grammar_element@@@Z
	??$_Emplace_back@ABV?$basic_string@DU?$char_traits@D@std@@V?$allocator@D@2@@std@@@?$_Uninitialized_backout_al@V?$allocator@V?$basic_string@DU?$char_traits@D@std@@V?$allocator@D@2@@std@@@std@@@std@@QAEXABV?$basic_string@DU?$char_traits@D@std@@V?$allocator@D@2@@1@@Z
	??$_Emplace_back@D@?$_Uninitialized_backout_al@V?$allocator@D@std@@@std@@QAEX$$QAD@Z
	??$_Emplace_back@E@?$_Uninitialized_backout_al@V?$allocator@E@std@@@std@@QAEX$$QAE@Z
	??$_Emplace_back@H@?$_Uninitialized_backout_al@V?$allocator@H@std@@@std@@QAEX$$QAH@Z
	??$_Emplace_back@I@?$_Uninitialized_backout_al@V?$allocator@I@std@@@std@@QAEX$$QAI@Z
	??$_Emplace_back@M@?$_Uninitialized_backout_al@V?$allocator@M@std@@@std@@QAEX$$QAM@Z
	??$_Emplace_back@N@?$_Uninitialized_backout_al@V?$allocator@N@std@@@std@@QAEX$$QAN@Z
	??$_Emplace_back@PAUggml_backend@@@?$_Uninitialized_backout_al@V?$allocator@PAUggml_backend@@@std@@@std@@QAEX$$QAPAUggml_backend@@@Z
	??$_Emplace_back@PAUggml_backend_buffer@@@?$_Uninitialized_backout_al@V?$allocator@PAUggml_backend_buffer@@@std@@@std@@QAEX$$QAPAUggml_backend_buffer@@@Z
	??$_Emplace_back@PAUggml_context@@@?$_Uninitialized_backout_al@V?$allocator@PAUggml_context@@@std@@@std@@QAEX$$QAPAUggml_context@@@Z
	??$_Emplace_back@PAUggml_tensor@@@?$_Uninitialized_backout_al@V?$allocator@PAUggml_tensor@@@std@@@std@@QAEX$$QAPAUggml_tensor@@@Z
	??$_Emplace_back@PAUwhisper_state@@@?$_Uninitialized_backout_al@V?$allocator@PAUwhisper_state@@@std@@@std@@QAEX$$QAPAUwhisper_state@@@Z
	??$_Emplace_back@PBUwhisper_grammar_element@@@?$_Uninitialized_backout_al@V?$allocator@PBUwhisper_grammar_element@@@std@@@std@@QAEX$$QAPBUwhisper_grammar_element@@@Z
	??$_Emplace_back@U?$pair@PAUggml_backend_device@@PAUggml_backend_buffer_type@@@std@@@?$_Uninitialized_backout_al@V?$allocator@U?$pair@PAUggml_backend_device@@PAUggml_backend_buffer_type@@@std@@@std@@@std@@QAEX$$QAU?$pair@PAUggml_backend_device@@PAUggml_backend_buffer_type@@@1@@Z
	??$_Emplace_back@U?$pair@V?$vector@IV?$allocator@I@std@@@std@@Uwhisper_partial_utf8@@@std@@@?$_Uninitialized_backout_al@V?$allocator@U?$pair@V?$vector@IV?$allocator@I@std@@@std@@Uwhisper_partial_utf8@@@std@@@std@@@std@@QAEX$$QAU?$pair@V?$vector@IV?$allocator@I@std@@@std@@Uwhisper_partial_utf8@@@1@@Z
	??$_Emplace_back@U?$whisper_pair@NH@@@?$_Uninitialized_backout_al@V?$allocator@U?$whisper_pair@NH@@@std@@@std@@QAEX$$QAU?$whisper_pair@NH@@@Z
	??$_Emplace_back@U_Grp_t@?$_Tgt_state_t@PBD@std@@@?$_Uninitialized_backout_al@V?$allocator@U_Grp_t@?$_Tgt_state_t@PBD@std@@@std@@@std@@QAEX$$QAU_Grp_t@?$_Tgt_state_t@PBD@1@@Z
	??$_Emplace_back@U_Grp_t@?$_Tgt_state_t@V?$_String_const_iterator@V?$_String_val@U?$_Simple_types@D@std@@@std@@@std@@@std@@@?$_Uninitialized_backout_al@V?$allocator@U_Grp_t@?$_Tgt_state_t@V?$_String_const_iterator@V?$_String_val@U?$_Simple_types@D@std@@@std@@@std@@@std@@@std@@@std@@QAEX$$QAU_Grp_t@?$_Tgt_state_t@V?$_String_const_iterator@V?$_String_val@U?$_Simple_types@D@std@@@std@@@std@@@1@@Z
	??$_Emplace_back@U_Loop_vals_t@std@@@?$_Uninitialized_backout_al@V?$allocator@U_Loop_vals_t@std@@@std@@@std@@QAEX$$QAU_Loop_vals_t@1@@Z
	??$_Emplace_back@Uvad_segment_info@whisper_state@@@?$_Uninitialized_backout_al@V?$allocator@Uvad_segment_info@whisper_state@@@std@@@std@@QAEX$$QAUvad_segment_info@whisper_state@@@Z
	??$_Emplace_back@Uvad_time_mapping@@@?$_Uninitialized_backout_al@V?$allocator@Uvad_time_mapping@@@std@@@std@@QAEX$$QAUvad_time_mapping@@@Z
	??$_Emplace_back@Uwhisper_grammar_candidate@@@?$_Uninitialized_backout_al@V?$allocator@Uwhisper_grammar_candidate@@@std@@@std@@QAEX$$QAUwhisper_grammar_candidate@@@Z
	??$_Emplace_back@Uwhisper_grammar_element@@@?$_Uninitialized_backout_al@V?$allocator@Uwhisper_grammar_element@@@std@@@std@@QAEX$$QAUwhisper_grammar_element@@@Z
	??$_Emplace_back@Uwhisper_layer_decoder@@@?$_Uninitialized_backout_al@V?$allocator@Uwhisper_layer_decoder@@@std@@@std@@QAEX$$QAUwhisper_layer_decoder@@@Z
	??$_Emplace_back@Uwhisper_layer_encoder@@@?$_Uninitialized_backout_al@V?$allocator@Uwhisper_layer_encoder@@@std@@@std@@QAEX$$QAUwhisper_layer_encoder@@@Z
	??$_Emplace_back@Uwhisper_segment@@@?$_Uninitialized_backout_al@V?$allocator@Uwhisper_segment@@@std@@@std@@QAEX$$QAUwhisper_segment@@@Z
	??$_Emplace_back@Uwhisper_token_data@@@?$_Uninitialized_backout_al@V?$allocator@Uwhisper_token_data@@@std@@@std@@QAEX$$QAUwhisper_token_data@@@Z
	??$_Emplace_back@Uwhisper_vad_segment@@@?$_Uninitialized_backout_al@V?$allocator@Uwhisper_vad_segment@@@std@@@std@@QAEX$$QAUwhisper_vad_segment@@@Z
	??$_Emplace_back@V?$basic_string@DU?$char_traits@D@std@@V?$allocator@D@2@@std@@@?$_Uninitialized_backout_al@V?$allocator@V?$basic_string@DU?$char_traits@D@std@@V?$allocator@D@2@@std@@@std@@@std@@QAEX$$QAV?$basic_string@DU?$char_traits@D@std@@V?$allocator@D@2@@1@@Z
	??$_Emplace_back@V?$sub_match@PBD@std@@@?$_Uninitialized_backout_al@V?$allocator@V?$sub_match@PBD@std@@@std@@@std@@QAEX$$QAV?$sub_match@PBD@1@@Z
	??$_Emplace_back@V?$sub_match@V?$_String_const_iterator@V?$_String_val@U?$_Simple_types@D@std@@@std@@@std@@@std@@@?$_Uninitialized_backout_al@V?$allocator@V?$sub_match@V?$_String_const_iterator@V?$_String_val@U?$_Simple_types@D@std@@@std@@@std@@@std@@@std@@@std@@QAEX$$QAV?$sub_match@V?$_String_const_iterator@V?$_String_val@U?$_Simple_types@D@std@@@std@@@std@@@1@@Z
	??$_Emplace_back@V?$vector@PBUwhisper_grammar_element@@V?$allocator@PBUwhisper_grammar_element@@@std@@@std@@@?$_Uninitialized_backout_al@V?$allocator@V?$vector@PBUwhisper_grammar_element@@V?$allocator@PBUwhisper_grammar_element@@@std@@@std@@@std@@@std@@QAEX$$QAV?$vector@PBUwhisper_grammar_element@@V?$allocator@PBUwhisper_grammar_element@@@std@@@1@@Z
	??$_Emplace_back_with_unused_capacity@$$V@?$vector@V?$vector@PBUwhisper_grammar_element@@V?$allocator@PBUwhisper_grammar_element@@@std@@@std@@V?$allocator@V?$vector@PBUwhisper_grammar_element@@V?$allocator@PBUwhisper_grammar_element@@@std@@@std@@@2@@std@@AAE?A_TXZ
	??$_Emplace_back_with_unused_capacity@AAMABH@?$vector@U?$whisper_pair@NH@@V?$allocator@U?$whisper_pair@NH@@@std@@@std@@AAE?A_TAAMABH@Z
	??$_Emplace_back_with_unused_capacity@AAPAUggml_backend_buffer@@@?$vector@PAUggml_backend_buffer@@V?$allocator@PAUggml_backend_buffer@@@std@@@std@@AAE?A_TAAPAUggml_backend_buffer@@@Z
	??$_Emplace_back_with_unused_capacity@AAPAUggml_backend_device@@AAPAUggml_backend_buffer_type@@@?$vector@U?$pair@PAUggml_backend_device@@PAUggml_backend_buffer_type@@@std@@V?$allocator@U?$pair@PAUggml_backend_device@@PAUggml_backend_buffer_type@@@std@@@2@@std@@AAE?A_TAAPAUggml_backend_device@@AAPAUggml_backend_buffer_type@@@Z
	??$_Emplace_back_with_unused_capacity@AAPAUggml_backend_device@@PAUggml_backend_buffer_type@@@?$vector@U?$pair@PAUggml_backend_device@@PAUggml_backend_buffer_type@@@std@@V?$allocator@U?$pair@PAUggml_backend_device@@PAUggml_backend_buffer_type@@@std@@@2@@std@@AAE?A_TAAPAUggml_backend_device@@$$QAPAUggml_backend_buffer_type@@@Z
	??$_Emplace_back_with_unused_capacity@AAPAUggml_context@@@?$vector@PAUggml_context@@V?$allocator@PAUggml_context@@@std@@@std@@AAE?A_TAAPAUggml_context@@@Z
	??$_Emplace_back_with_unused_capacity@ABH@?$vector@HV?$allocator@H@std@@@std@@AAE?A_TABH@Z
	??$_Emplace_back_with_unused_capacity@ABI@?$vector@IV?$allocator@I@std@@@std@@AAE?A_TABI@Z
	??$_Emplace_back_with_unused_capacity@ABM@?$vector@MV?$allocator@M@std@@@std@@AAE?A_TABM@Z
	??$_Emplace_back_with_unused_capacity@ABQAUggml_backend@@@?$vector@PAUggml_backend@@V?$allocator@PAUggml_backend@@@std@@@std@@AAE?A_TABQAUggml_backend@@@Z
	??$_Emplace_back_with_unused_capacity@ABQBUwhisper_grammar_element@@@?$vector@PBUwhisper_grammar_element@@V?$allocator@PBUwhisper_grammar_element@@@std@@@std@@AAE?A_TABQBUwhisper_grammar_element@@@Z
	??$_Emplace_back_with_unused_capacity@ABUvad_segment_info@whisper_state@@@?$vector@Uvad_segment_info@whisper_state@@V?$allocator@Uvad_segment_info@whisper_state@@@std@@@std@@AAE?A_TABUvad_segment_info@whisper_state@@@Z
	??$_Emplace_back_with_unused_capacity@ABUvad_time_mapping@@@?$vector@Uvad_time_mapping@@V?$allocator@Uvad_time_mapping@@@std@@@std@@AAE?A_TABUvad_time_mapping@@@Z
	??$_Emplace_back_with_unused_capacity@ABUwhisper_grammar_candidate@@@?$vector@Uwhisper_grammar_candidate@@V?$allocator@Uwhisper_grammar_candidate@@@std@@@std@@AAE?A_TABUwhisper_grammar_candidate@@@Z
	??$_Emplace_back_with_unused_capacity@ABUwhisper_grammar_element@@@?$vector@Uwhisper_grammar_element@@V?$allocator@Uwhisper_grammar_element@@@std@@@std@@AAE?A_TABUwhisper_grammar_element@@@Z
	??$_Emplace_back_with_unused_capacity@ABUwhisper_token_data@@@?$vector@Uwhisper_token_data@@V?$allocator@Uwhisper_token_data@@@std@@@std@@AAE?A_TABUwhisper_token_data@@@Z
	??$_Emplace_back_with_unused_capacity@ABV?$vector@PBUwhisper_grammar_element@@V?$allocator@PBUwhisper_grammar_element@@@std@@@std@@@?$vector@V?$vector@PBUwhisper_grammar_element@@V?$allocator@PBUwhisper_grammar_element@@@std@@@std@@V?$allocator@V?$vector@PBUwhisper_grammar_element@@V?$allocator@PBUwhisper_grammar_element@@@std@@@std@@@2@@std@@AAE?A_TABV?$vector@PBUwhisper_grammar_element@@V?$allocator@PBUwhisper_grammar_element@@@std@@@1@@Z
	??$_Emplace_back_with_unused_capacity@H@?$vector@HV?$allocator@H@std@@@std@@AAE?A_T$$QAH@Z
	??$_Emplace_back_with_unused_capacity@I@?$vector@IV?$allocator@I@std@@@std@@AAE?A_T$$QAI@Z
	??$_Emplace_back_with_unused_capacity@M@?$vector@MV?$allocator@M@std@@@std@@AAE?A_T$$QAM@Z
	??$_Emplace_back_with_unused_capacity@N@?$vector@NV?$allocator@N@std@@@std@@AAE?A_T$$QAN@Z
	??$_Emplace_back_with_unused_capacity@PAUggml_tensor@@@?$vector@PAUggml_tensor@@V?$allocator@PAUggml_tensor@@@std@@@std@@AAE?A_T$$QAPAUggml_tensor@@@Z
	??$_Emplace_back_with_unused_capacity@PAUwhisper_state@@@?$vector@PAUwhisper_state@@V?$allocator@PAUwhisper_state@@@std@@@std@@AAE?A_T$$QAPAUwhisper_state@@@Z
	??$_Emplace_back_with_unused_capacity@PBUwhisper_grammar_element@@@?$vector@PBUwhisper_grammar_element@@V?$allocator@PBUwhisper_grammar_element@@@std@@@std@@AAE?A_T$$QAPBUwhisper_grammar_element@@@Z
	??$_Emplace_back_with_unused_capacity@U?$pair@V?$vector@IV?$allocator@I@std@@@std@@Uwhisper_partial_utf8@@@std@@@?$vector@U?$pair@V?$vector@IV?$allocator@I@std@@@std@@Uwhisper_partial_utf8@@@std@@V?$allocator@U?$pair@V?$vector@IV?$allocator@I@std@@@std@@Uwhisper_partial_utf8@@@std@@@2@@std@@AAE?A_T$$QAU?$pair@V?$vector@IV?$allocator@I@std@@@std@@Uwhisper_partial_utf8@@@1@@Z
	??$_Emplace_back_with_unused_capacity@Uvad_time_mapping@@@?$vector@Uvad_time_mapping@@V?$allocator@Uvad_time_mapping@@@std@@@std@@AAE?A_T$$QAUvad_time_mapping@@@Z
	??$_Emplace_back_with_unused_capacity@Uwhisper_grammar_candidate@@@?$vector@Uwhisper_grammar_candidate@@V?$allocator@Uwhisper_grammar_candidate@@@std@@@std@@AAE?A_T$$QAUwhisper_grammar_candidate@@@Z
	??$_Emplace_back_with_unused_capacity@Uwhisper_grammar_element@@@?$vector@Uwhisper_grammar_element@@V?$allocator@Uwhisper_grammar_element@@@std@@@std@@AAE?A_T$$QAUwhisper_grammar_element@@@Z
	??$_Emplace_back_with_unused_capacity@Uwhisper_segment@@@?$vector@Uwhisper_segment@@V?$allocator@Uwhisper_segment@@@std@@@std@@AAE?A_T$$QAUwhisper_segment@@@Z
	??$_Emplace_back_with_unused_capacity@Uwhisper_token_data@@@?$vector@Uwhisper_token_data@@V?$allocator@Uwhisper_token_data@@@std@@@std@@AAE?A_T$$QAUwhisper_token_data@@@Z
	??$_Emplace_back_with_unused_capacity@V?$basic_string@DU?$char_traits@D@std@@V?$allocator@D@2@@std@@@?$vector@V?$basic_string@DU?$char_traits@D@std@@V?$allocator@D@2@@std@@V?$allocator@V?$basic_string@DU?$char_traits@D@std@@V?$allocator@D@2@@std@@@2@@std@@AAE?A_T$$QAV?$basic_string@DU?$char_traits@D@std@@V?$allocator@D@2@@1@@Z
	??$_Emplace_hint@ABU?$pair@$$CBV?$basic_string@DU?$char_traits@D@std@@V?$allocator@D@2@@std@@U?$pair@HV?$basic_string@DU?$char_traits@D@std@@V?$allocator@D@2@@std@@@2@@std@@@?$_Tree@V?$_Tmap_traits@V?$basic_string@DU?$char_traits@D@std@@V?$allocator@D@2@@std@@U?$pair@HV?$basic_string@DU?$char_traits@D@std@@V?$allocator@D@2@@std@@@2@U?$less@V?$basic_string@DU?$char_traits@D@std@@V?$allocator@D@2@@std@@@2@V?$allocator@U?$pair@$$CBV?$basic_string@DU?$char_traits@D@std@@V?$allocator@D@2@@std@@U?$pair@HV?$basic_string@DU?$char_traits@D@std@@V?$allocator@D@2@@std@@@2@@std@@@2@$0A@@std@@@std@@IAEPAU?$_Tree_node@U?$pair@$$CBV?$basic_string@DU?$char_traits@D@std@@V?$allocator@D@2@@std@@U?$pair@HV?$basic_string@DU?$char_traits@D@std@@V?$allocator@D@2@@std@@@2@@std@@PAX@1@QAU21@ABU?$pair@$$CBV?$basic_string@DU?$char_traits@D@std@@V?$allocator@D@2@@std@@U?$pair@HV?$basic_string@DU?$char_traits@D@std@@V?$allocator@D@2@@std@@@2@@1@@Z
	??$_Emplace_hint@ABU?$pair@$$CBW4asr_system@@V?$map@W4asr_tensor@@PBDU?$less@W4asr_tensor@@@std@@V?$allocator@U?$pair@$$CBW4asr_tensor@@PBD@std@@@3@@std@@@std@@@?$_Tree@V?$_Tmap_traits@W4asr_system@@V?$map@W4asr_tensor@@PBDU?$less@W4asr_tensor@@@std@@V?$allocator@U?$pair@$$CBW4asr_tensor@@PBD@std@@@3@@std@@U?$less@W4asr_system@@@3@V?$allocator@U?$pair@$$CBW4asr_system@@V?$map@W4asr_tensor@@PBDU?$less@W4asr_tensor@@@std@@V?$allocator@U?$pair@$$CBW4asr_tensor@@PBD@std@@@3@@std@@@std@@@3@$0A@@std@@@std@@IAEPAU?$_Tree_node@U?$pair@$$CBW4asr_system@@V?$map@W4asr_tensor@@PBDU?$less@W4asr_tensor@@@std@@V?$allocator@U?$pair@$$CBW4asr_tensor@@PBD@std@@@3@@std@@@std@@PAX@1@QAU21@ABU?$pair@$$CBW4asr_system@@V?$map@W4asr_tensor@@PBDU?$less@W4asr_tensor@@@std@@V?$allocator@U?$pair@$$CBW4asr_tensor@@PBD@std@@@3@@std@@@1@@Z
	??$_Emplace_hint@ABU?$pair@$$CBW4asr_tensor@@PBD@std@@@?$_Tree@V?$_Tmap_traits@W4asr_tensor@@PBDU?$less@W4asr_tensor@@@std@@V?$allocator@U?$pair@$$CBW4asr_tensor@@PBD@std@@@3@$0A@@std@@@std@@IAEPAU?$_Tree_node@U?$pair@$$CBW4asr_tensor@@PBD@std@@PAX@1@QAU21@ABU?$pair@$$CBW4asr_tensor@@PBD@1@@Z
	??$_Emplace_hint@ABU?$pair@$$CBW4asr_tensor@@W4ggml_op@@@std@@@?$_Tree@V?$_Tmap_traits@W4asr_tensor@@W4ggml_op@@U?$less@W4asr_tensor@@@std@@V?$allocator@U?$pair@$$CBW4asr_tensor@@W4ggml_op@@@std@@@4@$0A@@std@@@std@@IAEPAU?$_Tree_node@U?$pair@$$CBW4asr_tensor@@W4ggml_op@@@std@@PAX@1@QAU21@ABU?$pair@$$CBW4asr_tensor@@W4ggml_op@@@1@@Z
	??$_Emplace_hint@ABU?$pair@$$CBW4e_model@@V?$basic_string@DU?$char_traits@D@std@@V?$allocator@D@2@@std@@@std@@@?$_Tree@V?$_Tmap_traits@W4e_model@@V?$basic_string@DU?$char_traits@D@std@@V?$allocator@D@2@@std@@U?$less@W4e_model@@@3@V?$allocator@U?$pair@$$CBW4e_model@@V?$basic_string@DU?$char_traits@D@std@@V?$allocator@D@2@@std@@@std@@@3@$0A@@std@@@std@@IAEPAU?$_Tree_node@U?$pair@$$CBW4e_model@@V?$basic_string@DU?$char_traits@D@std@@V?$allocator@D@2@@std@@@std@@PAX@1@QAU21@ABU?$pair@$$CBW4e_model@@V?$basic_string@DU?$char_traits@D@std@@V?$allocator@D@2@@std@@@1@@Z
	??$_Emplace_hint@ABU?$pair@$$CBW4vad_tensor@@PBD@std@@@?$_Tree@V?$_Tmap_traits@W4vad_tensor@@PBDU?$less@W4vad_tensor@@@std@@V?$allocator@U?$pair@$$CBW4vad_tensor@@PBD@std@@@3@$0A@@std@@@std@@IAEPAU?$_Tree_node@U?$pair@$$CBW4vad_tensor@@PBD@std@@PAX@1@QAU21@ABU?$pair@$$CBW4vad_tensor@@PBD@1@@Z
	??$_Emplace_hint@ABU?$pair@$$CBW4vad_tensor@@W4ggml_op@@@std@@@?$_Tree@V?$_Tmap_traits@W4vad_tensor@@W4ggml_op@@U?$less@W4vad_tensor@@@std@@V?$allocator@U?$pair@$$CBW4vad_tensor@@W4ggml_op@@@std@@@4@$0A@@std@@@std@@IAEPAU?$_Tree_node@U?$pair@$$CBW4vad_tensor@@W4ggml_op@@@std@@PAX@1@QAU21@ABU?$pair@$$CBW4vad_tensor@@W4ggml_op@@@1@@Z
	??$_Emplace_hint@ABU?$pair@$$CBW4whisper_alignment_heads_preset@@Uwhisper_aheads@@@std@@@?$_Tree@V?$_Tmap_traits@W4whisper_alignment_heads_preset@@Uwhisper_aheads@@U?$less@W4whisper_alignment_heads_preset@@@std@@V?$allocator@U?$pair@$$CBW4whisper_alignment_heads_preset@@Uwhisper_aheads@@@std@@@4@$0A@@std@@@std@@IAEPAU?$_Tree_node@U?$pair@$$CBW4whisper_alignment_heads_preset@@Uwhisper_aheads@@@std@@PAX@1@QAU21@ABU?$pair@$$CBW4whisper_alignment_heads_preset@@Uwhisper_aheads@@@1@@Z
	??$_Emplace_reallocate@$$V@?$vector@V?$vector@PBUwhisper_grammar_element@@V?$allocator@PBUwhisper_grammar_element@@@std@@@std@@V?$allocator@V?$vector@PBUwhisper_grammar_element@@V?$allocator@PBUwhisper_grammar_element@@@std@@@std@@@2@@std@@QAEPAV?$vector@PBUwhisper_grammar_element@@V?$allocator@PBUwhisper_grammar_element@@@std@@@1@QAV21@@Z
	??$_Emplace_reallocate@AAMABH@?$vector@U?$whisper_pair@NH@@V?$allocator@U?$whisper_pair@NH@@@std@@@std@@QAEPAU?$whisper_pair@NH@@QAU2@AAMABH@Z
	??$_Emplace_reallocate@AAPAUggml_backend_buffer@@@?$vector@PAUggml_backend_buffer@@V?$allocator@PAUggml_backend_buffer@@@std@@@std@@QAEPAPAUggml_backend_buffer@@QAPAU2@AAPAU2@@Z
	??$_Emplace_reallocate@AAPAUggml_backend_device@@AAPAUggml_backend_buffer_type@@@?$vector@U?$pair@PAUggml_backend_device@@PAUggml_backend_buffer_type@@@std@@V?$allocator@U?$pair@PAUggml_backend_device@@PAUggml_backend_buffer_type@@@std@@@2@@std@@QAEPAU?$pair@PAUggml_backend_device@@PAUggml_backend_buffer_type@@@1@QAU21@AAPAUggml_backend_device@@AAPAUggml_backend_buffer_type@@@Z
	??$_Emplace_reallocate@AAPAUggml_backend_device@@PAUggml_backend_buffer_type@@@?$vector@U?$pair@PAUggml_backend_device@@PAUggml_backend_buffer_type@@@std@@V?$allocator@U?$pair@PAUggml_backend_device@@PAUggml_backend_buffer_type@@@std@@@2@@std@@QAEPAU?$pair@PAUggml_backend_device@@PAUggml_backend_buffer_type@@@1@QAU21@AAPAUggml_backend_device@@$$QAPAUggml_backend_buffer_type@@@Z
	??$_Emplace_reallocate@AAPAUggml_context@@@?$vector@PAUggml_context@@V?$allocator@PAUggml_context@@@std@@@std@@QAEPAPAUggml_context@@QAPAU2@AAPAU2@@Z
	??$_Emplace_reallocate@ABH@?$vector@HV?$allocator@H@std@@@std@@QAEPAHQAHABH@Z
	??$_Emplace_reallocate@ABI@?$vector@IV?$allocator@I@std@@@std@@QAEPAIQAIABI@Z
	??$_Emplace_reallocate@ABM@?$vector@MV?$allocator@M@std@@@std@@QAEPAMQAMABM@Z
	??$_Emplace_reallocate@ABQAUggml_backend@@@?$vector@PAUggml_backend@@V?$allocator@PAUggml_backend@@@std@@@std@@QAEPAPAUggml_backend@@QAPAU2@ABQAU2@@Z
	??$_Emplace_reallocate@ABQBUwhisper_grammar_element@@@?$vector@PBUwhisper_grammar_element@@V?$allocator@PBUwhisper_grammar_element@@@std@@@std@@QAEPAPBUwhisper_grammar_element@@QAPBU2@ABQBU2@@Z
	??$_Emplace_reallocate@ABUvad_segment_info@whisper_state@@@?$vector@Uvad_segment_info@whisper_state@@V?$allocator@Uvad_segment_info@whisper_state@@@std@@@std@@QAEPAUvad_segment_info@whisper_state@@QAU23@ABU23@@Z
	??$_Emplace_reallocate@ABUvad_time_mapping@@@?$vector@Uvad_time_mapping@@V?$allocator@Uvad_time_mapping@@@std@@@std@@QAEPAUvad_time_mapping@@QAU2@ABU2@@Z
	??$_Emplace_reallocate@ABUwhisper_grammar_candidate@@@?$vector@Uwhisper_grammar_candidate@@V?$allocator@Uwhisper_grammar_candidate@@@std@@@std@@QAEPAUwhisper_grammar_candidate@@QAU2@ABU2@@Z
	??$_Emplace_reallocate@ABUwhisper_grammar_element@@@?$vector@Uwhisper_grammar_element@@V?$allocator@Uwhisper_grammar_element@@@std@@@std@@QAEPAUwhisper_grammar_element@@QAU2@ABU2@@Z
	??$_Emplace_reallocate@ABUwhisper_token_data@@@?$vector@Uwhisper_token_data@@V?$allocator@Uwhisper_token_data@@@std@@@std@@QAEPAUwhisper_token_data@@QAU2@ABU2@@Z
	??$_Emplace_reallocate@ABV?$vector@PBUwhisper_grammar_element@@V?$allocator@PBUwhisper_grammar_element@@@std@@@std@@@?$vector@V?$vector@PBUwhisper_grammar_element@@V?$allocator@PBUwhisper_grammar_element@@@std@@@std@@V?$allocator@V?$vector@PBUwhisper_grammar_element@@V?$allocator@PBUwhisper_grammar_element@@@std@@@std@@@2@@std@@QAEPAV?$vector@PBUwhisper_grammar_element@@V?$allocator@PBUwhisper_grammar_element@@@std@@@1@QAV21@ABV21@@Z
	??$_Emplace_reallocate@H@?$vector@HV?$allocator@H@std@@@std@@QAEPAHQAH$$QAH@Z
	??$_Emplace_reallocate@I@?$vector@IV?$allocator@I@std@@@std@@QAEPAIQAI$$QAI@Z
	??$_Emplace_reallocate@M@?$vector@MV?$allocator@M@std@@@std@@QAEPAMQAM$$QAM@Z
	??$_Emplace_reallocate@N@?$vector@NV?$allocator@N@std@@@std@@QAEPANQAN$$QAN@Z
	??$_Emplace_reallocate@PAUggml_tensor@@@?$vector@PAUggml_tensor@@V?$allocator@PAUggml_tensor@@@std@@@std@@QAEPAPAUggml_tensor@@QAPAU2@$$QAPAU2@@Z
	??$_Emplace_reallocate@PAUwhisper_state@@@?$vector@PAUwhisper_state@@V?$allocator@PAUwhisper_state@@@std@@@std@@QAEPAPAUwhisper_state@@QAPAU2@$$QAPAU2@@Z
	??$_Emplace_reallocate@PBUwhisper_grammar_element@@@?$vector@PBUwhisper_grammar_element@@V?$allocator@PBUwhisper_grammar_element@@@std@@@std@@QAEPAPBUwhisper_grammar_element@@QAPBU2@$$QAPBU2@@Z
	??$_Emplace_reallocate@U?$pair@V?$vector@IV?$allocator@I@std@@@std@@Uwhisper_partial_utf8@@@std@@@?$vector@U?$pair@V?$vector@IV?$allocator@I@std@@@std@@Uwhisper_partial_utf8@@@std@@V?$allocator@U?$pair@V?$vector@IV?$allocator@I@std@@@std@@Uwhisper_partial_utf8@@@std@@@2@@std@@QAEPAU?$pair@V?$vector@IV?$allocator@I@std@@@std@@Uwhisper_partial_utf8@@@1@QAU21@$$QAU21@@Z
	??$_Emplace_reallocate@Uvad_time_mapping@@@?$vector@Uvad_time_mapping@@V?$allocator@Uvad_time_mapping@@@std@@@std@@QAEPAUvad_time_mapping@@QAU2@$$QAU2@@Z
	??$_Emplace_reallocate@Uwhisper_grammar_candidate@@@?$vector@Uwhisper_grammar_candidate@@V?$allocator@Uwhisper_grammar_candidate@@@std@@@std@@QAEPAUwhisper_grammar_candidate@@QAU2@$$QAU2@@Z
	??$_Emplace_reallocate@Uwhisper_grammar_element@@@?$vector@Uwhisper_grammar_element@@V?$allocator@Uwhisper_grammar_element@@@std@@@std@@QAEPAUwhisper_grammar_element@@QAU2@$$QAU2@@Z
	??$_Emplace_reallocate@Uwhisper_segment@@@?$vector@Uwhisper_segment@@V?$allocator@Uwhisper_segment@@@std@@@std@@QAEPAUwhisper_segment@@QAU2@$$QAU2@@Z
	??$_Emplace_reallocate@Uwhisper_token_data@@@?$vector@Uwhisper_token_data@@V?$allocator@Uwhisper_token_data@@@std@@@std@@QAEPAUwhisper_token_data@@QAU2@$$QAU2@@Z
	??$_Emplace_reallocate@V?$basic_string@DU?$char_traits@D@std@@V?$allocator@D@2@@std@@@?$vector@V?$basic_string@DU?$char_traits@D@std@@V?$allocator@D@2@@std@@V?$allocator@V?$basic_string@DU?$char_traits@D@std@@V?$allocator@D@2@@std@@@2@@std@@QAEPAV?$basic_string@DU?$char_traits@D@std@@V?$allocator@D@2@@1@QAV21@$$QAV21@@Z
	??$_Eqrange@H@?$_Tree@V?$_Tset_traits@HU?$less@H@std@@V?$allocator@H@2@$0A@@std@@@std@@IBE?AU?$pair@PAU?$_Tree_node@HPAX@std@@PAU12@@1@ABH@Z
	??$_Erase_head@V?$allocator@U?$_Tree_node@HPAX@std@@@std@@@?$_Tree_val@U?$_Tree_simple_types@H@std@@@std@@QAEXAAV?$allocator@U?$_Tree_node@HPAX@std@@@1@@Z
	??$_Erase_head@V?$allocator@U?$_Tree_node@U?$pair@$$CBHH@std@@PAX@std@@@std@@@?$_Tree_val@U?$_Tree_simple_types@U?$pair@$$CBHH@std@@@std@@@std@@QAEXAAV?$allocator@U?$_Tree_node@U?$pair@$$CBHH@std@@PAX@std@@@1@@Z
	??$_Erase_head@V?$allocator@U?$_Tree_node@U?$pair@$$CBHV?$basic_string@DU?$char_traits@D@std@@V?$allocator@D@2@@std@@@std@@PAX@std@@@std@@@?$_Tree_val@U?$_Tree_simple_types@U?$pair@$$CBHV?$basic_string@DU?$char_traits@D@std@@V?$allocator@D@2@@std@@@std@@@std@@@std@@QAEXAAV?$allocator@U?$_Tree_node@U?$pair@$$CBHV?$basic_string@DU?$char_traits@D@std@@V?$allocator@D@2@@std@@@std@@PAX@std@@@1@@Z
	??$_Erase_head@V?$allocator@U?$_Tree_node@U?$pair@$$CBV?$basic_string@DU?$char_traits@D@std@@V?$allocator@D@2@@std@@H@std@@PAX@std@@@std@@@?$_Tree_val@U?$_Tree_simple_types@U?$pair@$$CBV?$basic_string@DU?$char_traits@D@std@@V?$allocator@D@2@@std@@H@std@@@std@@@std@@QAEXAAV?$allocator@U?$_Tree_node@U?$pair@$$CBV?$basic_string@DU?$char_traits@D@std@@V?$allocator@D@2@@std@@H@std@@PAX@std@@@1@@Z
	??$_Erase_head@V?$allocator@U?$_Tree_node@U?$pair@$$CBV?$basic_string@DU?$char_traits@D@std@@V?$allocator@D@2@@std@@PAUggml_tensor@@@std@@PAX@std@@@std@@@?$_Tree_val@U?$_Tree_simple_types@U?$pair@$$CBV?$basic_string@DU?$char_traits@D@std@@V?$allocator@D@2@@std@@PAUggml_tensor@@@std@@@std@@@std@@QAEXAAV?$allocator@U?$_Tree_node@U?$pair@$$CBV?$basic_string@DU?$char_traits@D@std@@V?$allocator@D@2@@std@@PAUggml_tensor@@@std@@PAX@std@@@1@@Z
	??$_Erase_head@V?$allocator@U?$_Tree_node@U?$pair@$$CBV?$basic_string@DU?$char_traits@D@std@@V?$allocator@D@2@@std@@U?$pair@HV?$basic_string@DU?$char_traits@D@std@@V?$allocator@D@2@@std@@@2@@std@@PAX@std@@@std@@@?$_Tree_val@U?$_Tree_simple_types@U?$pair@$$CBV?$basic_string@DU?$char_traits@D@std@@V?$allocator@D@2@@std@@U?$pair@HV?$basic_string@DU?$char_traits@D@std@@V?$allocator@D@2@@std@@@2@@std@@@std@@@std@@QAEXAAV?$allocator@U?$_Tree_node@U?$pair@$$CBV?$basic_string@DU?$char_traits@D@std@@V?$allocator@D@2@@std@@U?$pair@HV?$basic_string@DU?$char_traits@D@std@@V?$allocator@D@2@@std@@@2@@std@@PAX@std@@@1@@Z
	??$_Erase_head@V?$allocator@U?$_Tree_node@U?$pair@$$CBW4asr_system@@V?$map@W4asr_tensor@@PBDU?$less@W4asr_tensor@@@std@@V?$allocator@U?$pair@$$CBW4asr_tensor@@PBD@std@@@3@@std@@@std@@PAX@std@@@std@@@?$_Tree_val@U?$_Tree_simple_types@U?$pair@$$CBW4asr_system@@V?$map@W4asr_tensor@@PBDU?$less@W4asr_tensor@@@std@@V?$allocator@U?$pair@$$CBW4asr_tensor@@PBD@std@@@3@@std@@@std@@@std@@@std@@QAEXAAV?$allocator@U?$_Tree_node@U?$pair@$$CBW4asr_system@@V?$map@W4asr_tensor@@PBDU?$less@W4asr_tensor@@@std@@V?$allocator@U?$pair@$$CBW4asr_tensor@@PBD@std@@@3@@std@@@std@@PAX@std@@@1@@Z
	??$_Erase_head@V?$allocator@U?$_Tree_node@U?$pair@$$CBW4asr_tensor@@PBD@std@@PAX@std@@@std@@@?$_Tree_val@U?$_Tree_simple_types@U?$pair@$$CBW4asr_tensor@@PBD@std@@@std@@@std@@QAEXAAV?$allocator@U?$_Tree_node@U?$pair@$$CBW4asr_tensor@@PBD@std@@PAX@std@@@1@@Z
	??$_Erase_head@V?$allocator@U?$_Tree_node@U?$pair@$$CBW4asr_tensor@@W4ggml_op@@@std@@PAX@std@@@std@@@?$_Tree_val@U?$_Tree_simple_types@U?$pair@$$CBW4asr_tensor@@W4ggml_op@@@std@@@std@@@std@@QAEXAAV?$allocator@U?$_Tree_node@U?$pair@$$CBW4asr_tensor@@W4ggml_op@@@std@@PAX@std@@@1@@Z
	??$_Erase_head@V?$allocator@U?$_Tree_node@U?$pair@$$CBW4e_model@@V?$basic_string@DU?$char_traits@D@std@@V?$allocator@D@2@@std@@@std@@PAX@std@@@std@@@?$_Tree_val@U?$_Tree_simple_types@U?$pair@$$CBW4e_model@@V?$basic_string@DU?$char_traits@D@std@@V?$allocator@D@2@@std@@@std@@@std@@@std@@QAEXAAV?$allocator@U?$_Tree_node@U?$pair@$$CBW4e_model@@V?$basic_string@DU?$char_traits@D@std@@V?$allocator@D@2@@std@@@std@@PAX@std@@@1@@Z
	??$_Erase_head@V?$allocator@U?$_Tree_node@U?$pair@$$CBW4vad_tensor@@PBD@std@@PAX@std@@@std@@@?$_Tree_val@U?$_Tree_simple_types@U?$pair@$$CBW4vad_tensor@@PBD@std@@@std@@@std@@QAEXAAV?$allocator@U?$_Tree_node@U?$pair@$$CBW4vad_tensor@@PBD@std@@PAX@std@@@1@@Z
	??$_Erase_head@V?$allocator@U?$_Tree_node@U?$pair@$$CBW4vad_tensor@@W4ggml_op@@@std@@PAX@std@@@std@@@?$_Tree_val@U?$_Tree_simple_types@U?$pair@$$CBW4vad_tensor@@W4ggml_op@@@std@@@std@@@std@@QAEXAAV?$allocator@U?$_Tree_node@U?$pair@$$CBW4vad_tensor@@W4ggml_op@@@std@@PAX@std@@@1@@Z
	??$_Erase_head@V?$allocator@U?$_Tree_node@U?$pair@$$CBW4whisper_alignment_heads_preset@@Uwhisper_aheads@@@std@@PAX@std@@@std@@@?$_Tree_val@U?$_Tree_simple_types@U?$pair@$$CBW4whisper_alignment_heads_preset@@Uwhisper_aheads@@@std@@@std@@@std@@QAEXAAV?$allocator@U?$_Tree_node@U?$pair@$$CBW4whisper_alignment_heads_preset@@Uwhisper_aheads@@@std@@PAX@std@@@1@@Z
	??$_Erase_head@V?$allocator@U?$_Tree_node@U?$pair@QAUggml_backend_buffer_type@@PAUggml_context@@@std@@PAX@std@@@std@@@?$_Tree_val@U?$_Tree_simple_types@U?$pair@QAUggml_backend_buffer_type@@PAUggml_context@@@std@@@std@@@std@@QAEXAAV?$allocator@U?$_Tree_node@U?$pair@QAUggml_backend_buffer_type@@PAUggml_context@@@std@@PAX@std@@@1@@Z
	??$_Erase_tree@V?$allocator@U?$_Tree_node@HPAX@std@@@std@@@?$_Tree_val@U?$_Tree_simple_types@H@std@@@std@@QAEXAAV?$allocator@U?$_Tree_node@HPAX@std@@@1@PAU?$_Tree_node@HPAX@1@@Z
	??$_Erase_tree@V?$allocator@U?$_Tree_node@U?$pair@$$CBHH@std@@PAX@std@@@std@@@?$_Tree_val@U?$_Tree_simple_types@U?$pair@$$CBHH@std@@@std@@@std@@QAEXAAV?$allocator@U?$_Tree_node@U?$pair@$$CBHH@std@@PAX@std@@@1@PAU?$_Tree_node@U?$pair@$$CBHH@std@@PAX@1@@Z
	??$_Erase_tree@V?$allocator@U?$_Tree_node@U?$pair@$$CBHV?$basic_string@DU?$char_traits@D@std@@V?$allocator@D@2@@std@@@std@@PAX@std@@@std@@@?$_Tree_val@U?$_Tree_simple_types@U?$pair@$$CBHV?$basic_string@DU?$char_traits@D@std@@V?$allocator@D@2@@std@@@std@@@std@@@std@@QAEXAAV?$allocator@U?$_Tree_node@U?$pair@$$CBHV?$basic_string@DU?$char_traits@D@std@@V?$allocator@D@2@@std@@@std@@PAX@std@@@1@PAU?$_Tree_node@U?$pair@$$CBHV?$basic_string@DU?$char_traits@D@std@@V?$allocator@D@2@@std@@@std@@PAX@1@@Z
	??$_Erase_tree@V?$allocator@U?$_Tree_node@U?$pair@$$CBV?$basic_string@DU?$char_traits@D@std@@V?$allocator@D@2@@std@@H@std@@PAX@std@@@std@@@?$_Tree_val@U?$_Tree_simple_types@U?$pair@$$CBV?$basic_string@DU?$char_traits@D@std@@V?$allocator@D@2@@std@@H@std@@@std@@@std@@QAEXAAV?$allocator@U?$_Tree_node@U?$pair@$$CBV?$basic_string@DU?$char_traits@D@std@@V?$allocator@D@2@@std@@H@std@@PAX@std@@@1@PAU?$_Tree_node@U?$pair@$$CBV?$basic_string@DU?$char_traits@D@std@@V?$allocator@D@2@@std@@H@std@@PAX@1@@Z
	??$_Erase_tree@V?$allocator@U?$_Tree_node@U?$pair@$$CBV?$basic_string@DU?$char_traits@D@std@@V?$allocator@D@2@@std@@PAUggml_tensor@@@std@@PAX@std@@@std@@@?$_Tree_val@U?$_Tree_simple_types@U?$pair@$$CBV?$basic_string@DU?$char_traits@D@std@@V?$allocator@D@2@@std@@PAUggml_tensor@@@std@@@std@@@std@@QAEXAAV?$allocator@U?$_Tree_node@U?$pair@$$CBV?$basic_string@DU?$char_traits@D@std@@V?$allocator@D@2@@std@@PAUggml_tensor@@@std@@PAX@std@@@1@PAU?$_Tree_node@U?$pair@$$CBV?$basic_string@DU?$char_traits@D@std@@V?$allocator@D@2@@std@@PAUggml_tensor@@@std@@PAX@1@@Z
	??$_Erase_tree@V?$allocator@U?$_Tree_node@U?$pair@$$CBV?$basic_string@DU?$char_traits@D@std@@V?$allocator@D@2@@std@@U?$pair@HV?$basic_string@DU?$char_traits@D@std@@V?$allocator@D@2@@std@@@2@@std@@PAX@std@@@std@@@?$_Tree_val@U?$_Tree_simple_types@U?$pair@$$CBV?$basic_string@DU?$char_traits@D@std@@V?$allocator@D@2@@std@@U?$pair@HV?$basic_string@DU?$char_traits@D@std@@V?$allocator@D@2@@std@@@2@@std@@@std@@@std@@QAEXAAV?$allocator@U?$_Tree_node@U?$pair@$$CBV?$basic_string@DU?$char_traits@D@std@@V?$allocator@D@2@@std@@U?$pair@HV?$basic_string@DU?$char_traits@D@std@@V?$allocator@D@2@@std@@@2@@std@@PAX@std@@@1@PAU?$_Tree_node@U?$pair@$$CBV?$basic_string@DU?$char_traits@D@std@@V?$allocator@D@2@@std@@U?$pair@HV?$basic_string@DU?$char_traits@D@std@@V?$allocator@D@2@@std@@@2@@std@@PAX@1@@Z
	??$_Erase_tree@V?$allocator@U?$_Tree_node@U?$pair@$$CBW4asr_system@@V?$map@W4asr_tensor@@PBDU?$less@W4asr_tensor@@@std@@V?$allocator@U?$pair@$$CBW4asr_tensor@@PBD@std@@@3@@std@@@std@@PAX@std@@@std@@@?$_Tree_val@U?$_Tree_simple_types@U?$pair@$$CBW4asr_system@@V?$map@W4asr_tensor@@PBDU?$less@W4asr_tensor@@@std@@V?$allocator@U?$pair@$$CBW4asr_tensor@@PBD@std@@@3@@std@@@std@@@std@@@std@@QAEXAAV?$allocator@U?$_Tree_node@U?$pair@$$CBW4asr_system@@V?$map@W4asr_tensor@@PBDU?$less@W4asr_tensor@@@std@@V?$allocator@U?$pair@$$CBW4asr_tensor@@PBD@std@@@3@@std@@@std@@PAX@std@@@1@PAU?$_Tree_node@U?$pair@$$CBW4asr_system@@V?$map@W4asr_tensor@@PBDU?$less@W4asr_tensor@@@std@@V?$allocator@U?$pair@$$CBW4asr_tensor@@PBD@std@@@3@@std@@@std@@PAX@1@@Z
	??$_Erase_tree@V?$allocator@U?$_Tree_node@U?$pair@$$CBW4asr_tensor@@PBD@std@@PAX@std@@@std@@@?$_Tree_val@U?$_Tree_simple_types@U?$pair@$$CBW4asr_tensor@@PBD@std@@@std@@@std@@QAEXAAV?$allocator@U?$_Tree_node@U?$pair@$$CBW4asr_tensor@@PBD@std@@PAX@std@@@1@PAU?$_Tree_node@U?$pair@$$CBW4asr_tensor@@PBD@std@@PAX@1@@Z
	??$_Erase_tree@V?$allocator@U?$_Tree_node@U?$pair@$$CBW4asr_tensor@@W4ggml_op@@@std@@PAX@std@@@std@@@?$_Tree_val@U?$_Tree_simple_types@U?$pair@$$CBW4asr_tensor@@W4ggml_op@@@std@@@std@@@std@@QAEXAAV?$allocator@U?$_Tree_node@U?$pair@$$CBW4asr_tensor@@W4ggml_op@@@std@@PAX@std@@@1@PAU?$_Tree_node@U?$pair@$$CBW4asr_tensor@@W4ggml_op@@@std@@PAX@1@@Z
	??$_Erase_tree@V?$allocator@U?$_Tree_node@U?$pair@$$CBW4e_model@@V?$basic_string@DU?$char_traits@D@std@@V?$allocator@D@2@@std@@@std@@PAX@std@@@std@@@?$_Tree_val@U?$_Tree_simple_types@U?$pair@$$CBW4e_model@@V?$basic_string@DU?$char_traits@D@std@@V?$allocator@D@2@@std@@@std@@@std@@@std@@QAEXAAV?$allocator@U?$_Tree_node@U?$pair@$$CBW4e_model@@V?$basic_string@DU?$char_traits@D@std@@V?$allocator@D@2@@std@@@std@@PAX@std@@@1@PAU?$_Tree_node@U?$pair@$$CBW4e_model@@V?$basic_string@DU?$char_traits@D@std@@V?$allocator@D@2@@std@@@std@@PAX@1@@Z
	??$_Erase_tree@V?$allocator@U?$_Tree_node@U?$pair@$$CBW4vad_tensor@@PBD@std@@PAX@std@@@std@@@?$_Tree_val@U?$_Tree_simple_types@U?$pair@$$CBW4vad_tensor@@PBD@std@@@std@@@std@@QAEXAAV?$allocator@U?$_Tree_node@U?$pair@$$CBW4vad_tensor@@PBD@std@@PAX@std@@@1@PAU?$_Tree_node@U?$pair@$$CBW4vad_tensor@@PBD@std@@PAX@1@@Z
	??$_Erase_tree@V?$allocator@U?$_Tree_node@U?$pair@$$CBW4vad_tensor@@W4ggml_op@@@std@@PAX@std@@@std@@@?$_Tree_val@U?$_Tree_simple_types@U?$pair@$$CBW4vad_tensor@@W4ggml_op@@@std@@@std@@@std@@QAEXAAV?$allocator@U?$_Tree_node@U?$pair@$$CBW4vad_tensor@@W4ggml_op@@@std@@PAX@std@@@1@PAU?$_Tree_node@U?$pair@$$CBW4vad_tensor@@W4ggml_op@@@std@@PAX@1@@Z
	??$_Erase_tree@V?$allocator@U?$_Tree_node@U?$pair@$$CBW4whisper_alignment_heads_preset@@Uwhisper_aheads@@@std@@PAX@std@@@std@@@?$_Tree_val@U?$_Tree_simple_types@U?$pair@$$CBW4whisper_alignment_heads_preset@@Uwhisper_aheads@@@std@@@std@@@std@@QAEXAAV?$allocator@U?$_Tree_node@U?$pair@$$CBW4whisper_alignment_heads_preset@@Uwhisper_aheads@@@std@@PAX@std@@@1@PAU?$_Tree_node@U?$pair@$$CBW4whisper_alignment_heads_preset@@Uwhisper_aheads@@@std@@PAX@1@@Z
	??$_Erase_tree@V?$allocator@U?$_Tree_node@U?$pair@QAUggml_backend_buffer_type@@PAUggml_context@@@std@@PAX@std@@@std@@@?$_Tree_val@U?$_Tree_simple_types@U?$pair@QAUggml_backend_buffer_type@@PAUggml_context@@@std@@@std@@@std@@QAEXAAV?$allocator@U?$_Tree_node@U?$pair@QAUggml_backend_buffer_type@@PAUggml_context@@@std@@PAX@std@@@1@PAU?$_Tree_node@U?$pair@QAUggml_backend_buffer_type@@PAUggml_context@@@std@@PAX@1@@Z
	??$_Erase_tree_and_orphan@V?$allocator@U?$_Tree_node@HPAX@std@@@std@@@?$_Tree_val@U?$_Tree_simple_types@H@std@@@std@@QAEXAAV?$allocator@U?$_Tree_node@HPAX@std@@@1@PAU?$_Tree_node@HPAX@1@@Z
	??$_Erase_tree_and_orphan@V?$allocator@U?$_Tree_node@U?$pair@$$CBW4asr_tensor@@PBD@std@@PAX@std@@@std@@@?$_Tree_val@U?$_Tree_simple_types@U?$pair@$$CBW4asr_tensor@@PBD@std@@@std@@@std@@QAEXAAV?$allocator@U?$_Tree_node@U?$pair@$$CBW4asr_tensor@@PBD@std@@PAX@std@@@1@PAU?$_Tree_node@U?$pair@$$CBW4asr_tensor@@PBD@std@@PAX@1@@Z
	??$_Eval@V?$mersenne_twister_engine@I$0CA@$0CHA@$0BIN@$0BP@$0JJAILANP@$0L@$0PPPPPPPP@$06$0JNCMFGIA@$0P@$0OPMGAAAA@$0BC@$0GMAHIJGF@@std@@@?$discrete_distribution@H@std@@ABEHAAV?$mersenne_twister_engine@I$0CA@$0CHA@$0BIN@$0BP@$0JJAILANP@$0L@$0PPPPPPPP@$06$0JNCMFGIA@$0P@$0OPMGAAAA@$0BC@$0GMAHIJGF@@1@ABUparam_type@01@@Z
	??$_Fgetc@D@std@@YA_NAADPAU_iobuf@@@Z
	??$_Fill_memset@PADD@std@@YAXPADDI@Z
	??$_Fill_vbool@V?$_Vb_iterator@U?$_Wrap_alloc@V?$allocator@I@std@@@std@@@std@@_N@std@@YAXV?$_Vb_iterator@U?$_Wrap_alloc@V?$allocator@I@std@@@std@@@0@0AB_N@Z
	??$_Fill_zero_memset@PAI@std@@YAXPAII@Z
	??$_Fill_zero_memset@PAM@std@@YAXPAMI@Z
	??$_Fill_zero_memset@PAN@std@@YAXPANI@Z
	??$_Find@E@_Bitmap@std@@QBE_NE@Z
	??$_Find@H@?$_Tree@V?$_Tset_traits@HU?$less@H@std@@V?$allocator@H@2@$0A@@std@@@std@@ABEPAU?$_Tree_node@HPAX@1@ABH@Z
	??$_Find@PAUggml_backend_buffer_type@@@?$_Tree@V?$_Tmap_traits@PAUggml_backend_buffer_type@@PAUggml_context@@U?$less@PAUggml_backend_buffer_type@@@std@@V?$allocator@U?$pair@QAUggml_backend_buffer_type@@PAUggml_context@@@std@@@4@$0A@@std@@@std@@ABEPAU?$_Tree_node@U?$pair@QAUggml_backend_buffer_type@@PAUggml_context@@@std@@PAX@1@ABQAUggml_backend_buffer_type@@@Z
	??$_Find@V?$basic_string@DU?$char_traits@D@std@@V?$allocator@D@2@@std@@@?$_Tree@V?$_Tmap_traits@V?$basic_string@DU?$char_traits@D@std@@V?$allocator@D@2@@std@@HU?$less@V?$basic_string@DU?$char_traits@D@std@@V?$allocator@D@2@@std@@@2@V?$allocator@U?$pair@$$CBV?$basic_string@DU?$char_traits@D@std@@V?$allocator@D@2@@std@@H@std@@@2@$0A@@std@@@std@@ABEPAU?$_Tree_node@U?$pair@$$CBV?$basic_string@DU?$char_traits@D@std@@V?$allocator@D@2@@std@@H@std@@PAX@1@ABV?$basic_string@DU?$char_traits@D@std@@V?$allocator@D@2@@1@@Z
	??$_Find@V?$basic_string@DU?$char_traits@D@std@@V?$allocator@D@2@@std@@@?$_Tree@V?$_Tmap_traits@V?$basic_string@DU?$char_traits@D@std@@V?$allocator@D@2@@std@@PAUggml_tensor@@U?$less@V?$basic_string@DU?$char_traits@D@std@@V?$allocator@D@2@@std@@@2@V?$allocator@U?$pair@$$CBV?$basic_string@DU?$char_traits@D@std@@V?$allocator@D@2@@std@@PAUggml_tensor@@@std@@@2@$0A@@std@@@std@@ABEPAU?$_Tree_node@U?$pair@$$CBV?$basic_string@DU?$char_traits@D@std@@V?$allocator@D@2@@std@@PAUggml_tensor@@@std@@PAX@1@ABV?$basic_string@DU?$char_traits@D@std@@V?$allocator@D@2@@1@@Z
	??$_Find_hint@V?$basic_string@DU?$char_traits@D@std@@V?$allocator@D@2@@std@@@?$_Tree@V?$_Tmap_traits@V?$basic_string@DU?$char_traits@D@std@@V?$allocator@D@2@@std@@U?$pair@HV?$basic_string@DU?$char_traits@D@std@@V?$allocator@D@2@@std@@@2@U?$less@V?$basic_string@DU?$char_traits@D@std@@V?$allocator@D@2@@std@@@2@V?$allocator@U?$pair@$$CBV?$basic_string@DU?$char_traits@D@std@@V?$allocator@D@2@@std@@U?$pair@HV?$basic_string@DU?$char_traits@D@std@@V?$allocator@D@2@@std@@@2@@std@@@2@$0A@@std@@@std@@IBE?AU?$_Tree_find_hint_result@PAU?$_Tree_node@U?$pair@$$CBV?$basic_string@DU?$char_traits@D@std@@V?$allocator@D@2@@std@@U?$pair@HV?$basic_string@DU?$char_traits@D@std@@V?$allocator@D@2@@std@@@2@@std@@PAX@std@@@1@QAU?$_Tree_node@U?$pair@$$CBV?$basic_string@DU?$char_traits@D@std@@V?$allocator@D@2@@std@@U?$pair@HV?$basic_string@DU?$char_traits@D@std@@V?$allocator@D@2@@std@@@2@@std@@PAX@1@ABV?$basic_string@DU?$char_traits@D@std@@V?$allocator@D@2@@1@@Z
	??$_Find_hint@W4asr_system@@@?$_Tree@V?$_Tmap_traits@W4asr_system@@V?$map@W4asr_tensor@@PBDU?$less@W4asr_tensor@@@std@@V?$allocator@U?$pair@$$CBW4asr_tensor@@PBD@std@@@3@@std@@U?$less@W4asr_system@@@3@V?$allocator@U?$pair@$$CBW4asr_system@@V?$map@W4asr_tensor@@PBDU?$less@W4asr_tensor@@@std@@V?$allocator@U?$pair@$$CBW4asr_tensor@@PBD@std@@@3@@std@@@std@@@3@$0A@@std@@@std@@IBE?AU?$_Tree_find_hint_result@PAU?$_Tree_node@U?$pair@$$CBW4asr_system@@V?$map@W4asr_tensor@@PBDU?$less@W4asr_tensor@@@std@@V?$allocator@U?$pair@$$CBW4asr_tensor@@PBD@std@@@3@@std@@@std@@PAX@std@@@1@QAU?$_Tree_node@U?$pair@$$CBW4asr_system@@V?$map@W4asr_tensor@@PBDU?$less@W4asr_tensor@@@std@@V?$allocator@U?$pair@$$CBW4asr_tensor@@PBD@std@@@3@@std@@@std@@PAX@1@ABW4asr_system@@@Z
	??$_Find_hint@W4asr_tensor@@@?$_Tree@V?$_Tmap_traits@W4asr_tensor@@PBDU?$less@W4asr_tensor@@@std@@V?$allocator@U?$pair@$$CBW4asr_tensor@@PBD@std@@@3@$0A@@std@@@std@@IBE?AU?$_Tree_find_hint_result@PAU?$_Tree_node@U?$pair@$$CBW4asr_tensor@@PBD@std@@PAX@std@@@1@QAU?$_Tree_node@U?$pair@$$CBW4asr_tensor@@PBD@std@@PAX@1@ABW4asr_tensor@@@Z
	??$_Find_hint@W4asr_tensor@@@?$_Tree@V?$_Tmap_traits@W4asr_tensor@@W4ggml_op@@U?$less@W4asr_tensor@@@std@@V?$allocator@U?$pair@$$CBW4asr_tensor@@W4ggml_op@@@std@@@4@$0A@@std@@@std@@IBE?AU?$_Tree_find_hint_result@PAU?$_Tree_node@U?$pair@$$CBW4asr_tensor@@W4ggml_op@@@std@@PAX@std@@@1@QAU?$_Tree_node@U?$pair@$$CBW4asr_tensor@@W4ggml_op@@@std@@PAX@1@ABW4asr_tensor@@@Z
	??$_Find_hint@W4e_model@@@?$_Tree@V?$_Tmap_traits@W4e_model@@V?$basic_string@DU?$char_traits@D@std@@V?$allocator@D@2@@std@@U?$less@W4e_model@@@3@V?$allocator@U?$pair@$$CBW4e_model@@V?$basic_string@DU?$char_traits@D@std@@V?$allocator@D@2@@std@@@std@@@3@$0A@@std@@@std@@IBE?AU?$_Tree_find_hint_result@PAU?$_Tree_node@U?$pair@$$CBW4e_model@@V?$basic_string@DU?$char_traits@D@std@@V?$allocator@D@2@@std@@@std@@PAX@std@@@1@QAU?$_Tree_node@U?$pair@$$CBW4e_model@@V?$basic_string@DU?$char_traits@D@std@@V?$allocator@D@2@@std@@@std@@PAX@1@ABW4e_model@@@Z
	??$_Find_hint@W4vad_tensor@@@?$_Tree@V?$_Tmap_traits@W4vad_tensor@@PBDU?$less@W4vad_tensor@@@std@@V?$allocator@U?$pair@$$CBW4vad_tensor@@PBD@std@@@3@$0A@@std@@@std@@IBE?AU?$_Tree_find_hint_result@PAU?$_Tree_node@U?$pair@$$CBW4vad_tensor@@PBD@std@@PAX@std@@@1@QAU?$_Tree_node@U?$pair@$$CBW4vad_tensor@@PBD@std@@PAX@1@ABW4vad_tensor@@@Z
	??$_Find_hint@W4vad_tensor@@@?$_Tree@V?$_Tmap_traits@W4vad_tensor@@W4ggml_op@@U?$less@W4vad_tensor@@@std@@V?$allocator@U?$pair@$$CBW4vad_tensor@@W4ggml_op@@@std@@@4@$0A@@std@@@std@@IBE?AU?$_Tree_find_hint_result@PAU?$_Tree_node@U?$pair@$$CBW4vad_tensor@@W4ggml_op@@@std@@PAX@std@@@1@QAU?$_Tree_node@U?$pair@$$CBW4vad_tensor@@W4ggml_op@@@std@@PAX@1@ABW4vad_tensor@@@Z
	??$_Find_hint@W4whisper_alignment_heads_preset@@@?$_Tree@V?$_Tmap_traits@W4whisper_alignment_heads_preset@@Uwhisper_aheads@@U?$less@W4whisper_alignment_heads_preset@@@std@@V?$allocator@U?$pair@$$CBW4whisper_alignment_heads_preset@@Uwhisper_aheads@@@std@@@4@$0A@@std@@@std@@IBE?AU?$_Tree_find_hint_result@PAU?$_Tree_node@U?$pair@$$CBW4whisper_alignment_heads_preset@@Uwhisper_aheads@@@std@@PAX@std@@@1@QAU?$_Tree_node@U?$pair@$$CBW4whisper_alignment_heads_preset@@Uwhisper_aheads@@@std@@PAX@1@ABW4whisper_alignment_heads_preset@@@Z
	??$_Find_lower_bound@H@?$_Tree@V?$_Tmap_traits@HHU?$less@H@std@@V?$allocator@U?$pair@$$CBHH@std@@@2@$0A@@std@@@std@@IBE?AU?$_Tree_find_result@PAU?$_Tree_node@U?$pair@$$CBHH@std@@PAX@std@@@1@ABH@Z
	??$_Find_lower_bound@H@?$_Tree@V?$_Tmap_traits@HV?$basic_string@DU?$char_traits@D@std@@V?$allocator@D@2@@std@@U?$less@H@2@V?$allocator@U?$pair@$$CBHV?$basic_string@DU?$char_traits@D@std@@V?$allocator@D@2@@std@@@std@@@2@$0A@@std@@@std@@IBE?AU?$_Tree_find_result@PAU?$_Tree_node@U?$pair@$$CBHV?$basic_string@DU?$char_traits@D@std@@V?$allocator@D@2@@std@@@std@@PAX@std@@@1@ABH@Z
	??$_Find_lower_bound@H@?$_Tree@V?$_Tset_traits@HU?$less@H@std@@V?$allocator@H@2@$0A@@std@@@std@@IBE?AU?$_Tree_find_result@PAU?$_Tree_node@HPAX@std@@@1@ABH@Z
	??$_Find_lower_bound@PAUggml_backend_buffer_type@@@?$_Tree@V?$_Tmap_traits@PAUggml_backend_buffer_type@@PAUggml_context@@U?$less@PAUggml_backend_buffer_type@@@std@@V?$allocator@U?$pair@QAUggml_backend_buffer_type@@PAUggml_context@@@std@@@4@$0A@@std@@@std@@IBE?AU?$_Tree_find_result@PAU?$_Tree_node@U?$pair@QAUggml_backend_buffer_type@@PAUggml_context@@@std@@PAX@std@@@1@ABQAUggml_backend_buffer_type@@@Z
	??$_Find_lower_bound@V?$basic_string@DU?$char_traits@D@std@@V?$allocator@D@2@@std@@@?$_Tree@V?$_Tmap_traits@V?$basic_string@DU?$char_traits@D@std@@V?$allocator@D@2@@std@@HU?$less@V?$basic_string@DU?$char_traits@D@std@@V?$allocator@D@2@@std@@@2@V?$allocator@U?$pair@$$CBV?$basic_string@DU?$char_traits@D@std@@V?$allocator@D@2@@std@@H@std@@@2@$0A@@std@@@std@@IBE?AU?$_Tree_find_result@PAU?$_Tree_node@U?$pair@$$CBV?$basic_string@DU?$char_traits@D@std@@V?$allocator@D@2@@std@@H@std@@PAX@std@@@1@ABV?$basic_string@DU?$char_traits@D@std@@V?$allocator@D@2@@1@@Z
	??$_Find_lower_bound@V?$basic_string@DU?$char_traits@D@std@@V?$allocator@D@2@@std@@@?$_Tree@V?$_Tmap_traits@V?$basic_string@DU?$char_traits@D@std@@V?$allocator@D@2@@std@@PAUggml_tensor@@U?$less@V?$basic_string@DU?$char_traits@D@std@@V?$allocator@D@2@@std@@@2@V?$allocator@U?$pair@$$CBV?$basic_string@DU?$char_traits@D@std@@V?$allocator@D@2@@std@@PAUggml_tensor@@@std@@@2@$0A@@std@@@std@@IBE?AU?$_Tree_find_result@PAU?$_Tree_node@U?$pair@$$CBV?$basic_string@DU?$char_traits@D@std@@V?$allocator@D@2@@std@@PAUggml_tensor@@@std@@PAX@std@@@1@ABV?$basic_string@DU?$char_traits@D@std@@V?$allocator@D@2@@1@@Z
	??$_Find_lower_bound@V?$basic_string@DU?$char_traits@D@std@@V?$allocator@D@2@@std@@@?$_Tree@V?$_Tmap_traits@V?$basic_string@DU?$char_traits@D@std@@V?$allocator@D@2@@std@@U?$pair@HV?$basic_string@DU?$char_traits@D@std@@V?$allocator@D@2@@std@@@2@U?$less@V?$basic_string@DU?$char_traits@D@std@@V?$allocator@D@2@@std@@@2@V?$allocator@U?$pair@$$CBV?$basic_string@DU?$char_traits@D@std@@V?$allocator@D@2@@std@@U?$pair@HV?$basic_string@DU?$char_traits@D@std@@V?$allocator@D@2@@std@@@2@@std@@@2@$0A@@std@@@std@@IBE?AU?$_Tree_find_result@PAU?$_Tree_node@U?$pair@$$CBV?$basic_string@DU?$char_traits@D@std@@V?$allocator@D@2@@std@@U?$pair@HV?$basic_string@DU?$char_traits@D@std@@V?$allocator@D@2@@std@@@2@@std@@PAX@std@@@1@ABV?$basic_string@DU?$char_traits@D@std@@V?$allocator@D@2@@1@@Z
	??$_Find_lower_bound@W4asr_system@@@?$_Tree@V?$_Tmap_traits@W4asr_system@@V?$map@W4asr_tensor@@PBDU?$less@W4asr_tensor@@@std@@V?$allocator@U?$pair@$$CBW4asr_tensor@@PBD@std@@@3@@std@@U?$less@W4asr_system@@@3@V?$allocator@U?$pair@$$CBW4asr_system@@V?$map@W4asr_tensor@@PBDU?$less@W4asr_tensor@@@std@@V?$allocator@U?$pair@$$CBW4asr_tensor@@PBD@std@@@3@@std@@@std@@@3@$0A@@std@@@std@@IBE?AU?$_Tree_find_result@PAU?$_Tree_node@U?$pair@$$CBW4asr_system@@V?$map@W4asr_tensor@@PBDU?$less@W4asr_tensor@@@std@@V?$allocator@U?$pair@$$CBW4asr_tensor@@PBD@std@@@3@@std@@@std@@PAX@std@@@1@ABW4asr_system@@@Z
	??$_Find_lower_bound@W4asr_tensor@@@?$_Tree@V?$_Tmap_traits@W4asr_tensor@@PBDU?$less@W4asr_tensor@@@std@@V?$allocator@U?$pair@$$CBW4asr_tensor@@PBD@std@@@3@$0A@@std@@@std@@IBE?AU?$_Tree_find_result@PAU?$_Tree_node@U?$pair@$$CBW4asr_tensor@@PBD@std@@PAX@std@@@1@ABW4asr_tensor@@@Z
	??$_Find_lower_bound@W4asr_tensor@@@?$_Tree@V?$_Tmap_traits@W4asr_tensor@@W4ggml_op@@U?$less@W4asr_tensor@@@std@@V?$allocator@U?$pair@$$CBW4asr_tensor@@W4ggml_op@@@std@@@4@$0A@@std@@@std@@IBE?AU?$_Tree_find_result@PAU?$_Tree_node@U?$pair@$$CBW4asr_tensor@@W4ggml_op@@@std@@PAX@std@@@1@ABW4asr_tensor@@@Z
	??$_Find_lower_bound@W4e_model@@@?$_Tree@V?$_Tmap_traits@W4e_model@@V?$basic_string@DU?$char_traits@D@std@@V?$allocator@D@2@@std@@U?$less@W4e_model@@@3@V?$allocator@U?$pair@$$CBW4e_model@@V?$basic_string@DU?$char_traits@D@std@@V?$allocator@D@2@@std@@@std@@@3@$0A@@std@@@std@@IBE?AU?$_Tree_find_result@PAU?$_Tree_node@U?$pair@$$CBW4e_model@@V?$basic_string@DU?$char_traits@D@std@@V?$allocator@D@2@@std@@@std@@PAX@std@@@1@ABW4e_model@@@Z
	??$_Find_lower_bound@W4vad_tensor@@@?$_Tree@V?$_Tmap_traits@W4vad_tensor@@PBDU?$less@W4vad_tensor@@@std@@V?$allocator@U?$pair@$$CBW4vad_tensor@@PBD@std@@@3@$0A@@std@@@std@@IBE?AU?$_Tree_find_result@PAU?$_Tree_node@U?$pair@$$CBW4vad_tensor@@PBD@std@@PAX@std@@@1@ABW4vad_tensor@@@Z
	??$_Find_lower_bound@W4vad_tensor@@@?$_Tree@V?$_Tmap_traits@W4vad_tensor@@W4ggml_op@@U?$less@W4vad_tensor@@@std@@V?$allocator@U?$pair@$$CBW4vad_tensor@@W4ggml_op@@@std@@@4@$0A@@std@@@std@@IBE?AU?$_Tree_find_result@PAU?$_Tree_node@U?$pair@$$CBW4vad_tensor@@W4ggml_op@@@std@@PAX@std@@@1@ABW4vad_tensor@@@Z
	??$_Find_lower_bound@W4whisper_alignment_heads_preset@@@?$_Tree@V?$_Tmap_traits@W4whisper_alignment_heads_preset@@Uwhisper_aheads@@U?$less@W4whisper_alignment_heads_preset@@@std@@V?$allocator@U?$pair@$$CBW4whisper_alignment_heads_preset@@Uwhisper_aheads@@@std@@@4@$0A@@std@@@std@@IBE?AU?$_Tree_find_result@PAU?$_Tree_node@U?$pair@$$CBW4whisper_alignment_heads_preset@@Uwhisper_aheads@@@std@@PAX@std@@@1@ABW4whisper_alignment_heads_preset@@@Z
	??$_Find_unchecked1@PBDD@std@@YAPBDPBDQBDABDU?$integral_constant@_N$0A@@0@@Z
	??$_Find_unchecked1@PBDE@std@@YAPBDPBDQBDABEU?$integral_constant@_N$00@0@@Z
	??$_Find_unchecked1@PBDW4_Meta_type@std@@@std@@YAPBDPBDQBDABW4_Meta_type@0@U?$integral_constant@_N$0A@@0@@Z
	??$_Find_unchecked@PBDE@std@@YAPBDQBD0ABE@Z
	??$_Find_unchecked@PBDW4_Meta_type@std@@@std@@YAPBDQBD0ABW4_Meta_type@0@@Z
	??$_Fputc@D@std@@YA_NDPAU_iobuf@@@Z
	??$_Freenode0@V?$allocator@U?$_Tree_node@HPAX@std@@@std@@@?$_Tree_node@HPAX@std@@SAXAAV?$allocator@U?$_Tree_node@HPAX@std@@@1@PAU01@@Z
	??$_Freenode0@V?$allocator@U?$_Tree_node@U?$pair@$$CBHH@std@@PAX@std@@@std@@@?$_Tree_node@U?$pair@$$CBHH@std@@PAX@std@@SAXAAV?$allocator@U?$_Tree_node@U?$pair@$$CBHH@std@@PAX@std@@@1@PAU01@@Z
	??$_Freenode0@V?$allocator@U?$_Tree_node@U?$pair@$$CBHV?$basic_string@DU?$char_traits@D@std@@V?$allocator@D@2@@std@@@std@@PAX@std@@@std@@@?$_Tree_node@U?$pair@$$CBHV?$basic_string@DU?$char_traits@D@std@@V?$allocator@D@2@@std@@@std@@PAX@std@@SAXAAV?$allocator@U?$_Tree_node@U?$pair@$$CBHV?$basic_string@DU?$char_traits@D@std@@V?$allocator@D@2@@std@@@std@@PAX@std@@@1@PAU01@@Z
	??$_Freenode0@V?$allocator@U?$_Tree_node@U?$pair@$$CBV?$basic_string@DU?$char_traits@D@std@@V?$allocator@D@2@@std@@H@std@@PAX@std@@@std@@@?$_Tree_node@U?$pair@$$CBV?$basic_string@DU?$char_traits@D@std@@V?$allocator@D@2@@std@@H@std@@PAX@std@@SAXAAV?$allocator@U?$_Tree_node@U?$pair@$$CBV?$basic_string@DU?$char_traits@D@std@@V?$allocator@D@2@@std@@H@std@@PAX@std@@@1@PAU01@@Z
	??$_Freenode0@V?$allocator@U?$_Tree_node@U?$pair@$$CBV?$basic_string@DU?$char_traits@D@std@@V?$allocator@D@2@@std@@PAUggml_tensor@@@std@@PAX@std@@@std@@@?$_Tree_node@U?$pair@$$CBV?$basic_string@DU?$char_traits@D@std@@V?$allocator@D@2@@std@@PAUggml_tensor@@@std@@PAX@std@@SAXAAV?$allocator@U?$_Tree_node@U?$pair@$$CBV?$basic_string@DU?$char_traits@D@std@@V?$allocator@D@2@@std@@PAUggml_tensor@@@std@@PAX@std@@@1@PAU01@@Z
	??$_Freenode0@V?$allocator@U?$_Tree_node@U?$pair@$$CBV?$basic_string@DU?$char_traits@D@std@@V?$allocator@D@2@@std@@U?$pair@HV?$basic_string@DU?$char_traits@D@std@@V?$allocator@D@2@@std@@@2@@std@@PAX@std@@@std@@@?$_Tree_node@U?$pair@$$CBV?$basic_string@DU?$char_traits@D@std@@V?$allocator@D@2@@std@@U?$pair@HV?$basic_string@DU?$char_traits@D@std@@V?$allocator@D@2@@std@@@2@@std@@PAX@std@@SAXAAV?$allocator@U?$_Tree_node@U?$pair@$$CBV?$basic_string@DU?$char_traits@D@std@@V?$allocator@D@2@@std@@U?$pair@HV?$basic_string@DU?$char_traits@D@std@@V?$allocator@D@2@@std@@@2@@std@@PAX@std@@@1@PAU01@@Z
	??$_Freenode0@V?$allocator@U?$_Tree_node@U?$pair@$$CBW4asr_system@@V?$map@W4asr_tensor@@PBDU?$less@W4asr_tensor@@@std@@V?$allocator@U?$pair@$$CBW4asr_tensor@@PBD@std@@@3@@std@@@std@@PAX@std@@@std@@@?$_Tree_node@U?$pair@$$CBW4asr_system@@V?$map@W4asr_tensor@@PBDU?$less@W4asr_tensor@@@std@@V?$allocator@U?$pair@$$CBW4asr_tensor@@PBD@std@@@3@@std@@@std@@PAX@std@@SAXAAV?$allocator@U?$_Tree_node@U?$pair@$$CBW4asr_system@@V?$map@W4asr_tensor@@PBDU?$less@W4asr_tensor@@@std@@V?$allocator@U?$pair@$$CBW4asr_tensor@@PBD@std@@@3@@std@@@std@@PAX@std@@@1@PAU01@@Z
	??$_Freenode0@V?$allocator@U?$_Tree_node@U?$pair@$$CBW4asr_tensor@@PBD@std@@PAX@std@@@std@@@?$_Tree_node@U?$pair@$$CBW4asr_tensor@@PBD@std@@PAX@std@@SAXAAV?$allocator@U?$_Tree_node@U?$pair@$$CBW4asr_tensor@@PBD@std@@PAX@std@@@1@PAU01@@Z
	??$_Freenode0@V?$allocator@U?$_Tree_node@U?$pair@$$CBW4asr_tensor@@W4ggml_op@@@std@@PAX@std@@@std@@@?$_Tree_node@U?$pair@$$CBW4asr_tensor@@W4ggml_op@@@std@@PAX@std@@SAXAAV?$allocator@U?$_Tree_node@U?$pair@$$CBW4asr_tensor@@W4ggml_op@@@std@@PAX@std@@@1@PAU01@@Z
	??$_Freenode0@V?$allocator@U?$_Tree_node@U?$pair@$$CBW4e_model@@V?$basic_string@DU?$char_traits@D@std@@V?$allocator@D@2@@std@@@std@@PAX@std@@@std@@@?$_Tree_node@U?$pair@$$CBW4e_model@@V?$basic_string@DU?$char_traits@D@std@@V?$allocator@D@2@@std@@@std@@PAX@std@@SAXAAV?$allocator@U?$_Tree_node@U?$pair@$$CBW4e_model@@V?$basic_string@DU?$char_traits@D@std@@V?$allocator@D@2@@std@@@std@@PAX@std@@@1@PAU01@@Z
	??$_Freenode0@V?$allocator@U?$_Tree_node@U?$pair@$$CBW4vad_tensor@@PBD@std@@PAX@std@@@std@@@?$_Tree_node@U?$pair@$$CBW4vad_tensor@@PBD@std@@PAX@std@@SAXAAV?$allocator@U?$_Tree_node@U?$pair@$$CBW4vad_tensor@@PBD@std@@PAX@std@@@1@PAU01@@Z
	??$_Freenode0@V?$allocator@U?$_Tree_node@U?$pair@$$CBW4vad_tensor@@W4ggml_op@@@std@@PAX@std@@@std@@@?$_Tree_node@U?$pair@$$CBW4vad_tensor@@W4ggml_op@@@std@@PAX@std@@SAXAAV?$allocator@U?$_Tree_node@U?$pair@$$CBW4vad_tensor@@W4ggml_op@@@std@@PAX@std@@@1@PAU01@@Z
	??$_Freenode0@V?$allocator@U?$_Tree_node@U?$pair@$$CBW4whisper_alignment_heads_preset@@Uwhisper_aheads@@@std@@PAX@std@@@std@@@?$_Tree_node@U?$pair@$$CBW4whisper_alignment_heads_preset@@Uwhisper_aheads@@@std@@PAX@std@@SAXAAV?$allocator@U?$_Tree_node@U?$pair@$$CBW4whisper_alignment_heads_preset@@Uwhisper_aheads@@@std@@PAX@std@@@1@PAU01@@Z
	??$_Freenode0@V?$allocator@U?$_Tree_node@U?$pair@QAUggml_backend_buffer_type@@PAUggml_context@@@std@@PAX@std@@@std@@@?$_Tree_node@U?$pair@QAUggml_backend_buffer_type@@PAUggml_context@@@std@@PAX@std@@SAXAAV?$allocator@U?$_Tree_node@U?$pair@QAUggml_backend_buffer_type@@PAUggml_context@@@std@@PAX@std@@@1@PAU01@@Z
	??$_Freenode@V?$allocator@U?$_Tree_node@HPAX@std@@@std@@@?$_Tree_node@HPAX@std@@SAXAAV?$allocator@U?$_Tree_node@HPAX@std@@@1@PAU01@@Z
	??$_Freenode@V?$allocator@U?$_Tree_node@U?$pair@$$CBHH@std@@PAX@std@@@std@@@?$_Tree_node@U?$pair@$$CBHH@std@@PAX@std@@SAXAAV?$allocator@U?$_Tree_node@U?$pair@$$CBHH@std@@PAX@std@@@1@PAU01@@Z
	??$_Freenode@V?$allocator@U?$_Tree_node@U?$pair@$$CBHV?$basic_string@DU?$char_traits@D@std@@V?$allocator@D@2@@std@@@std@@PAX@std@@@std@@@?$_Tree_node@U?$pair@$$CBHV?$basic_string@DU?$char_traits@D@std@@V?$allocator@D@2@@std@@@std@@PAX@std@@SAXAAV?$allocator@U?$_Tree_node@U?$pair@$$CBHV?$basic_string@DU?$char_traits@D@std@@V?$allocator@D@2@@std@@@std@@PAX@std@@@1@PAU01@@Z
	??$_Freenode@V?$allocator@U?$_Tree_node@U?$pair@$$CBV?$basic_string@DU?$char_traits@D@std@@V?$allocator@D@2@@std@@H@std@@PAX@std@@@std@@@?$_Tree_node@U?$pair@$$CBV?$basic_string@DU?$char_traits@D@std@@V?$allocator@D@2@@std@@H@std@@PAX@std@@SAXAAV?$allocator@U?$_Tree_node@U?$pair@$$CBV?$basic_string@DU?$char_traits@D@std@@V?$allocator@D@2@@std@@H@std@@PAX@std@@@1@PAU01@@Z
	??$_Freenode@V?$allocator@U?$_Tree_node@U?$pair@$$CBV?$basic_string@DU?$char_traits@D@std@@V?$allocator@D@2@@std@@PAUggml_tensor@@@std@@PAX@std@@@std@@@?$_Tree_node@U?$pair@$$CBV?$basic_string@DU?$char_traits@D@std@@V?$allocator@D@2@@std@@PAUggml_tensor@@@std@@PAX@std@@SAXAAV?$allocator@U?$_Tree_node@U?$pair@$$CBV?$basic_string@DU?$char_traits@D@std@@V?$allocator@D@2@@std@@PAUggml_tensor@@@std@@PAX@std@@@1@PAU01@@Z
	??$_Freenode@V?$allocator@U?$_Tree_node@U?$pair@$$CBV?$basic_string@DU?$char_traits@D@std@@V?$allocator@D@2@@std@@U?$pair@HV?$basic_string@DU?$char_traits@D@std@@V?$allocator@D@2@@std@@@2@@std@@PAX@std@@@std@@@?$_Tree_node@U?$pair@$$CBV?$basic_string@DU?$char_traits@D@std@@V?$allocator@D@2@@std@@U?$pair@HV?$basic_string@DU?$char_traits@D@std@@V?$allocator@D@2@@std@@@2@@std@@PAX@std@@SAXAAV?$allocator@U?$_Tree_node@U?$pair@$$CBV?$basic_string@DU?$char_traits@D@std@@V?$allocator@D@2@@std@@U?$pair@HV?$basic_string@DU?$char_traits@D@std@@V?$allocator@D@2@@std@@@2@@std@@PAX@std@@@1@PAU01@@Z
	??$_Freenode@V?$allocator@U?$_Tree_node@U?$pair@$$CBW4asr_system@@V?$map@W4asr_tensor@@PBDU?$less@W4asr_tensor@@@std@@V?$allocator@U?$pair@$$CBW4asr_tensor@@PBD@std@@@3@@std@@@std@@PAX@std@@@std@@@?$_Tree_node@U?$pair@$$CBW4asr_system@@V?$map@W4asr_tensor@@PBDU?$less@W4asr_tensor@@@std@@V?$allocator@U?$pair@$$CBW4asr_tensor@@PBD@std@@@3@@std@@@std@@PAX@std@@SAXAAV?$allocator@U?$_Tree_node@U?$pair@$$CBW4asr_system@@V?$map@W4asr_tensor@@PBDU?$less@W4asr_tensor@@@std@@V?$allocator@U?$pair@$$CBW4asr_tensor@@PBD@std@@@3@@std@@@std@@PAX@std@@@1@PAU01@@Z
	??$_Freenode@V?$allocator@U?$_Tree_node@U?$pair@$$CBW4asr_tensor@@PBD@std@@PAX@std@@@std@@@?$_Tree_node@U?$pair@$$CBW4asr_tensor@@PBD@std@@PAX@std@@SAXAAV?$allocator@U?$_Tree_node@U?$pair@$$CBW4asr_tensor@@PBD@std@@PAX@std@@@1@PAU01@@Z
	??$_Freenode@V?$allocator@U?$_Tree_node@U?$pair@$$CBW4asr_tensor@@W4ggml_op@@@std@@PAX@std@@@std@@@?$_Tree_node@U?$pair@$$CBW4asr_tensor@@W4ggml_op@@@std@@PAX@std@@SAXAAV?$allocator@U?$_Tree_node@U?$pair@$$CBW4asr_tensor@@W4ggml_op@@@std@@PAX@std@@@1@PAU01@@Z
	??$_Freenode@V?$allocator@U?$_Tree_node@U?$pair@$$CBW4e_model@@V?$basic_string@DU?$char_traits@D@std@@V?$allocator@D@2@@std@@@std@@PAX@std@@@std@@@?$_Tree_node@U?$pair@$$CBW4e_model@@V?$basic_string@DU?$char_traits@D@std@@V?$allocator@D@2@@std@@@std@@PAX@std@@SAXAAV?$allocator@U?$_Tree_node@U?$pair@$$CBW4e_model@@V?$basic_string@DU?$char_traits@D@std@@V?$allocator@D@2@@std@@@std@@PAX@std@@@1@PAU01@@Z
	??$_Freenode@V?$allocator@U?$_Tree_node@U?$pair@$$CBW4vad_tensor@@PBD@std@@PAX@std@@@std@@@?$_Tree_node@U?$pair@$$CBW4vad_tensor@@PBD@std@@PAX@std@@SAXAAV?$allocator@U?$_Tree_node@U?$pair@$$CBW4vad_tensor@@PBD@std@@PAX@std@@@1@PAU01@@Z
	??$_Freenode@V?$allocator@U?$_Tree_node@U?$pair@$$CBW4vad_tensor@@W4ggml_op@@@std@@PAX@std@@@std@@@?$_Tree_node@U?$pair@$$CBW4vad_tensor@@W4ggml_op@@@std@@PAX@std@@SAXAAV?$allocator@U?$_Tree_node@U?$pair@$$CBW4vad_tensor@@W4ggml_op@@@std@@PAX@std@@@1@PAU01@@Z
	??$_Freenode@V?$allocator@U?$_Tree_node@U?$pair@$$CBW4whisper_alignment_heads_preset@@Uwhisper_aheads@@@std@@PAX@std@@@std@@@?$_Tree_node@U?$pair@$$CBW4whisper_alignment_heads_preset@@Uwhisper_aheads@@@std@@PAX@std@@SAXAAV?$allocator@U?$_Tree_node@U?$pair@$$CBW4whisper_alignment_heads_preset@@Uwhisper_aheads@@@std@@PAX@std@@@1@PAU01@@Z
	??$_Freenode@V?$allocator@U?$_Tree_node@U?$pair@QAUggml_backend_buffer_type@@PAUggml_context@@@std@@PAX@std@@@std@@@?$_Tree_node@U?$pair@QAUggml_backend_buffer_type@@PAUggml_context@@@std@@PAX@std@@SAXAAV?$allocator@U?$_Tree_node@U?$pair@QAUggml_backend_buffer_type@@PAUggml_context@@@std@@PAX@std@@@1@PAU01@@Z
	??$_Get@D@_Cl_names@std@@QBEPBDXZ
	??$_Get_size_of_n@$00@std@@YAII@Z
	??$_Get_size_of_n@$01@std@@YAII@Z
	??$_Get_size_of_n@$03@std@@YAII@Z
	??$_Get_size_of_n@$07@std@@YAII@Z
	??$_Get_size_of_n@$0BA@@std@@YAII@Z
	??$_Get_size_of_n@$0BE@@std@@YAII@Z
	??$_Get_size_of_n@$0BI@@std@@YAII@Z
	??$_Get_size_of_n@$0BM@@std@@YAII@Z
	??$_Get_size_of_n@$0CA@@std@@YAII@Z
	??$_Get_size_of_n@$0DA@@std@@YAII@Z
	??$_Get_size_of_n@$0DI@@std@@YAII@Z
	??$_Get_size_of_n@$0DM@@std@@YAII@Z
	??$_Get_size_of_n@$0EI@@std@@YAII@Z
	??$_Get_size_of_n@$0EM@@std@@YAII@Z
	??$_Get_size_of_n@$0GA@@std@@YAII@Z
	??$_Get_size_of_n@$0HI@@std@@YAII@Z
	??$_Get_size_of_n@$0M@@std@@YAII@Z
	??$_Get_unwrapped@AAPAD@std@@YA?A_TAAPAD@Z
	??$_Get_unwrapped@AAPAI@std@@YA?A_TAAPAI@Z
	??$_Get_unwrapped@AAPAPBUwhisper_grammar_element@@@std@@YA?A_TAAPAPBUwhisper_grammar_element@@@Z
	??$_Get_unwrapped@AAPAU_Grp_t@?$_Tgt_state_t@PBD@std@@@std@@YA?A_TAAPAU_Grp_t@?$_Tgt_state_t@PBD@0@@Z
	??$_Get_unwrapped@AAPAU_Grp_t@?$_Tgt_state_t@V?$_String_const_iterator@V?$_String_val@U?$_Simple_types@D@std@@@std@@@std@@@std@@@std@@YA?A_TAAPAU_Grp_t@?$_Tgt_state_t@V?$_String_const_iterator@V?$_String_val@U?$_Simple_types@D@std@@@std@@@std@@@0@@Z
	??$_Get_unwrapped@AAPAUwhisper_grammar_element@@@std@@YA?A_TAAPAUwhisper_grammar_element@@@Z
	??$_Get_unwrapped@AAPAUwhisper_token_data@@@std@@YA?A_TAAPAUwhisper_token_data@@@Z
	??$_Get_unwrapped@AAPAV?$vector@PBUwhisper_grammar_element@@V?$allocator@PBUwhisper_grammar_element@@@std@@@std@@@std@@YA?A_TAAPAV?$vector@PBUwhisper_grammar_element@@V?$allocator@PBUwhisper_grammar_element@@@std@@@0@@Z
	??$_Get_unwrapped@AAPAV?$vector@Uwhisper_grammar_element@@V?$allocator@Uwhisper_grammar_element@@@std@@@std@@@std@@YA?A_TAAPAV?$vector@Uwhisper_grammar_element@@V?$allocator@Uwhisper_grammar_element@@@std@@@0@@Z
	??$_Get_unwrapped@AAPBD@std@@YA?A_TAAPBD@Z
	??$_Get_unwrapped@AAPBM@std@@YA?A_TAAPBM@Z
	??$_Get_unwrapped@AAPBU?$pair@$$CBV?$basic_string@DU?$char_traits@D@std@@V?$allocator@D@2@@std@@U?$pair@HV?$basic_string@DU?$char_traits@D@std@@V?$allocator@D@2@@std@@@2@@std@@@std@@YA?A_TAAPBU?$pair@$$CBV?$basic_string@DU?$char_traits@D@std@@V?$allocator@D@2@@std@@U?$pair@HV?$basic_string@DU?$char_traits@D@std@@V?$allocator@D@2@@std@@@2@@0@@Z
	??$_Get_unwrapped@AAPBU?$pair@$$CBW4asr_system@@V?$map@W4asr_tensor@@PBDU?$less@W4asr_tensor@@@std@@V?$allocator@U?$pair@$$CBW4asr_tensor@@PBD@std@@@3@@std@@@std@@@std@@YA?A_TAAPBU?$pair@$$CBW4asr_system@@V?$map@W4asr_tensor@@PBDU?$less@W4asr_tensor@@@std@@V?$allocator@U?$pair@$$CBW4asr_tensor@@PBD@std@@@3@@std@@@0@@Z
	??$_Get_unwrapped@AAPBU?$pair@$$CBW4asr_tensor@@PBD@std@@@std@@YA?A_TAAPBU?$pair@$$CBW4asr_tensor@@PBD@0@@Z
	??$_Get_unwrapped@AAPBU?$pair@$$CBW4asr_tensor@@W4ggml_op@@@std@@@std@@YA?A_TAAPBU?$pair@$$CBW4asr_tensor@@W4ggml_op@@@0@@Z
	??$_Get_unwrapped@AAPBU?$pair@$$CBW4e_model@@V?$basic_string@DU?$char_traits@D@std@@V?$allocator@D@2@@std@@@std@@@std@@YA?A_TAAPBU?$pair@$$CBW4e_model@@V?$basic_string@DU?$char_traits@D@std@@V?$allocator@D@2@@std@@@0@@Z
	??$_Get_unwrapped@AAPBU?$pair@$$CBW4vad_tensor@@PBD@std@@@std@@YA?A_TAAPBU?$pair@$$CBW4vad_tensor@@PBD@0@@Z
	??$_Get_unwrapped@AAPBU?$pair@$$CBW4vad_tensor@@W4ggml_op@@@std@@@std@@YA?A_TAAPBU?$pair@$$CBW4vad_tensor@@W4ggml_op@@@0@@Z
	??$_Get_unwrapped@AAPBU?$pair@$$CBW4whisper_alignment_heads_preset@@Uwhisper_aheads@@@std@@@std@@YA?A_TAAPBU?$pair@$$CBW4whisper_alignment_heads_preset@@Uwhisper_aheads@@@0@@Z
	??$_Get_unwrapped@AAV?$_String_const_iterator@V?$_String_val@U?$_Simple_types@D@std@@@std@@@std@@@std@@YA?A_TAAV?$_String_const_iterator@V?$_String_val@U?$_Simple_types@D@std@@@std@@@0@@Z
	??$_Get_unwrapped@AAV?$_String_iterator@V?$_String_val@U?$_Simple_types@D@std@@@std@@@std@@@std@@YA?A_TAAV?$_String_iterator@V?$_String_val@U?$_Simple_types@D@std@@@std@@@0@@Z
	??$_Get_unwrapped@AAV?$_Tree_unchecked_const_iterator@V?$_Tree_val@U?$_Tree_simple_types@H@std@@@std@@U_Iterator_base0@2@@std@@@std@@YA?A_TAAV?$_Tree_unchecked_const_iterator@V?$_Tree_val@U?$_Tree_simple_types@H@std@@@std@@U_Iterator_base0@2@@0@@Z
	??$_Get_unwrapped@AAV?$_Vb_iterator@U?$_Wrap_alloc@V?$allocator@I@std@@@std@@@std@@@std@@YA?A_TAAV?$_Vb_iterator@U?$_Wrap_alloc@V?$allocator@I@std@@@std@@@0@@Z
	??$_Get_unwrapped@AAV?$_Vector_const_iterator@V?$_Vector_val@U?$_Simple_types@M@std@@@std@@@std@@@std@@YA?A_TAAV?$_Vector_const_iterator@V?$_Vector_val@U?$_Simple_types@M@std@@@std@@@0@@Z
	??$_Get_unwrapped@AAV?$_Vector_const_iterator@V?$_Vector_val@U?$_Simple_types@N@std@@@std@@@std@@@std@@YA?A_TAAV?$_Vector_const_iterator@V?$_Vector_val@U?$_Simple_types@N@std@@@std@@@0@@Z
	??$_Get_unwrapped@AAV?$_Vector_const_iterator@V?$_Vector_val@U?$_Simple_types@PBUwhisper_grammar_element@@@std@@@std@@@std@@@std@@YA?A_TAAV?$_Vector_const_iterator@V?$_Vector_val@U?$_Simple_types@PBUwhisper_grammar_element@@@std@@@std@@@0@@Z
	??$_Get_unwrapped@AAV?$_Vector_const_iterator@V?$_Vector_val@U?$_Simple_types@Uvad_time_mapping@@@std@@@std@@@std@@@std@@YA?A_TAAV?$_Vector_const_iterator@V?$_Vector_val@U?$_Simple_types@Uvad_time_mapping@@@std@@@std@@@0@@Z
	??$_Get_unwrapped@AAV?$_Vector_iterator@V?$_Vector_val@U?$_Simple_types@H@std@@@std@@@std@@@std@@YA?A_TAAV?$_Vector_iterator@V?$_Vector_val@U?$_Simple_types@H@std@@@std@@@0@@Z
	??$_Get_unwrapped@AAV?$_Vector_iterator@V?$_Vector_val@U?$_Simple_types@M@std@@@std@@@std@@@std@@YA?A_TAAV?$_Vector_iterator@V?$_Vector_val@U?$_Simple_types@M@std@@@std@@@0@@Z
	??$_Get_unwrapped@AAV?$_Vector_iterator@V?$_Vector_val@U?$_Simple_types@U?$whisper_pair@NH@@@std@@@std@@@std@@@std@@YA?A_TAAV?$_Vector_iterator@V?$_Vector_val@U?$_Simple_types@U?$whisper_pair@NH@@@std@@@std@@@0@@Z
	??$_Get_unwrapped@AAV?$_Vector_iterator@V?$_Vector_val@U?$_Simple_types@Uvad_time_mapping@@@std@@@std@@@std@@@std@@YA?A_TAAV?$_Vector_iterator@V?$_Vector_val@U?$_Simple_types@Uvad_time_mapping@@@std@@@std@@@0@@Z
	??$_Get_unwrapped@AAV?$_Vector_iterator@V?$_Vector_val@U?$_Simple_types@Uwhisper_token_data@@@std@@@std@@@std@@@std@@YA?A_TAAV?$_Vector_iterator@V?$_Vector_val@U?$_Simple_types@Uwhisper_token_data@@@std@@@std@@@0@@Z
	??$_Get_unwrapped@ABQAD@std@@YA?A_TABQAD@Z
	??$_Get_unwrapped@ABQAE@std@@YA?A_TABQAE@Z
	??$_Get_unwrapped@ABQAH@std@@YA?A_TABQAH@Z
	??$_Get_unwrapped@ABQAI@std@@YA?A_TABQAI@Z
	??$_Get_unwrapped@ABQAM@std@@YA?A_TABQAM@Z
	??$_Get_unwrapped@ABQAN@std@@YA?A_TABQAN@Z
	??$_Get_unwrapped@ABQAPAUggml_backend@@@std@@YA?A_TABQAPAUggml_backend@@@Z
	??$_Get_unwrapped@ABQAPAUggml_backend_buffer@@@std@@YA?A_TABQAPAUggml_backend_buffer@@@Z
	??$_Get_unwrapped@ABQAPAUggml_context@@@std@@YA?A_TABQAPAUggml_context@@@Z
	??$_Get_unwrapped@ABQAPAUggml_tensor@@@std@@YA?A_TABQAPAUggml_tensor@@@Z
	??$_Get_unwrapped@ABQAPAUwhisper_state@@@std@@YA?A_TABQAPAUwhisper_state@@@Z
	??$_Get_unwrapped@ABQAPBUwhisper_grammar_element@@@std@@YA?A_TABQAPBUwhisper_grammar_element@@@Z
	??$_Get_unwrapped@ABQAU?$pair@PAUggml_backend_device@@PAUggml_backend_buffer_type@@@std@@@std@@YA?A_TABQAU?$pair@PAUggml_backend_device@@PAUggml_backend_buffer_type@@@0@@Z
	??$_Get_unwrapped@ABQAU?$pair@V?$vector@IV?$allocator@I@std@@@std@@Uwhisper_partial_utf8@@@std@@@std@@YA?A_TABQAU?$pair@V?$vector@IV?$allocator@I@std@@@std@@Uwhisper_partial_utf8@@@0@@Z
	??$_Get_unwrapped@ABQAU?$whisper_pair@NH@@@std@@YA?A_TABQAU?$whisper_pair@NH@@@Z
	??$_Get_unwrapped@ABQAU_Grp_t@?$_Tgt_state_t@PBD@std@@@std@@YA?A_TABQAU_Grp_t@?$_Tgt_state_t@PBD@0@@Z
	??$_Get_unwrapped@ABQAU_Grp_t@?$_Tgt_state_t@V?$_String_const_iterator@V?$_String_val@U?$_Simple_types@D@std@@@std@@@std@@@std@@@std@@YA?A_TABQAU_Grp_t@?$_Tgt_state_t@V?$_String_const_iterator@V?$_String_val@U?$_Simple_types@D@std@@@std@@@std@@@0@@Z
	??$_Get_unwrapped@ABQAU_Loop_vals_t@std@@@std@@YA?A_TABQAU_Loop_vals_t@0@@Z
	??$_Get_unwrapped@ABQAUvad_segment_info@whisper_state@@@std@@YA?A_TABQAUvad_segment_info@whisper_state@@@Z
	??$_Get_unwrapped@ABQAUvad_time_mapping@@@std@@YA?A_TABQAUvad_time_mapping@@@Z
	??$_Get_unwrapped@ABQAUwhisper_grammar_candidate@@@std@@YA?A_TABQAUwhisper_grammar_candidate@@@Z
	??$_Get_unwrapped@ABQAUwhisper_grammar_element@@@std@@YA?A_TABQAUwhisper_grammar_element@@@Z
	??$_Get_unwrapped@ABQAUwhisper_kv_cell@@@std@@YA?A_TABQAUwhisper_kv_cell@@@Z
	??$_Get_unwrapped@ABQAUwhisper_layer_decoder@@@std@@YA?A_TABQAUwhisper_layer_decoder@@@Z
	??$_Get_unwrapped@ABQAUwhisper_layer_encoder@@@std@@YA?A_TABQAUwhisper_layer_encoder@@@Z
	??$_Get_unwrapped@ABQAUwhisper_segment@@@std@@YA?A_TABQAUwhisper_segment@@@Z
	??$_Get_unwrapped@ABQAUwhisper_token_data@@@std@@YA?A_TABQAUwhisper_token_data@@@Z
	??$_Get_unwrapped@ABQAUwhisper_vad_segment@@@std@@YA?A_TABQAUwhisper_vad_segment@@@Z
	??$_Get_unwrapped@ABQAV?$basic_string@DU?$char_traits@D@std@@V?$allocator@D@2@@std@@@std@@YA?A_TABQAV?$basic_string@DU?$char_traits@D@std@@V?$allocator@D@2@@0@@Z
	??$_Get_unwrapped@ABQAV?$sub_match@PBD@std@@@std@@YA?A_TABQAV?$sub_match@PBD@0@@Z
	??$_Get_unwrapped@ABQAV?$sub_match@V?$_String_const_iterator@V?$_String_val@U?$_Simple_types@D@std@@@std@@@std@@@std@@@std@@YA?A_TABQAV?$sub_match@V?$_String_const_iterator@V?$_String_val@U?$_Simple_types@D@std@@@std@@@std@@@0@@Z
	??$_Get_unwrapped@ABQAV?$vector@PBUwhisper_grammar_element@@V?$allocator@PBUwhisper_grammar_element@@@std@@@std@@@std@@YA?A_TABQAV?$vector@PBUwhisper_grammar_element@@V?$allocator@PBUwhisper_grammar_element@@@std@@@0@@Z
	??$_Get_unwrapped@ABQAV?$vector@Uwhisper_grammar_element@@V?$allocator@Uwhisper_grammar_element@@@std@@@std@@@std@@YA?A_TABQAV?$vector@Uwhisper_grammar_element@@V?$allocator@Uwhisper_grammar_element@@@std@@@0@@Z
	??$_Get_unwrapped@ABQBD@std@@YA?A_TABQBD@Z
	??$_Get_unwrapped@ABQBH@std@@YA?A_TABQBH@Z
	??$_Get_unwrapped@ABQBI@std@@YA?A_TABQBI@Z
	??$_Get_unwrapped@ABQBM@std@@YA?A_TABQBM@Z
	??$_Get_unwrapped@ABQBQBUwhisper_grammar_element@@@std@@YA?A_TABQBQBUwhisper_grammar_element@@@Z
	??$_Get_unwrapped@ABQBV?$basic_string@DU?$char_traits@D@std@@V?$allocator@D@2@@std@@@std@@YA?A_TABQBV?$basic_string@DU?$char_traits@D@std@@V?$allocator@D@2@@0@@Z
	??$_Get_unwrapped@ABV?$_String_const_iterator@V?$_String_val@U?$_Simple_types@D@std@@@std@@@std@@@std@@YA?A_TABV?$_String_const_iterator@V?$_String_val@U?$_Simple_types@D@std@@@std@@@0@@Z
	??$_Get_unwrapped@ABV?$_Vector_const_iterator@V?$_Vector_val@U?$_Simple_types@N@std@@@std@@@std@@@std@@YA?A_TABV?$_Vector_const_iterator@V?$_Vector_val@U?$_Simple_types@N@std@@@std@@@0@@Z
	??$_Get_unwrapped@ABV?$_Vector_const_iterator@V?$_Vector_val@U?$_Simple_types@Uvad_time_mapping@@@std@@@std@@@std@@@std@@YA?A_TABV?$_Vector_const_iterator@V?$_Vector_val@U?$_Simple_types@Uvad_time_mapping@@@std@@@std@@@0@@Z
	??$_Get_unwrapped@ABV?$_Vector_iterator@V?$_Vector_val@U?$_Simple_types@M@std@@@std@@@std@@@std@@YA?A_TABV?$_Vector_iterator@V?$_Vector_val@U?$_Simple_types@M@std@@@std@@@0@@Z
	??$_Get_unwrapped@ABV?$_Vector_iterator@V?$_Vector_val@U?$_Simple_types@U?$whisper_pair@NH@@@std@@@std@@@std@@@std@@YA?A_TABV?$_Vector_iterator@V?$_Vector_val@U?$_Simple_types@U?$whisper_pair@NH@@@std@@@std@@@0@@Z
	??$_Get_unwrapped@ABV?$_Vector_iterator@V?$_Vector_val@U?$_Simple_types@Uvad_time_mapping@@@std@@@std@@@std@@@std@@YA?A_TABV?$_Vector_iterator@V?$_Vector_val@U?$_Simple_types@Uvad_time_mapping@@@std@@@std@@@0@@Z
	??$_Get_unwrapped_n@AAV?$_Vb_iterator@U?$_Wrap_alloc@V?$allocator@I@std@@@std@@@std@@H@std@@YA?A_TAAV?$_Vb_iterator@U?$_Wrap_alloc@V?$allocator@I@std@@@std@@@0@H@Z
	??$_Get_unwrapped_n@AAV?$_Vector_iterator@V?$_Vector_val@U?$_Simple_types@M@std@@@std@@@std@@H@std@@YA?A_TAAV?$_Vector_iterator@V?$_Vector_val@U?$_Simple_types@M@std@@@std@@@0@H@Z
	??$_Get_unwrapped_n@ABQBDH@std@@YA?A_TABQBDH@Z
	??$_Getvals@_W@?$time_get@DV?$istreambuf_iterator@DU?$char_traits@D@std@@@std@@@std@@IAEX_WABV_Locinfo@1@@Z
	??$_Getvals@_W@?$time_get@_WV?$istreambuf_iterator@_WU?$char_traits@_W@std@@@std@@@std@@IAEX_WABV_Locinfo@1@@Z
	??$_Guess_median_unchecked@PAMU?$less@X@std@@@std@@YAXPAM00U?$less@X@0@@Z
	??$_Hash_array_representation@D@std@@YAIQBDI@Z
	??$_Idl_distance@PBDPBD@std@@YA?A_PABQBD0@Z
	??$_Idl_distance@PBMPBM@std@@YA?A_PABQBM0@Z
	??$_Idl_distance@V?$_Vb_iterator@U?$_Wrap_alloc@V?$allocator@I@std@@@std@@@std@@V12@@std@@YA?A_PABV?$_Vb_iterator@U?$_Wrap_alloc@V?$allocator@I@std@@@std@@@0@0@Z
	??$_Idl_distance@V?$_Vector_iterator@V?$_Vector_val@U?$_Simple_types@M@std@@@std@@@std@@PAM@std@@YA?A_PABQAM0@Z
	??$_Insert@PBD@?$_Buf@D@std@@QAEXPBD0@Z
	??$_Insert_range@PAH@?$vector@HV?$allocator@H@std@@@std@@AAEXV?$_Vector_const_iterator@V?$_Vector_val@U?$_Simple_types@H@std@@@std@@@1@PAH1Uforward_iterator_tag@1@@Z
	??$_Insert_range@PAUwhisper_token_data@@@?$vector@Uwhisper_token_data@@V?$allocator@Uwhisper_token_data@@@std@@@std@@AAEXV?$_Vector_const_iterator@V?$_Vector_val@U?$_Simple_types@Uwhisper_token_data@@@std@@@std@@@1@PAUwhisper_token_data@@1Uforward_iterator_tag@1@@Z
	??$_Insertion_sort_unchecked@PAMU?$less@X@std@@@std@@YAPAMQAM0U?$less@X@0@@Z
	??$_Integral_to_string@DH@std@@YA?AV?$basic_string@DU?$char_traits@D@std@@V?$allocator@D@2@@0@H@Z
	??$_Invoke@V?$tuple@P6AHPAUwhisper_context@@PAUwhisper_state@@Uwhisper_full_params@@PBMH@ZPAU1@PAU2@U3@PBMH@std@@$0A@$00$01$02$03$04@thread@std@@CGIPAX@Z
	??$_Invoke@V?$tuple@P6AXHPBMABV?$vector@MV?$allocator@M@std@@@std@@HHHHABUwhisper_filters@@AAUwhisper_mel@@@ZHPBMV?$reference_wrapper@$$CBV?$vector@MV?$allocator@M@std@@@std@@@2@_JHHHV?$reference_wrapper@$$CBUwhisper_filters@@@2@V?$reference_wrapper@Uwhisper_mel@@@2@@std@@$0A@$00$01$02$03$04$05$06$07$08@thread@std@@CGIPAX@Z
	??$_Is_all_bits_zero@H@std@@YA_NABH@Z
	??$_Is_all_bits_zero@I@std@@YA_NABI@Z
	??$_Is_all_bits_zero@M@std@@YA_NABM@Z
	??$_Is_all_bits_zero@N@std@@YA_NABN@Z
	??$_Kfn@$$CBHH@?$_Tmap_traits@HHU?$less@H@std@@V?$allocator@U?$pair@$$CBHH@std@@@2@$0A@@std@@SAABHABU?$pair@$$CBHH@1@@Z
	??$_Kfn@$$CBHV?$basic_string@DU?$char_traits@D@std@@V?$allocator@D@2@@std@@@?$_Tmap_traits@HV?$basic_string@DU?$char_traits@D@std@@V?$allocator@D@2@@std@@U?$less@H@2@V?$allocator@U?$pair@$$CBHV?$basic_string@DU?$char_traits@D@std@@V?$allocator@D@2@@std@@@std@@@2@$0A@@std@@SAABHABU?$pair@$$CBHV?$basic_string@DU?$char_traits@D@std@@V?$allocator@D@2@@std@@@1@@Z
	??$_Kfn@$$CBV?$basic_string@DU?$char_traits@D@std@@V?$allocator@D@2@@std@@H@?$_Tmap_traits@V?$basic_string@DU?$char_traits@D@std@@V?$allocator@D@2@@std@@HU?$less@V?$basic_string@DU?$char_traits@D@std@@V?$allocator@D@2@@std@@@2@V?$allocator@U?$pair@$$CBV?$basic_string@DU?$char_traits@D@std@@V?$allocator@D@2@@std@@H@std@@@2@$0A@@std@@SAABV?$basic_string@DU?$char_traits@D@std@@V?$allocator@D@2@@1@ABU?$pair@$$CBV?$basic_string@DU?$char_traits@D@std@@V?$allocator@D@2@@std@@H@1@@Z
	??$_Kfn@$$CBV?$basic_string@DU?$char_traits@D@std@@V?$allocator@D@2@@std@@PAUggml_tensor@@@?$_Tmap_traits@V?$basic_string@DU?$char_traits@D@std@@V?$allocator@D@2@@std@@PAUggml_tensor@@U?$less@V?$basic_string@DU?$char_traits@D@std@@V?$allocator@D@2@@std@@@2@V?$allocator@U?$pair@$$CBV?$basic_string@DU?$char_traits@D@std@@V?$allocator@D@2@@std@@PAUggml_tensor@@@std@@@2@$0A@@std@@SAABV?$basic_string@DU?$char_traits@D@std@@V?$allocator@D@2@@1@ABU?$pair@$$CBV?$basic_string@DU?$char_traits@D@std@@V?$allocator@D@2@@std@@PAUggml_tensor@@@1@@Z
	??$_Kfn@$$CBV?$basic_string@DU?$char_traits@D@std@@V?$allocator@D@2@@std@@U?$pair@HV?$basic_string@DU?$char_traits@D@std@@V?$allocator@D@2@@std@@@2@@?$_Tmap_traits@V?$basic_string@DU?$char_traits@D@std@@V?$allocator@D@2@@std@@U?$pair@HV?$basic_string@DU?$char_traits@D@std@@V?$allocator@D@2@@std@@@2@U?$less@V?$basic_string@DU?$char_traits@D@std@@V?$allocator@D@2@@std@@@2@V?$allocator@U?$pair@$$CBV?$basic_string@DU?$char_traits@D@std@@V?$allocator@D@2@@std@@U?$pair@HV?$basic_string@DU?$char_traits@D@std@@V?$allocator@D@2@@std@@@2@@std@@@2@$0A@@std@@SAABV?$basic_string@DU?$char_traits@D@std@@V?$allocator@D@2@@1@ABU?$pair@$$CBV?$basic_string@DU?$char_traits@D@std@@V?$allocator@D@2@@std@@U?$pair@HV?$basic_string@DU?$char_traits@D@std@@V?$allocator@D@2@@std@@@2@@1@@Z
	??$_Kfn@$$CBW4asr_system@@V?$map@W4asr_tensor@@PBDU?$less@W4asr_tensor@@@std@@V?$allocator@U?$pair@$$CBW4asr_tensor@@PBD@std@@@3@@std@@@?$_Tmap_traits@W4asr_system@@V?$map@W4asr_tensor@@PBDU?$less@W4asr_tensor@@@std@@V?$allocator@U?$pair@$$CBW4asr_tensor@@PBD@std@@@3@@std@@U?$less@W4asr_system@@@3@V?$allocator@U?$pair@$$CBW4asr_system@@V?$map@W4asr_tensor@@PBDU?$less@W4asr_tensor@@@std@@V?$allocator@U?$pair@$$CBW4asr_tensor@@PBD@std@@@3@@std@@@std@@@3@$0A@@std@@SAABW4asr_system@@ABU?$pair@$$CBW4asr_system@@V?$map@W4asr_tensor@@PBDU?$less@W4asr_tensor@@@std@@V?$allocator@U?$pair@$$CBW4asr_tensor@@PBD@std@@@3@@std@@@1@@Z
	??$_Kfn@$$CBW4asr_tensor@@PBD@?$_Tmap_traits@W4asr_tensor@@PBDU?$less@W4asr_tensor@@@std@@V?$allocator@U?$pair@$$CBW4asr_tensor@@PBD@std@@@3@$0A@@std@@SAABW4asr_tensor@@ABU?$pair@$$CBW4asr_tensor@@PBD@1@@Z
	??$_Kfn@$$CBW4asr_tensor@@W4ggml_op@@@?$_Tmap_traits@W4asr_tensor@@W4ggml_op@@U?$less@W4asr_tensor@@@std@@V?$allocator@U?$pair@$$CBW4asr_tensor@@W4ggml_op@@@std@@@4@$0A@@std@@SAABW4asr_tensor@@ABU?$pair@$$CBW4asr_tensor@@W4ggml_op@@@1@@Z
	??$_Kfn@$$CBW4e_model@@V?$basic_string@DU?$char_traits@D@std@@V?$allocator@D@2@@std@@@?$_Tmap_traits@W4e_model@@V?$basic_string@DU?$char_traits@D@std@@V?$allocator@D@2@@std@@U?$less@W4e_model@@@3@V?$allocator@U?$pair@$$CBW4e_model@@V?$basic_string@DU?$char_traits@D@std@@V?$allocator@D@2@@std@@@std@@@3@$0A@@std@@SAABW4e_model@@ABU?$pair@$$CBW4e_model@@V?$basic_string@DU?$char_traits@D@std@@V?$allocator@D@2@@std@@@1@@Z
	??$_Kfn@$$CBW4vad_tensor@@PBD@?$_Tmap_traits@W4vad_tensor@@PBDU?$less@W4vad_tensor@@@std@@V?$allocator@U?$pair@$$CBW4vad_tensor@@PBD@std@@@3@$0A@@std@@SAABW4vad_tensor@@ABU?$pair@$$CBW4vad_tensor@@PBD@1@@Z
	??$_Kfn@$$CBW4vad_tensor@@W4ggml_op@@@?$_Tmap_traits@W4vad_tensor@@W4ggml_op@@U?$less@W4vad_tensor@@@std@@V?$allocator@U?$pair@$$CBW4vad_tensor@@W4ggml_op@@@std@@@4@$0A@@std@@SAABW4vad_tensor@@ABU?$pair@$$CBW4vad_tensor@@W4ggml_op@@@1@@Z
	??$_Kfn@$$CBW4whisper_alignment_heads_preset@@Uwhisper_aheads@@@?$_Tmap_traits@W4whisper_alignment_heads_preset@@Uwhisper_aheads@@U?$less@W4whisper_alignment_heads_preset@@@std@@V?$allocator@U?$pair@$$CBW4whisper_alignment_heads_preset@@Uwhisper_aheads@@@std@@@4@$0A@@std@@SAABW4whisper_alignment_heads_preset@@ABU?$pair@$$CBW4whisper_alignment_heads_preset@@Uwhisper_aheads@@@1@@Z
	??$_Kfn@QAUggml_backend_buffer_type@@PAUggml_context@@@?$_Tmap_traits@PAUggml_backend_buffer_type@@PAUggml_context@@U?$less@PAUggml_backend_buffer_type@@@std@@V?$allocator@U?$pair@QAUggml_backend_buffer_type@@PAUggml_context@@@std@@@4@$0A@@std@@SAABQAUggml_backend_buffer_type@@ABU?$pair@QAUggml_backend_buffer_type@@PAUggml_context@@@1@@Z
	??$_LStrcoll@D@std@@YAHPBD000PBU_Collvec@@@Z
	??$_LStrxfrm@D@std@@YAIPAD0PBD1PBU_Collvec@@@Z
	??$_Lookup_coll@PBDD@std@@YAPBDPBD0PBU?$_Sequence@D@0@@Z
	??$_Lookup_coll@V?$_String_const_iterator@V?$_String_val@U?$_Simple_types@D@std@@@std@@@std@@D@std@@YA?AV?$_String_const_iterator@V?$_String_val@U?$_Simple_types@D@std@@@std@@@0@V10@0PBU?$_Sequence@D@0@@Z
	??$_Lookup_equiv@DV?$regex_traits@D@std@@@std@@YA_NEPBU?$_Sequence@D@0@ABV?$regex_traits@D@0@@Z
	??$_Lookup_range@D@std@@YA_NIPBU?$_Buf@D@0@@Z
	??$_Lower_bound_duplicate@H@?$_Tree@V?$_Tmap_traits@HHU?$less@H@std@@V?$allocator@U?$pair@$$CBHH@std@@@2@$0A@@std@@@std@@IBE_NQAU?$_Tree_node@U?$pair@$$CBHH@std@@PAX@1@ABH@Z
	??$_Lower_bound_duplicate@H@?$_Tree@V?$_Tmap_traits@HV?$basic_string@DU?$char_traits@D@std@@V?$allocator@D@2@@std@@U?$less@H@2@V?$allocator@U?$pair@$$CBHV?$basic_string@DU?$char_traits@D@std@@V?$allocator@D@2@@std@@@std@@@2@$0A@@std@@@std@@IBE_NQAU?$_Tree_node@U?$pair@$$CBHV?$basic_string@DU?$char_traits@D@std@@V?$allocator@D@2@@std@@@std@@PAX@1@ABH@Z
	??$_Lower_bound_duplicate@H@?$_Tree@V?$_Tset_traits@HU?$less@H@std@@V?$allocator@H@2@$0A@@std@@@std@@IBE_NQAU?$_Tree_node@HPAX@1@ABH@Z
	??$_Lower_bound_duplicate@PAUggml_backend_buffer_type@@@?$_Tree@V?$_Tmap_traits@PAUggml_backend_buffer_type@@PAUggml_context@@U?$less@PAUggml_backend_buffer_type@@@std@@V?$allocator@U?$pair@QAUggml_backend_buffer_type@@PAUggml_context@@@std@@@4@$0A@@std@@@std@@IBE_NQAU?$_Tree_node@U?$pair@QAUggml_backend_buffer_type@@PAUggml_context@@@std@@PAX@1@ABQAUggml_backend_buffer_type@@@Z
	??$_Lower_bound_duplicate@V?$basic_string@DU?$char_traits@D@std@@V?$allocator@D@2@@std@@@?$_Tree@V?$_Tmap_traits@V?$basic_string@DU?$char_traits@D@std@@V?$allocator@D@2@@std@@HU?$less@V?$basic_string@DU?$char_traits@D@std@@V?$allocator@D@2@@std@@@2@V?$allocator@U?$pair@$$CBV?$basic_string@DU?$char_traits@D@std@@V?$allocator@D@2@@std@@H@std@@@2@$0A@@std@@@std@@IBE_NQAU?$_Tree_node@U?$pair@$$CBV?$basic_string@DU?$char_traits@D@std@@V?$allocator@D@2@@std@@H@std@@PAX@1@ABV?$basic_string@DU?$char_traits@D@std@@V?$allocator@D@2@@1@@Z
	??$_Lower_bound_duplicate@V?$basic_string@DU?$char_traits@D@std@@V?$allocator@D@2@@std@@@?$_Tree@V?$_Tmap_traits@V?$basic_string@DU?$char_traits@D@std@@V?$allocator@D@2@@std@@PAUggml_tensor@@U?$less@V?$basic_string@DU?$char_traits@D@std@@V?$allocator@D@2@@std@@@2@V?$allocator@U?$pair@$$CBV?$basic_string@DU?$char_traits@D@std@@V?$allocator@D@2@@std@@PAUggml_tensor@@@std@@@2@$0A@@std@@@std@@IBE_NQAU?$_Tree_node@U?$pair@$$CBV?$basic_string@DU?$char_traits@D@std@@V?$allocator@D@2@@std@@PAUggml_tensor@@@std@@PAX@1@ABV?$basic_string@DU?$char_traits@D@std@@V?$allocator@D@2@@1@@Z
	??$_Lower_bound_duplicate@V?$basic_string@DU?$char_traits@D@std@@V?$allocator@D@2@@std@@@?$_Tree@V?$_Tmap_traits@V?$basic_string@DU?$char_traits@D@std@@V?$allocator@D@2@@std@@U?$pair@HV?$basic_string@DU?$char_traits@D@std@@V?$allocator@D@2@@std@@@2@U?$less@V?$basic_string@DU?$char_traits@D@std@@V?$allocator@D@2@@std@@@2@V?$allocator@U?$pair@$$CBV?$basic_string@DU?$char_traits@D@std@@V?$allocator@D@2@@std@@U?$pair@HV?$basic_string@DU?$char_traits@D@std@@V?$allocator@D@2@@std@@@2@@std@@@2@$0A@@std@@@std@@IBE_NQAU?$_Tree_node@U?$pair@$$CBV?$basic_string@DU?$char_traits@D@std@@V?$allocator@D@2@@std@@U?$pair@HV?$basic_string@DU?$char_traits@D@std@@V?$allocator@D@2@@std@@@2@@std@@PAX@1@ABV?$basic_string@DU?$char_traits@D@std@@V?$allocator@D@2@@1@@Z
	??$_Lower_bound_duplicate@W4asr_system@@@?$_Tree@V?$_Tmap_traits@W4asr_system@@V?$map@W4asr_tensor@@PBDU?$less@W4asr_tensor@@@std@@V?$allocator@U?$pair@$$CBW4asr_tensor@@PBD@std@@@3@@std@@U?$less@W4asr_system@@@3@V?$allocator@U?$pair@$$CBW4asr_system@@V?$map@W4asr_tensor@@PBDU?$less@W4asr_tensor@@@std@@V?$allocator@U?$pair@$$CBW4asr_tensor@@PBD@std@@@3@@std@@@std@@@3@$0A@@std@@@std@@IBE_NQAU?$_Tree_node@U?$pair@$$CBW4asr_system@@V?$map@W4asr_tensor@@PBDU?$less@W4asr_tensor@@@std@@V?$allocator@U?$pair@$$CBW4asr_tensor@@PBD@std@@@3@@std@@@std@@PAX@1@ABW4asr_system@@@Z
	??$_Lower_bound_duplicate@W4asr_tensor@@@?$_Tree@V?$_Tmap_traits@W4asr_tensor@@PBDU?$less@W4asr_tensor@@@std@@V?$allocator@U?$pair@$$CBW4asr_tensor@@PBD@std@@@3@$0A@@std@@@std@@IBE_NQAU?$_Tree_node@U?$pair@$$CBW4asr_tensor@@PBD@std@@PAX@1@ABW4asr_tensor@@@Z
	??$_Lower_bound_duplicate@W4asr_tensor@@@?$_Tree@V?$_Tmap_traits@W4asr_tensor@@W4ggml_op@@U?$less@W4asr_tensor@@@std@@V?$allocator@U?$pair@$$CBW4asr_tensor@@W4ggml_op@@@std@@@4@$0A@@std@@@std@@IBE_NQAU?$_Tree_node@U?$pair@$$CBW4asr_tensor@@W4ggml_op@@@std@@PAX@1@ABW4asr_tensor@@@Z
	??$_Lower_bound_duplicate@W4e_model@@@?$_Tree@V?$_Tmap_traits@W4e_model@@V?$basic_string@DU?$char_traits@D@std@@V?$allocator@D@2@@std@@U?$less@W4e_model@@@3@V?$allocator@U?$pair@$$CBW4e_model@@V?$basic_string@DU?$char_traits@D@std@@V?$allocator@D@2@@std@@@std@@@3@$0A@@std@@@std@@IBE_NQAU?$_Tree_node@U?$pair@$$CBW4e_model@@V?$basic_string@DU?$char_traits@D@std@@V?$allocator@D@2@@std@@@std@@PAX@1@ABW4e_model@@@Z
	??$_Lower_bound_duplicate@W4vad_tensor@@@?$_Tree@V?$_Tmap_traits@W4vad_tensor@@PBDU?$less@W4vad_tensor@@@std@@V?$allocator@U?$pair@$$CBW4vad_tensor@@PBD@std@@@3@$0A@@std@@@std@@IBE_NQAU?$_Tree_node@U?$pair@$$CBW4vad_tensor@@PBD@std@@PAX@1@ABW4vad_tensor@@@Z
	??$_Lower_bound_duplicate@W4vad_tensor@@@?$_Tree@V?$_Tmap_traits@W4vad_tensor@@W4ggml_op@@U?$less@W4vad_tensor@@@std@@V?$allocator@U?$pair@$$CBW4vad_tensor@@W4ggml_op@@@std@@@4@$0A@@std@@@std@@IBE_NQAU?$_Tree_node@U?$pair@$$CBW4vad_tensor@@W4ggml_op@@@std@@PAX@1@ABW4vad_tensor@@@Z
	??$_Lower_bound_duplicate@W4whisper_alignment_heads_preset@@@?$_Tree@V?$_Tmap_traits@W4whisper_alignment_heads_preset@@Uwhisper_aheads@@U?$less@W4whisper_alignment_heads_preset@@@std@@V?$allocator@U?$pair@$$CBW4whisper_alignment_heads_preset@@Uwhisper_aheads@@@std@@@4@$0A@@std@@@std@@IBE_NQAU?$_Tree_node@U?$pair@$$CBW4whisper_alignment_heads_preset@@Uwhisper_aheads@@@std@@PAX@1@ABW4whisper_alignment_heads_preset@@@Z
	??$_Make_heap_unchecked@PAMU?$less@X@std@@@std@@YAXPAM0U?$less@X@0@@Z
	??$_Maklocstr@D@std@@YAPADPBDPADABU_Cvtvec@@@Z
	??$_Maklocstr@_W@std@@YAPA_WPBDPA_WABU_Cvtvec@@@Z
	??$_Mark@E@_Bitmap@std@@QAEXE@Z
	??$_Mark@I@_Bitmap@std@@QAEXI@Z
	??$_Match@V?$allocator@V?$sub_match@PBD@std@@@std@@@?$_Matcher@PBDDV?$regex_traits@D@std@@PBD@std@@QAE_NPAV?$match_results@PBDV?$allocator@V?$sub_match@PBD@std@@@std@@@1@_N@Z
	??$_Match@V?$allocator@V?$sub_match@V?$_String_const_iterator@V?$_String_val@U?$_Simple_types@D@std@@@std@@@std@@@std@@@std@@@?$_Matcher@V?$_String_const_iterator@V?$_String_val@U?$_Simple_types@D@std@@@std@@@std@@DV?$regex_traits@D@2@V12@@std@@QAE_NPAV?$match_results@V?$_String_const_iterator@V?$_String_val@U?$_Simple_types@D@std@@@std@@@std@@V?$allocator@V?$sub_match@V?$_String_const_iterator@V?$_String_val@U?$_Simple_types@D@std@@@std@@@std@@@std@@@2@@1@_N@Z
	??$_Match@V?$allocator@V?$sub_match@V?$_String_const_iterator@V?$_String_val@U?$_Simple_types@D@std@@@std@@@std@@@std@@@std@@@?$_Matcher@V?$_String_const_iterator@V?$_String_val@U?$_Simple_types@D@std@@@std@@@std@@DV?$regex_traits@D@2@V12@@std@@QAE_NV?$_String_const_iterator@V?$_String_val@U?$_Simple_types@D@std@@@std@@@1@PAV?$match_results@V?$_String_const_iterator@V?$_String_val@U?$_Simple_types@D@std@@@std@@@std@@V?$allocator@V?$sub_match@V?$_String_const_iterator@V?$_String_val@U?$_Simple_types@D@std@@@std@@@std@@@std@@@2@@1@_N@Z
	??$_Max_element_unchecked@PAMU?$less@X@std@@@std@@YAPAMPAM0U?$less@X@0@@Z
	??$_Max_element_unchecked@PBMU?$less@X@std@@@std@@YAPBMPBM0U?$less@X@0@@Z
	??$_Med3_unchecked@PAMU?$less@X@std@@@std@@YAXPAM00U?$less@X@0@@Z
	??$_Move_backward_unchecked@PAHPAH@std@@YAPAHPAH00@Z
	??$_Move_backward_unchecked@PAMPAM@std@@YAPAMPAM00@Z
	??$_Move_backward_unchecked@PAU?$whisper_pair@NH@@PAU1@@std@@YAPAU?$whisper_pair@NH@@PAU1@00@Z
	??$_Move_backward_unchecked@PAUvad_time_mapping@@PAU1@@std@@YAPAUvad_time_mapping@@PAU1@00@Z
	??$_Move_backward_unchecked@PAUwhisper_token_data@@PAU1@@std@@YAPAUwhisper_token_data@@PAU1@00@Z
	??$_Move_unchecked@PAHPAH@std@@YAPAHPAH00@Z
	??$_Move_unchecked@PAIPAI@std@@YAPAIPAI00@Z
	??$_Move_unchecked@PAUvad_time_mapping@@PAU1@@std@@YAPAUvad_time_mapping@@PAU1@00@Z
	??$_Move_unchecked@PAUwhisper_token_data@@PAU1@@std@@YAPAUwhisper_token_data@@PAU1@00@Z
	??$_Next_iter@PAM@std@@YAPAMPAM@Z
	??$_Next_iter@PAU?$whisper_pair@NH@@@std@@YAPAU?$whisper_pair@NH@@PAU1@@Z
	??$_Next_iter@PAUvad_time_mapping@@@std@@YAPAUvad_time_mapping@@PAU1@@Z
	??$_Next_iter@PBN@std@@YAPBNPBN@Z
	??$_Next_iter@PBUvad_time_mapping@@@std@@YAPBUvad_time_mapping@@PBU1@@Z
	??$_Partition_by_median_guess_unchecked@PAMU?$less@X@std@@@std@@YA?AU?$pair@PAMPAM@0@PAM0U?$less@X@0@@Z
	??$_Pass_fn@U?$_Cmp_icase@V?$_Regex_traits@D@std@@@std@@$0A@@std@@YA?AU?$_Cmp_icase@V?$_Regex_traits@D@std@@@0@U10@@Z
	??$_Pass_fn@U?$less@X@std@@$0A@@std@@YA?AU?$less@X@0@U10@@Z
	??$_Pocca@V?$allocator@D@std@@@std@@YAXAAV?$allocator@D@0@ABV10@@Z
	??$_Pocca@V?$allocator@I@std@@@std@@YAXAAV?$allocator@I@0@ABV10@@Z
	??$_Pocca@V?$allocator@PBUwhisper_grammar_element@@@std@@@std@@YAXAAV?$allocator@PBUwhisper_grammar_element@@@0@ABV10@@Z
	??$_Pocca@V?$allocator@U_Grp_t@?$_Tgt_state_t@PBD@std@@@std@@@std@@YAXAAV?$allocator@U_Grp_t@?$_Tgt_state_t@PBD@std@@@0@ABV10@@Z
	??$_Pocca@V?$allocator@U_Grp_t@?$_Tgt_state_t@V?$_String_const_iterator@V?$_String_val@U?$_Simple_types@D@std@@@std@@@std@@@std@@@std@@@std@@YAXAAV?$allocator@U_Grp_t@?$_Tgt_state_t@V?$_String_const_iterator@V?$_String_val@U?$_Simple_types@D@std@@@std@@@std@@@std@@@0@ABV10@@Z
	??$_Pocca@V?$allocator@Uwhisper_grammar_element@@@std@@@std@@YAXAAV?$allocator@Uwhisper_grammar_element@@@0@ABV10@@Z
	??$_Pocca@V?$allocator@Uwhisper_token_data@@@std@@@std@@YAXAAV?$allocator@Uwhisper_token_data@@@0@ABV10@@Z
	??$_Pocca@V?$allocator@V?$vector@PBUwhisper_grammar_element@@V?$allocator@PBUwhisper_grammar_element@@@std@@@std@@@std@@@std@@YAXAAV?$allocator@V?$vector@PBUwhisper_grammar_element@@V?$allocator@PBUwhisper_grammar_element@@@std@@@std@@@0@ABV10@@Z
	??$_Pocca@V?$allocator@V?$vector@Uwhisper_grammar_element@@V?$allocator@Uwhisper_grammar_element@@@std@@@std@@@std@@@std@@YAXAAV?$allocator@V?$vector@Uwhisper_grammar_element@@V?$allocator@Uwhisper_grammar_element@@@std@@@std@@@0@ABV10@@Z
	??$_Pocma@V?$allocator@D@std@@@std@@YAXAAV?$allocator@D@0@0@Z
	??$_Pocma@V?$allocator@M@std@@@std@@YAXAAV?$allocator@M@0@0@Z
	??$_Pocma@V?$allocator@PAUggml_backend@@@std@@@std@@YAXAAV?$allocator@PAUggml_backend@@@0@0@Z
	??$_Pocma@V?$allocator@Uwhisper_grammar_candidate@@@std@@@std@@YAXAAV?$allocator@Uwhisper_grammar_candidate@@@0@0@Z
	??$_Pocma@V?$allocator@Uwhisper_token_data@@@std@@@std@@YAXAAV?$allocator@Uwhisper_token_data@@@0@0@Z
	??$_Pocma@V?$allocator@Uwhisper_vad_segment@@@std@@@std@@YAXAAV?$allocator@Uwhisper_vad_segment@@@0@0@Z
	??$_Pocma@V?$allocator@V?$vector@PBUwhisper_grammar_element@@V?$allocator@PBUwhisper_grammar_element@@@std@@@std@@@std@@@std@@YAXAAV?$allocator@V?$vector@PBUwhisper_grammar_element@@V?$allocator@PBUwhisper_grammar_element@@@std@@@std@@@0@0@Z
	??$_Pocma@V?$allocator@V?$vector@Uwhisper_grammar_element@@V?$allocator@Uwhisper_grammar_element@@@std@@@std@@@std@@@std@@YAXAAV?$allocator@V?$vector@Uwhisper_grammar_element@@V?$allocator@Uwhisper_grammar_element@@@std@@@std@@@0@0@Z
	??$_Pop_heap_hole_by_index@PAMMU?$less@X@std@@@std@@YAXPAMHH$$QAMU?$less@X@0@@Z
	??$_Pop_heap_hole_unchecked@PAMMU?$less@X@std@@@std@@YAXPAM00$$QAMU?$less@X@0@@Z
	??$_Pop_heap_unchecked@PAMU?$less@X@std@@@std@@YAXPAM0U?$less@X@0@@Z
	??$_Prev_iter@PAM@std@@YAPAMPAM@Z
	??$_Prev_iter@PAU?$whisper_pair@NH@@@std@@YAPAU?$whisper_pair@NH@@PAU1@@Z
	??$_Prev_iter@PAUvad_time_mapping@@@std@@YAPAUvad_time_mapping@@PAU1@@Z
	??$_Prev_iter@PBD@std@@YAPBDPBD@Z
	??$_Prev_iter@V?$_String_const_iterator@V?$_String_val@U?$_Simple_types@D@std@@@std@@@std@@@std@@YA?AV?$_String_const_iterator@V?$_String_val@U?$_Simple_types@D@std@@@std@@@0@V10@@Z
	??$_Prev_iter@V?$_Vector_const_iterator@V?$_Vector_val@U?$_Simple_types@N@std@@@std@@@std@@@std@@YA?AV?$_Vector_const_iterator@V?$_Vector_val@U?$_Simple_types@N@std@@@std@@@0@V10@@Z
	??$_Push_heap_by_index@PAMMU?$less@X@std@@@std@@YAXPAMHH$$QAMU?$less@X@0@@Z
	??$_Range_construct_or_tidy@PAD@?$vector@DV?$allocator@D@std@@@std@@AAEXPAD0Uforward_iterator_tag@1@@Z
	??$_Range_construct_or_tidy@PBD@?$vector@DV?$allocator@D@std@@@std@@AAEXPBD0Uforward_iterator_tag@1@@Z
	??$_Range_construct_or_tidy@PBH@?$vector@HV?$allocator@H@std@@@std@@AAEXPBH0Uforward_iterator_tag@1@@Z
	??$_Range_construct_or_tidy@PBI@?$vector@IV?$allocator@I@std@@@std@@AAEXPBI0Uforward_iterator_tag@1@@Z
	??$_Range_construct_or_tidy@PBM@?$vector@NV?$allocator@N@std@@@std@@AAEXPBM0Uforward_iterator_tag@1@@Z
	??$_Range_construct_or_tidy@PBQBUwhisper_grammar_element@@@?$vector@PBUwhisper_grammar_element@@V?$allocator@PBUwhisper_grammar_element@@@std@@@std@@AAEXPBQBUwhisper_grammar_element@@0Uforward_iterator_tag@1@@Z
	??$_Range_construct_or_tidy@PBV?$basic_string@DU?$char_traits@D@std@@V?$allocator@D@2@@std@@@?$vector@V?$basic_string@DU?$char_traits@D@std@@V?$allocator@D@2@@std@@V?$allocator@V?$basic_string@DU?$char_traits@D@std@@V?$allocator@D@2@@std@@@2@@std@@AAEXPBV?$basic_string@DU?$char_traits@D@std@@V?$allocator@D@2@@1@0Uforward_iterator_tag@1@@Z
	??$_Reallocate_for@V<lambda_1>@?1??assign@?$basic_string@DU?$char_traits@D@std@@V?$allocator@D@2@@std@@QAEAAV34@QBDI@Z@PBD@?$basic_string@DU?$char_traits@D@std@@V?$allocator@D@2@@std@@AAEAAV01@IV<lambda_1>@?1??assign@01@QAEAAV01@QBDI@Z@PBD@Z
	??$_Reallocate_grow_by@V<lambda_1>@?1??append@?$basic_string@DU?$char_traits@D@std@@V?$allocator@D@2@@std@@QAEAAV34@ID@Z@ID@?$basic_string@DU?$char_traits@D@std@@V?$allocator@D@2@@std@@AAEAAV01@IV<lambda_1>@?1??append@01@QAEAAV01@ID@Z@ID@Z
	??$_Reallocate_grow_by@V<lambda_1>@?1??append@?$basic_string@DU?$char_traits@D@std@@V?$allocator@D@2@@std@@QAEAAV34@QBDI@Z@PBDI@?$basic_string@DU?$char_traits@D@std@@V?$allocator@D@2@@std@@AAEAAV01@IV<lambda_1>@?1??append@01@QAEAAV01@QBDI@Z@PBDI@Z
	??$_Reallocate_grow_by@V<lambda_1>@?1??append@?$basic_string@_WU?$char_traits@_W@std@@V?$allocator@_W@2@@std@@QAEAAV34@I_W@Z@I_W@?$basic_string@_WU?$char_traits@_W@std@@V?$allocator@_W@2@@std@@AAEAAV01@IV<lambda_1>@?1??append@01@QAEAAV01@I_W@Z@I_W@Z
	??$_Reallocate_grow_by@V<lambda_1>@?1??append@?$basic_string@_WU?$char_traits@_W@std@@V?$allocator@_W@2@@std@@QAEAAV34@QB_WI@Z@PB_WI@?$basic_string@_WU?$char_traits@_W@std@@V?$allocator@_W@2@@std@@AAEAAV01@IV<lambda_1>@?1??append@01@QAEAAV01@QB_WI@Z@PB_WI@Z
	??$_Reallocate_grow_by@V<lambda_1>@?1??insert@?$basic_string@DU?$char_traits@D@std@@V?$allocator@D@2@@std@@QAEAAV34@IQBDI@Z@IPBDI@?$basic_string@DU?$char_traits@D@std@@V?$allocator@D@2@@std@@AAEAAV01@IV<lambda_1>@?1??insert@01@QAEAAV01@IQBDI@Z@IPBDI@Z
	??$_Reallocate_grow_by@V<lambda_1>@?1??push_back@?$basic_string@DU?$char_traits@D@std@@V?$allocator@D@2@@std@@QAEXD@Z@D@?$basic_string@DU?$char_traits@D@std@@V?$allocator@D@2@@std@@AAEAAV01@IV<lambda_1>@?1??push_back@01@QAEXD@Z@D@Z
	??$_Reallocate_grow_by@V<lambda_1>@?1??push_back@?$basic_string@_WU?$char_traits@_W@std@@V?$allocator@_W@2@@std@@QAEX_W@Z@_W@?$basic_string@_WU?$char_traits@_W@std@@V?$allocator@_W@2@@std@@AAEAAV01@IV<lambda_1>@?1??push_back@01@QAEX_W@Z@_W@Z
	??$_Refancy@PAD$0A@@std@@YAPADPAD@Z
	??$_Refancy@PAH$0A@@std@@YAPAHPAH@Z
	??$_Refancy@PAI$0A@@std@@YAPAIPAI@Z
	??$_Refancy@PAM$0A@@std@@YAPAMPAM@Z
	??$_Refancy@PAN$0A@@std@@YAPANPAN@Z
	??$_Refancy@PAPBUwhisper_grammar_element@@$0A@@std@@YAPAPBUwhisper_grammar_element@@PAPBU1@@Z
	??$_Refancy@PAU_Grp_t@?$_Tgt_state_t@PBD@std@@$0A@@std@@YAPAU_Grp_t@?$_Tgt_state_t@PBD@0@PAU120@@Z
	??$_Refancy@PAUvad_time_mapping@@$0A@@std@@YAPAUvad_time_mapping@@PAU1@@Z
	??$_Refancy@PAUwhisper_grammar_element@@$0A@@std@@YAPAUwhisper_grammar_element@@PAU1@@Z
	??$_Refancy@PAUwhisper_token_data@@$0A@@std@@YAPAUwhisper_token_data@@PAU1@@Z
	??$_Refancy@PBD$0A@@std@@YAPBDPBD@Z
	??$_Regex_match1@PBDV?$allocator@V?$sub_match@PBD@std@@@std@@DV?$regex_traits@D@2@PBD@std@@YA_NPBD0PAV?$match_results@PBDV?$allocator@V?$sub_match@PBD@std@@@std@@@0@ABV?$basic_regex@DV?$regex_traits@D@std@@@0@W4match_flag_type@regex_constants@0@_N@Z
	??$_Regex_search2@V?$_String_const_iterator@V?$_String_val@U?$_Simple_types@D@std@@@std@@@std@@V?$allocator@V?$sub_match@V?$_String_const_iterator@V?$_String_val@U?$_Simple_types@D@std@@@std@@@std@@@std@@@2@DV?$regex_traits@D@2@V12@@std@@YA_NV?$_String_const_iterator@V?$_String_val@U?$_Simple_types@D@std@@@std@@@0@0PAV?$match_results@V?$_String_const_iterator@V?$_String_val@U?$_Simple_types@D@std@@@std@@@std@@V?$allocator@V?$sub_match@V?$_String_const_iterator@V?$_String_val@U?$_Simple_types@D@std@@@std@@@std@@@std@@@2@@0@ABV?$basic_regex@DV?$regex_traits@D@std@@@0@W4match_flag_type@regex_constants@0@0@Z
	??$_Reset@PBD@?$basic_regex@DV?$regex_traits@D@std@@@std@@AAEXPBD0W4syntax_option_type@regex_constants@1@Uforward_iterator_tag@1@@Z
	??$_Resize@I@?$vector@IV?$allocator@I@std@@@std@@AAEXIABI@Z
	??$_Resize@U_Value_init_tag@std@@@?$vector@DV?$allocator@D@std@@@std@@AAEXIABU_Value_init_tag@1@@Z
	??$_Resize@U_Value_init_tag@std@@@?$vector@EV?$allocator@E@std@@@std@@AAEXIABU_Value_init_tag@1@@Z
	??$_Resize@U_Value_init_tag@std@@@?$vector@HV?$allocator@H@std@@@std@@AAEXIABU_Value_init_tag@1@@Z
	??$_Resize@U_Value_init_tag@std@@@?$vector@MV?$allocator@M@std@@@std@@AAEXIABU_Value_init_tag@1@@Z
	??$_Resize@U_Value_init_tag@std@@@?$vector@U?$whisper_pair@NH@@V?$allocator@U?$whisper_pair@NH@@@std@@@std@@AAEXIABU_Value_init_tag@1@@Z
	??$_Resize@U_Value_init_tag@std@@@?$vector@U_Grp_t@?$_Tgt_state_t@PBD@std@@V?$allocator@U_Grp_t@?$_Tgt_state_t@PBD@std@@@3@@std@@AAEXIABU_Value_init_tag@1@@Z
	??$_Resize@U_Value_init_tag@std@@@?$vector@U_Grp_t@?$_Tgt_state_t@V?$_String_const_iterator@V?$_String_val@U?$_Simple_types@D@std@@@std@@@std@@@std@@V?$allocator@U_Grp_t@?$_Tgt_state_t@V?$_String_const_iterator@V?$_String_val@U?$_Simple_types@D@std@@@std@@@std@@@std@@@3@@std@@AAEXIABU_Value_init_tag@1@@Z
	??$_Resize@U_Value_init_tag@std@@@?$vector@U_Loop_vals_t@std@@V?$allocator@U_Loop_vals_t@std@@@2@@std@@AAEXIABU_Value_init_tag@1@@Z
	??$_Resize@U_Value_init_tag@std@@@?$vector@Uwhisper_kv_cell@@V?$allocator@Uwhisper_kv_cell@@@std@@@std@@AAEXIABU_Value_init_tag@1@@Z
	??$_Resize@U_Value_init_tag@std@@@?$vector@Uwhisper_layer_decoder@@V?$allocator@Uwhisper_layer_decoder@@@std@@@std@@AAEXIABU_Value_init_tag@1@@Z
	??$_Resize@U_Value_init_tag@std@@@?$vector@Uwhisper_layer_encoder@@V?$allocator@Uwhisper_layer_encoder@@@std@@@std@@AAEXIABU_Value_init_tag@1@@Z
	??$_Resize@U_Value_init_tag@std@@@?$vector@Uwhisper_token_data@@V?$allocator@Uwhisper_token_data@@@std@@@std@@AAEXIABU_Value_init_tag@1@@Z
	??$_Resize@U_Value_init_tag@std@@@?$vector@Uwhisper_vad_segment@@V?$allocator@Uwhisper_vad_segment@@@std@@@std@@AAEXIABU_Value_init_tag@1@@Z
	??$_Resize@U_Value_init_tag@std@@@?$vector@V?$sub_match@PBD@std@@V?$allocator@V?$sub_match@PBD@std@@@2@@std@@AAEXIABU_Value_init_tag@1@@Z
	??$_Resize@U_Value_init_tag@std@@@?$vector@V?$sub_match@V?$_String_const_iterator@V?$_String_val@U?$_Simple_types@D@std@@@std@@@std@@@std@@V?$allocator@V?$sub_match@V?$_String_const_iterator@V?$_String_val@U?$_Simple_types@D@std@@@std@@@std@@@std@@@2@@std@@AAEXIABU_Value_init_tag@1@@Z
	??$_Resize_reallocate@I@?$vector@IV?$allocator@I@std@@@std@@AAEXIABI@Z
	??$_Resize_reallocate@U_Value_init_tag@std@@@?$vector@DV?$allocator@D@std@@@std@@AAEXIABU_Value_init_tag@1@@Z
	??$_Resize_reallocate@U_Value_init_tag@std@@@?$vector@EV?$allocator@E@std@@@std@@AAEXIABU_Value_init_tag@1@@Z
	??$_Resize_reallocate@U_Value_init_tag@std@@@?$vector@HV?$allocator@H@std@@@std@@AAEXIABU_Value_init_tag@1@@Z
	??$_Resize_reallocate@U_Value_init_tag@std@@@?$vector@MV?$allocator@M@std@@@std@@AAEXIABU_Value_init_tag@1@@Z
	??$_Resize_reallocate@U_Value_init_tag@std@@@?$vector@U?$whisper_pair@NH@@V?$allocator@U?$whisper_pair@NH@@@std@@@std@@AAEXIABU_Value_init_tag@1@@Z
	??$_Resize_reallocate@U_Value_init_tag@std@@@?$vector@U_Grp_t@?$_Tgt_state_t@PBD@std@@V?$allocator@U_Grp_t@?$_Tgt_state_t@PBD@std@@@3@@std@@AAEXIABU_Value_init_tag@1@@Z
	??$_Resize_reallocate@U_Value_init_tag@std@@@?$vector@U_Grp_t@?$_Tgt_state_t@V?$_String_const_iterator@V?$_String_val@U?$_Simple_types@D@std@@@std@@@std@@@std@@V?$allocator@U_Grp_t@?$_Tgt_state_t@V?$_String_const_iterator@V?$_String_val@U?$_Simple_types@D@std@@@std@@@std@@@std@@@3@@std@@AAEXIABU_Value_init_tag@1@@Z
	??$_Resize_reallocate@U_Value_init_tag@std@@@?$vector@U_Loop_vals_t@std@@V?$allocator@U_Loop_vals_t@std@@@2@@std@@AAEXIABU_Value_init_tag@1@@Z
	??$_Resize_reallocate@U_Value_init_tag@std@@@?$vector@Uwhisper_kv_cell@@V?$allocator@Uwhisper_kv_cell@@@std@@@std@@AAEXIABU_Value_init_tag@1@@Z
	??$_Resize_reallocate@U_Value_init_tag@std@@@?$vector@Uwhisper_layer_decoder@@V?$allocator@Uwhisper_layer_decoder@@@std@@@std@@AAEXIABU_Value_init_tag@1@@Z
	??$_Resize_reallocate@U_Value_init_tag@std@@@?$vector@Uwhisper_layer_encoder@@V?$allocator@Uwhisper_layer_encoder@@@std@@@std@@AAEXIABU_Value_init_tag@1@@Z
	??$_Resize_reallocate@U_Value_init_tag@std@@@?$vector@Uwhisper_token_data@@V?$allocator@Uwhisper_token_data@@@std@@@std@@AAEXIABU_Value_init_tag@1@@Z
	??$_Resize_reallocate@U_Value_init_tag@std@@@?$vector@Uwhisper_vad_segment@@V?$allocator@Uwhisper_vad_segment@@@std@@@std@@AAEXIABU_Value_init_tag@1@@Z
	??$_Resize_reallocate@U_Value_init_tag@std@@@?$vector@V?$sub_match@PBD@std@@V?$allocator@V?$sub_match@PBD@std@@@2@@std@@AAEXIABU_Value_init_tag@1@@Z
	??$_Resize_reallocate@U_Value_init_tag@std@@@?$vector@V?$sub_match@V?$_String_const_iterator@V?$_String_val@U?$_Simple_types@D@std@@@std@@@std@@@std@@V?$allocator@V?$sub_match@V?$_String_const_iterator@V?$_String_val@U?$_Simple_types@D@std@@@std@@@std@@@std@@@2@@std@@AAEXIABU_Value_init_tag@1@@Z
	??$_Seek_wrapped@PBDPBD@std@@YAXAAPBD$$QAPBD@Z
	??$_Seek_wrapped@V?$_String_const_iterator@V?$_String_val@U?$_Simple_types@D@std@@@std@@@std@@PBD@std@@YAXAAV?$_String_const_iterator@V?$_String_val@U?$_Simple_types@D@std@@@std@@@0@$$QAPBD@Z
	??$_Seek_wrapped@V?$_Vb_iterator@U?$_Wrap_alloc@V?$allocator@I@std@@@std@@@std@@V12@@std@@YAXAAV?$_Vb_iterator@U?$_Wrap_alloc@V?$allocator@I@std@@@std@@@0@$$QAV10@@Z
	??$_Seek_wrapped@V?$_Vector_const_iterator@V?$_Vector_val@U?$_Simple_types@M@std@@@std@@@std@@PBM@std@@YAXAAV?$_Vector_const_iterator@V?$_Vector_val@U?$_Simple_types@M@std@@@std@@@0@$$QAPBM@Z
	??$_Seek_wrapped@V?$_Vector_const_iterator@V?$_Vector_val@U?$_Simple_types@N@std@@@std@@@std@@AAPBN@std@@YAXAAV?$_Vector_const_iterator@V?$_Vector_val@U?$_Simple_types@N@std@@@std@@@0@AAPBN@Z
	??$_Seek_wrapped@V?$_Vector_const_iterator@V?$_Vector_val@U?$_Simple_types@Uvad_time_mapping@@@std@@@std@@@std@@AAPBUvad_time_mapping@@@std@@YAXAAV?$_Vector_const_iterator@V?$_Vector_val@U?$_Simple_types@Uvad_time_mapping@@@std@@@std@@@0@AAPBUvad_time_mapping@@@Z
	??$_Seek_wrapped@V?$_Vector_iterator@V?$_Vector_val@U?$_Simple_types@H@std@@@std@@@std@@PAH@std@@YAXAAV?$_Vector_iterator@V?$_Vector_val@U?$_Simple_types@H@std@@@std@@@0@$$QAPAH@Z
	??$_Seek_wrapped@V?$_Vector_iterator@V?$_Vector_val@U?$_Simple_types@M@std@@@std@@@std@@AAPAM@std@@YAXAAV?$_Vector_iterator@V?$_Vector_val@U?$_Simple_types@M@std@@@std@@@0@AAPAM@Z
	??$_Seek_wrapped@V?$_Vector_iterator@V?$_Vector_val@U?$_Simple_types@M@std@@@std@@@std@@PAM@std@@YAXAAV?$_Vector_iterator@V?$_Vector_val@U?$_Simple_types@M@std@@@std@@@0@$$QAPAM@Z
	??$_Seek_wrapped@V?$_Vector_iterator@V?$_Vector_val@U?$_Simple_types@Uvad_time_mapping@@@std@@@std@@@std@@AAPAUvad_time_mapping@@@std@@YAXAAV?$_Vector_iterator@V?$_Vector_val@U?$_Simple_types@Uvad_time_mapping@@@std@@@std@@@0@AAPAUvad_time_mapping@@@Z
	??$_Seek_wrapped@V?$_Vector_iterator@V?$_Vector_val@U?$_Simple_types@Uvad_time_mapping@@@std@@@std@@@std@@ABQAUvad_time_mapping@@@std@@YAXAAV?$_Vector_iterator@V?$_Vector_val@U?$_Simple_types@Uvad_time_mapping@@@std@@@std@@@0@ABQAUvad_time_mapping@@@Z
	??$_Sort_heap_unchecked@PAMU?$less@X@std@@@std@@YAXPAM0U?$less@X@0@@Z
	??$_Sort_unchecked@PAMU?$less@X@std@@@std@@YAXPAM0HU?$less@X@0@@Z
	??$_Start@A6AHPAUwhisper_context@@PAUwhisper_state@@Uwhisper_full_params@@PBMH@ZAAPAU1@AAPAU2@U3@PBMABH@thread@std@@AAEXA6AHPAUwhisper_context@@PAUwhisper_state@@Uwhisper_full_params@@PBMH@ZAAPAU2@AAPAU3@$$QAU4@$$QAPBMABH@Z
	??$_Start@A6AXHPBMABV?$vector@MV?$allocator@M@std@@@std@@HHHHABUwhisper_filters@@AAUwhisper_mel@@@ZHAAPBMV?$reference_wrapper@$$CBV?$vector@MV?$allocator@M@std@@@std@@@2@_JABHABHABHV?$reference_wrapper@$$CBUwhisper_filters@@@2@V?$reference_wrapper@Uwhisper_mel@@@2@@thread@std@@AAEXA6AXHPBMABV?$vector@MV?$allocator@M@std@@@1@HHHHABUwhisper_filters@@AAUwhisper_mel@@@Z$$QAHAAPBM$$QAV?$reference_wrapper@$$CBV?$vector@MV?$allocator@M@std@@@std@@@1@$$QA_JABH99$$QAV?$reference_wrapper@$$CBUwhisper_filters@@@1@$$QAV?$reference_wrapper@Uwhisper_mel@@@1@@Z
	??$_Swap_adl@PAV_Node_base@std@@@std@@YAXAAPAV_Node_base@0@0@Z
	??$_To_address@PAD@std@@YA?A_PABQAD@Z
	??$_To_address@PAE@std@@YA?A_PABQAE@Z
	??$_To_address@PAH@std@@YA?A_PABQAH@Z
	??$_To_address@PAI@std@@YA?A_PABQAI@Z
	??$_To_address@PAM@std@@YA?A_PABQAM@Z
	??$_To_address@PAN@std@@YA?A_PABQAN@Z
	??$_To_address@PAPAUggml_backend@@@std@@YA?A_PABQAPAUggml_backend@@@Z
	??$_To_address@PAPAUggml_backend_buffer@@@std@@YA?A_PABQAPAUggml_backend_buffer@@@Z
	??$_To_address@PAPAUggml_context@@@std@@YA?A_PABQAPAUggml_context@@@Z
	??$_To_address@PAPAUggml_tensor@@@std@@YA?A_PABQAPAUggml_tensor@@@Z
	??$_To_address@PAPAUwhisper_state@@@std@@YA?A_PABQAPAUwhisper_state@@@Z
	??$_To_address@PAPBUwhisper_grammar_element@@@std@@YA?A_PABQAPBUwhisper_grammar_element@@@Z
	??$_To_address@PAU?$whisper_pair@NH@@@std@@YA?A_PABQAU?$whisper_pair@NH@@@Z
	??$_To_address@PAU_Grp_t@?$_Tgt_state_t@PBD@std@@@std@@YA?A_PABQAU_Grp_t@?$_Tgt_state_t@PBD@0@@Z
	??$_To_address@PAU_Loop_vals_t@std@@@std@@YA?A_PABQAU_Loop_vals_t@0@@Z
	??$_To_address@PAUvad_segment_info@whisper_state@@@std@@YA?A_PABQAUvad_segment_info@whisper_state@@@Z
	??$_To_address@PAUvad_time_mapping@@@std@@YA?A_PABQAUvad_time_mapping@@@Z
	??$_To_address@PAUwhisper_grammar_candidate@@@std@@YA?A_PABQAUwhisper_grammar_candidate@@@Z
	??$_To_address@PAUwhisper_grammar_element@@@std@@YA?A_PABQAUwhisper_grammar_element@@@Z
	??$_To_address@PAUwhisper_layer_decoder@@@std@@YA?A_PABQAUwhisper_layer_decoder@@@Z
	??$_To_address@PAUwhisper_layer_encoder@@@std@@YA?A_PABQAUwhisper_layer_encoder@@@Z
	??$_To_address@PAUwhisper_token_data@@@std@@YA?A_PABQAUwhisper_token_data@@@Z
	??$_To_address@PAUwhisper_vad_segment@@@std@@YA?A_PABQAUwhisper_vad_segment@@@Z
	??$_To_address@PBD@std@@YA?A_PABQBD@Z
	??$_To_address@PBH@std@@YA?A_PABQBH@Z
	??$_To_address@PBI@std@@YA?A_PABQBI@Z
	??$_To_address@PBM@std@@YA?A_PABQBM@Z
	??$_To_address@PBQBUwhisper_grammar_element@@@std@@YA?A_PABQBQBUwhisper_grammar_element@@@Z
	??$_Traits_compare@U?$char_traits@D@std@@@std@@YAHQBDI0I@Z
	??$_Traits_equal@U?$char_traits@D@std@@@std@@YA_NQBDI0I@Z
	??$_Traits_rfind@U?$char_traits@D@std@@@std@@YAIQBDII0I@Z
	??$_Try_emplace@ABH$$V@?$map@HHU?$less@H@std@@V?$allocator@U?$pair@$$CBHH@std@@@2@@std@@AAE?AU?$pair@PAU?$_Tree_node@U?$pair@$$CBHH@std@@PAX@std@@_N@1@ABH@Z
	??$_Try_emplace@ABH$$V@?$map@HV?$basic_string@DU?$char_traits@D@std@@V?$allocator@D@2@@std@@U?$less@H@2@V?$allocator@U?$pair@$$CBHV?$basic_string@DU?$char_traits@D@std@@V?$allocator@D@2@@std@@@std@@@2@@std@@AAE?AU?$pair@PAU?$_Tree_node@U?$pair@$$CBHV?$basic_string@DU?$char_traits@D@std@@V?$allocator@D@2@@std@@@std@@PAX@std@@_N@1@ABH@Z
	??$_Try_emplace@ABQAUggml_backend_buffer_type@@$$V@?$map@PAUggml_backend_buffer_type@@PAUggml_context@@U?$less@PAUggml_backend_buffer_type@@@std@@V?$allocator@U?$pair@QAUggml_backend_buffer_type@@PAUggml_context@@@std@@@4@@std@@AAE?AU?$pair@PAU?$_Tree_node@U?$pair@QAUggml_backend_buffer_type@@PAUggml_context@@@std@@PAX@std@@_N@1@ABQAUggml_backend_buffer_type@@@Z
	??$_Try_emplace@ABV?$basic_string@DU?$char_traits@D@std@@V?$allocator@D@2@@std@@$$V@?$map@V?$basic_string@DU?$char_traits@D@std@@V?$allocator@D@2@@std@@HU?$less@V?$basic_string@DU?$char_traits@D@std@@V?$allocator@D@2@@std@@@2@V?$allocator@U?$pair@$$CBV?$basic_string@DU?$char_traits@D@std@@V?$allocator@D@2@@std@@H@std@@@2@@std@@AAE?AU?$pair@PAU?$_Tree_node@U?$pair@$$CBV?$basic_string@DU?$char_traits@D@std@@V?$allocator@D@2@@std@@H@std@@PAX@std@@_N@1@ABV?$basic_string@DU?$char_traits@D@std@@V?$allocator@D@2@@1@@Z
	??$_Try_emplace@V?$basic_string@DU?$char_traits@D@std@@V?$allocator@D@2@@std@@$$V@?$map@V?$basic_string@DU?$char_traits@D@std@@V?$allocator@D@2@@std@@PAUggml_tensor@@U?$less@V?$basic_string@DU?$char_traits@D@std@@V?$allocator@D@2@@std@@@2@V?$allocator@U?$pair@$$CBV?$basic_string@DU?$char_traits@D@std@@V?$allocator@D@2@@std@@PAUggml_tensor@@@std@@@2@@std@@AAE?AU?$pair@PAU?$_Tree_node@U?$pair@$$CBV?$basic_string@DU?$char_traits@D@std@@V?$allocator@D@2@@std@@PAUggml_tensor@@@std@@PAX@std@@_N@1@$$QAV?$basic_string@DU?$char_traits@D@std@@V?$allocator@D@2@@1@@Z
	??$_Tuple_get@$0A@$$QAV?$basic_string@DU?$char_traits@D@std@@V?$allocator@D@2@@std@@@std@@YA$$QA_P$$QAV?$tuple@$$QAV?$basic_string@DU?$char_traits@D@std@@V?$allocator@D@2@@std@@@0@@Z
	??$_Tuple_get@$0A@ABH@std@@YA$$QA_P$$QAV?$tuple@ABH@0@@Z
	??$_Tuple_get@$0A@ABQAUggml_backend_buffer_type@@@std@@YA$$QA_P$$QAV?$tuple@ABQAUggml_backend_buffer_type@@@0@@Z
	??$_Tuple_get@$0A@ABV?$basic_string@DU?$char_traits@D@std@@V?$allocator@D@2@@std@@@std@@YA$$QA_P$$QAV?$tuple@ABV?$basic_string@DU?$char_traits@D@std@@V?$allocator@D@2@@std@@@0@@Z
	??$_UIntegral_to_buff@DI@std@@YAPADPADI@Z
	??$_Ucopy@PAD@?$vector@DV?$allocator@D@std@@@std@@AAEPADPAD00@Z
	??$_Ucopy@PAH@?$vector@HV?$allocator@H@std@@@std@@AAEPAHPAH00@Z
	??$_Ucopy@PAI@?$vector@IV?$allocator@I@std@@@std@@AAEPAIPAI00@Z
	??$_Ucopy@PAPAUggml_backend@@@?$vector@PAUggml_backend@@V?$allocator@PAUggml_backend@@@std@@@std@@AAEPAPAUggml_backend@@PAPAU2@00@Z
	??$_Ucopy@PAPBUwhisper_grammar_element@@@?$vector@PBUwhisper_grammar_element@@V?$allocator@PBUwhisper_grammar_element@@@std@@@std@@AAEPAPBUwhisper_grammar_element@@PAPBU2@00@Z
	??$_Ucopy@PAU?$pair@PAUggml_backend_device@@PAUggml_backend_buffer_type@@@std@@@?$vector@U?$pair@PAUggml_backend_device@@PAUggml_backend_buffer_type@@@std@@V?$allocator@U?$pair@PAUggml_backend_device@@PAUggml_backend_buffer_type@@@std@@@2@@std@@AAEPAU?$pair@PAUggml_backend_device@@PAUggml_backend_buffer_type@@@1@PAU21@00@Z
	??$_Ucopy@PAU_Grp_t@?$_Tgt_state_t@PBD@std@@@?$vector@U_Grp_t@?$_Tgt_state_t@PBD@std@@V?$allocator@U_Grp_t@?$_Tgt_state_t@PBD@std@@@3@@std@@AAEPAU_Grp_t@?$_Tgt_state_t@PBD@1@PAU231@00@Z
	??$_Ucopy@PAU_Grp_t@?$_Tgt_state_t@V?$_String_const_iterator@V?$_String_val@U?$_Simple_types@D@std@@@std@@@std@@@std@@@?$vector@U_Grp_t@?$_Tgt_state_t@V?$_String_const_iterator@V?$_String_val@U?$_Simple_types@D@std@@@std@@@std@@@std@@V?$allocator@U_Grp_t@?$_Tgt_state_t@V?$_String_const_iterator@V?$_String_val@U?$_Simple_types@D@std@@@std@@@std@@@std@@@3@@std@@AAEPAU_Grp_t@?$_Tgt_state_t@V?$_String_const_iterator@V?$_String_val@U?$_Simple_types@D@std@@@std@@@std@@@1@PAU231@00@Z
	??$_Ucopy@PAUwhisper_grammar_element@@@?$vector@Uwhisper_grammar_element@@V?$allocator@Uwhisper_grammar_element@@@std@@@std@@AAEPAUwhisper_grammar_element@@PAU2@00@Z
	??$_Ucopy@PAUwhisper_token_data@@@?$vector@Uwhisper_token_data@@V?$allocator@Uwhisper_token_data@@@std@@@std@@AAEPAUwhisper_token_data@@PAU2@00@Z
	??$_Ucopy@PAV?$vector@PBUwhisper_grammar_element@@V?$allocator@PBUwhisper_grammar_element@@@std@@@std@@@?$vector@V?$vector@PBUwhisper_grammar_element@@V?$allocator@PBUwhisper_grammar_element@@@std@@@std@@V?$allocator@V?$vector@PBUwhisper_grammar_element@@V?$allocator@PBUwhisper_grammar_element@@@std@@@std@@@2@@std@@AAEPAV?$vector@PBUwhisper_grammar_element@@V?$allocator@PBUwhisper_grammar_element@@@std@@@1@PAV21@00@Z
	??$_Ucopy@PAV?$vector@Uwhisper_grammar_element@@V?$allocator@Uwhisper_grammar_element@@@std@@@std@@@?$vector@V?$vector@Uwhisper_grammar_element@@V?$allocator@Uwhisper_grammar_element@@@std@@@std@@V?$allocator@V?$vector@Uwhisper_grammar_element@@V?$allocator@Uwhisper_grammar_element@@@std@@@std@@@2@@std@@AAEPAV?$vector@Uwhisper_grammar_element@@V?$allocator@Uwhisper_grammar_element@@@std@@@1@PAV21@00@Z
	??$_Ucopy@PBD@?$vector@DV?$allocator@D@std@@@std@@AAEPADPBD0PAD@Z
	??$_Ucopy@PBH@?$vector@HV?$allocator@H@std@@@std@@AAEPAHPBH0PAH@Z
	??$_Ucopy@PBI@?$vector@IV?$allocator@I@std@@@std@@AAEPAIPBI0PAI@Z
	??$_Ucopy@PBM@?$vector@NV?$allocator@N@std@@@std@@AAEPANPBM0PAN@Z
	??$_Ucopy@PBQBUwhisper_grammar_element@@@?$vector@PBUwhisper_grammar_element@@V?$allocator@PBUwhisper_grammar_element@@@std@@@std@@AAEPAPBUwhisper_grammar_element@@PBQBU2@0PAPBU2@@Z
	??$_Ucopy@PBV?$basic_string@DU?$char_traits@D@std@@V?$allocator@D@2@@std@@@?$vector@V?$basic_string@DU?$char_traits@D@std@@V?$allocator@D@2@@std@@V?$allocator@V?$basic_string@DU?$char_traits@D@std@@V?$allocator@D@2@@std@@@2@@std@@AAEPAV?$basic_string@DU?$char_traits@D@std@@V?$allocator@D@2@@1@PBV21@0PAV21@@Z
	??$_Unfancy@$$CBD@std@@YAPBDPBD@Z
	??$_Unfancy@D@std@@YAPADPAD@Z
	??$_Unfancy@E@std@@YAPAEPAE@Z
	??$_Unfancy@H@std@@YAPAHPAH@Z
	??$_Unfancy@I@std@@YAPAIPAI@Z
	??$_Unfancy@M@std@@YAPAMPAM@Z
	??$_Unfancy@N@std@@YAPANPAN@Z
	??$_Unfancy@PAUggml_backend@@@std@@YAPAPAUggml_backend@@PAPAU1@@Z
	??$_Unfancy@PAUggml_backend_buffer@@@std@@YAPAPAUggml_backend_buffer@@PAPAU1@@Z
	??$_Unfancy@PAUggml_context@@@std@@YAPAPAUggml_context@@PAPAU1@@Z
	??$_Unfancy@PAUggml_tensor@@@std@@YAPAPAUggml_tensor@@PAPAU1@@Z
	??$_Unfancy@PAUwhisper_state@@@std@@YAPAPAUwhisper_state@@PAPAU1@@Z
	??$_Unfancy@PBUwhisper_grammar_element@@@std@@YAPAPBUwhisper_grammar_element@@PAPBU1@@Z
	??$_Unfancy@U?$pair@PAUggml_backend_device@@PAUggml_backend_buffer_type@@@std@@@std@@YAPAU?$pair@PAUggml_backend_device@@PAUggml_backend_buffer_type@@@0@PAU10@@Z
	??$_Unfancy@U?$pair@V?$vector@IV?$allocator@I@std@@@std@@Uwhisper_partial_utf8@@@std@@@std@@YAPAU?$pair@V?$vector@IV?$allocator@I@std@@@std@@Uwhisper_partial_utf8@@@0@PAU10@@Z
	??$_Unfancy@U?$whisper_pair@NH@@@std@@YAPAU?$whisper_pair@NH@@PAU1@@Z
	??$_Unfancy@U_Container_proxy@std@@@std@@YAPAU_Container_proxy@0@PAU10@@Z
	??$_Unfancy@U_Grp_t@?$_Tgt_state_t@PBD@std@@@std@@YAPAU_Grp_t@?$_Tgt_state_t@PBD@0@PAU120@@Z
	??$_Unfancy@U_Grp_t@?$_Tgt_state_t@V?$_String_const_iterator@V?$_String_val@U?$_Simple_types@D@std@@@std@@@std@@@std@@@std@@YAPAU_Grp_t@?$_Tgt_state_t@V?$_String_const_iterator@V?$_String_val@U?$_Simple_types@D@std@@@std@@@std@@@0@PAU120@@Z
	??$_Unfancy@U_Loop_vals_t@std@@@std@@YAPAU_Loop_vals_t@0@PAU10@@Z
	??$_Unfancy@Uvad_segment_info@whisper_state@@@std@@YAPAUvad_segment_info@whisper_state@@PAU12@@Z
	??$_Unfancy@Uvad_time_mapping@@@std@@YAPAUvad_time_mapping@@PAU1@@Z
	??$_Unfancy@Uwhisper_grammar_candidate@@@std@@YAPAUwhisper_grammar_candidate@@PAU1@@Z
	??$_Unfancy@Uwhisper_grammar_element@@@std@@YAPAUwhisper_grammar_element@@PAU1@@Z
	??$_Unfancy@Uwhisper_kv_cell@@@std@@YAPAUwhisper_kv_cell@@PAU1@@Z
	??$_Unfancy@Uwhisper_layer_decoder@@@std@@YAPAUwhisper_layer_decoder@@PAU1@@Z
	??$_Unfancy@Uwhisper_layer_encoder@@@std@@YAPAUwhisper_layer_encoder@@PAU1@@Z
	??$_Unfancy@Uwhisper_segment@@@std@@YAPAUwhisper_segment@@PAU1@@Z
	??$_Unfancy@Uwhisper_token_data@@@std@@YAPAUwhisper_token_data@@PAU1@@Z
	??$_Unfancy@Uwhisper_vad_segment@@@std@@YAPAUwhisper_vad_segment@@PAU1@@Z
	??$_Unfancy@V?$basic_string@DU?$char_traits@D@std@@V?$allocator@D@2@@std@@@std@@YAPAV?$basic_string@DU?$char_traits@D@std@@V?$allocator@D@2@@0@PAV10@@Z
	??$_Unfancy@V?$sub_match@PBD@std@@@std@@YAPAV?$sub_match@PBD@0@PAV10@@Z
	??$_Unfancy@V?$sub_match@V?$_String_const_iterator@V?$_String_val@U?$_Simple_types@D@std@@@std@@@std@@@std@@@std@@YAPAV?$sub_match@V?$_String_const_iterator@V?$_String_val@U?$_Simple_types@D@std@@@std@@@std@@@0@PAV10@@Z
	??$_Unfancy@V?$vector@PBUwhisper_grammar_element@@V?$allocator@PBUwhisper_grammar_element@@@std@@@std@@@std@@YAPAV?$vector@PBUwhisper_grammar_element@@V?$allocator@PBUwhisper_grammar_element@@@std@@@0@PAV10@@Z
	??$_Unfancy@V?$vector@Uwhisper_grammar_element@@V?$allocator@Uwhisper_grammar_element@@@std@@@std@@@std@@YAPAV?$vector@Uwhisper_grammar_element@@V?$allocator@Uwhisper_grammar_element@@@std@@@0@PAV10@@Z
	??$_Unfancy@Vthread@std@@@std@@YAPAVthread@0@PAV10@@Z
	??$_Unfancy@_W@std@@YAPA_WPA_W@Z
	??$_Unfancy_maybe_null@D@std@@YAPADPAD@Z
	??$_Unfancy_maybe_null@E@std@@YAPAEPAE@Z
	??$_Unfancy_maybe_null@H@std@@YAPAHPAH@Z
	??$_Unfancy_maybe_null@I@std@@YAPAIPAI@Z
	??$_Unfancy_maybe_null@M@std@@YAPAMPAM@Z
	??$_Unfancy_maybe_null@PAUggml_backend@@@std@@YAPAPAUggml_backend@@PAPAU1@@Z
	??$_Unfancy_maybe_null@Uwhisper_grammar_element@@@std@@YAPAUwhisper_grammar_element@@PAU1@@Z
	??$_Unfancy_maybe_null@Uwhisper_token_data@@@std@@YAPAUwhisper_token_data@@PAU1@@Z
	??$_Ungetc@D@std@@YA_NABDPAU_iobuf@@@Z
	??$_Uninitialized_copy@PADV?$allocator@D@std@@@std@@YAPADQAD0PADAAV?$allocator@D@0@@Z
	??$_Uninitialized_copy@PAHV?$allocator@H@std@@@std@@YAPAHQAH0PAHAAV?$allocator@H@0@@Z
	??$_Uninitialized_copy@PAIV?$allocator@I@std@@@std@@YAPAIQAI0PAIAAV?$allocator@I@0@@Z
	??$_Uninitialized_copy@PAPAUggml_backend@@V?$allocator@PAUggml_backend@@@std@@@std@@YAPAPAUggml_backend@@QAPAU1@0PAPAU1@AAV?$allocator@PAUggml_backend@@@0@@Z
	??$_Uninitialized_copy@PAPBUwhisper_grammar_element@@V?$allocator@PBUwhisper_grammar_element@@@std@@@std@@YAPAPBUwhisper_grammar_element@@QAPBU1@0PAPBU1@AAV?$allocator@PBUwhisper_grammar_element@@@0@@Z
	??$_Uninitialized_copy@PAU?$pair@PAUggml_backend_device@@PAUggml_backend_buffer_type@@@std@@V?$allocator@U?$pair@PAUggml_backend_device@@PAUggml_backend_buffer_type@@@std@@@2@@std@@YAPAU?$pair@PAUggml_backend_device@@PAUggml_backend_buffer_type@@@0@QAU10@0PAU10@AAV?$allocator@U?$pair@PAUggml_backend_device@@PAUggml_backend_buffer_type@@@std@@@0@@Z
	??$_Uninitialized_copy@PAU_Grp_t@?$_Tgt_state_t@PBD@std@@V?$allocator@U_Grp_t@?$_Tgt_state_t@PBD@std@@@3@@std@@YAPAU_Grp_t@?$_Tgt_state_t@PBD@0@QAU120@0PAU120@AAV?$allocator@U_Grp_t@?$_Tgt_state_t@PBD@std@@@0@@Z
	??$_Uninitialized_copy@PAU_Grp_t@?$_Tgt_state_t@V?$_String_const_iterator@V?$_String_val@U?$_Simple_types@D@std@@@std@@@std@@@std@@V?$allocator@U_Grp_t@?$_Tgt_state_t@V?$_String_const_iterator@V?$_String_val@U?$_Simple_types@D@std@@@std@@@std@@@std@@@3@@std@@YAPAU_Grp_t@?$_Tgt_state_t@V?$_String_const_iterator@V?$_String_val@U?$_Simple_types@D@std@@@std@@@std@@@0@QAU120@0PAU120@AAV?$allocator@U_Grp_t@?$_Tgt_state_t@V?$_String_const_iterator@V?$_String_val@U?$_Simple_types@D@std@@@std@@@std@@@std@@@0@@Z
	??$_Uninitialized_copy@PAUwhisper_grammar_element@@V?$allocator@Uwhisper_grammar_element@@@std@@@std@@YAPAUwhisper_grammar_element@@QAU1@0PAU1@AAV?$allocator@Uwhisper_grammar_element@@@0@@Z
	??$_Uninitialized_copy@PAUwhisper_kv_cell@@V?$allocator@Uwhisper_kv_cell@@@std@@@std@@YAPAUwhisper_kv_cell@@QAU1@0PAU1@AAV?$allocator@Uwhisper_kv_cell@@@0@@Z
	??$_Uninitialized_copy@PAUwhisper_token_data@@V?$allocator@Uwhisper_token_data@@@std@@@std@@YAPAUwhisper_token_data@@QAU1@0PAU1@AAV?$allocator@Uwhisper_token_data@@@0@@Z
	??$_Uninitialized_copy@PAV?$vector@PBUwhisper_grammar_element@@V?$allocator@PBUwhisper_grammar_element@@@std@@@std@@V?$allocator@V?$vector@PBUwhisper_grammar_element@@V?$allocator@PBUwhisper_grammar_element@@@std@@@std@@@2@@std@@YAPAV?$vector@PBUwhisper_grammar_element@@V?$allocator@PBUwhisper_grammar_element@@@std@@@0@QAV10@0PAV10@AAV?$allocator@V?$vector@PBUwhisper_grammar_element@@V?$allocator@PBUwhisper_grammar_element@@@std@@@std@@@0@@Z
	??$_Uninitialized_copy@PAV?$vector@Uwhisper_grammar_element@@V?$allocator@Uwhisper_grammar_element@@@std@@@std@@V?$allocator@V?$vector@Uwhisper_grammar_element@@V?$allocator@Uwhisper_grammar_element@@@std@@@std@@@2@@std@@YAPAV?$vector@Uwhisper_grammar_element@@V?$allocator@Uwhisper_grammar_element@@@std@@@0@QAV10@0PAV10@AAV?$allocator@V?$vector@Uwhisper_grammar_element@@V?$allocator@Uwhisper_grammar_element@@@std@@@std@@@0@@Z
	??$_Uninitialized_copy@PBDV?$allocator@D@std@@@std@@YAPADQBD0PADAAV?$allocator@D@0@@Z
	??$_Uninitialized_copy@PBHV?$allocator@H@std@@@std@@YAPAHQBH0PAHAAV?$allocator@H@0@@Z
	??$_Uninitialized_copy@PBIV?$allocator@I@std@@@std@@YAPAIQBI0PAIAAV?$allocator@I@0@@Z
	??$_Uninitialized_copy@PBMV?$allocator@N@std@@@std@@YAPANQBM0PANAAV?$allocator@N@0@@Z
	??$_Uninitialized_copy@PBQBUwhisper_grammar_element@@V?$allocator@PBUwhisper_grammar_element@@@std@@@std@@YAPAPBUwhisper_grammar_element@@QBQBU1@0PAPBU1@AAV?$allocator@PBUwhisper_grammar_element@@@0@@Z
	??$_Uninitialized_copy@PBV?$basic_string@DU?$char_traits@D@std@@V?$allocator@D@2@@std@@V?$allocator@V?$basic_string@DU?$char_traits@D@std@@V?$allocator@D@2@@std@@@2@@std@@YAPAV?$basic_string@DU?$char_traits@D@std@@V?$allocator@D@2@@0@QBV10@0PAV10@AAV?$allocator@V?$basic_string@DU?$char_traits@D@std@@V?$allocator@D@2@@std@@@0@@Z
	??$_Uninitialized_fill_n@V?$allocator@D@std@@@std@@YAPADPADIABDAAV?$allocator@D@0@@Z
	??$_Uninitialized_fill_n@V?$allocator@I@std@@@std@@YAPAIPAIIABIAAV?$allocator@I@0@@Z
	??$_Uninitialized_fill_n@V?$allocator@M@std@@@std@@YAPAMPAMIABMAAV?$allocator@M@0@@Z
	??$_Uninitialized_fill_n@V?$allocator@N@std@@@std@@YAPANPANIABNAAV?$allocator@N@0@@Z
	??$_Uninitialized_move@PADV?$allocator@D@std@@@std@@YAPADQAD0PADAAV?$allocator@D@0@@Z
	??$_Uninitialized_move@PAEV?$allocator@E@std@@@std@@YAPAEQAE0PAEAAV?$allocator@E@0@@Z
	??$_Uninitialized_move@PAHV?$allocator@H@std@@@std@@YAPAHQAH0PAHAAV?$allocator@H@0@@Z
	??$_Uninitialized_move@PAIV?$allocator@I@std@@@std@@YAPAIQAI0PAIAAV?$allocator@I@0@@Z
	??$_Uninitialized_move@PAMV?$allocator@M@std@@@std@@YAPAMQAM0PAMAAV?$allocator@M@0@@Z
	??$_Uninitialized_move@PANV?$allocator@N@std@@@std@@YAPANQAN0PANAAV?$allocator@N@0@@Z
	??$_Uninitialized_move@PAPAUggml_backend@@V?$allocator@PAUggml_backend@@@std@@@std@@YAPAPAUggml_backend@@QAPAU1@0PAPAU1@AAV?$allocator@PAUggml_backend@@@0@@Z
	??$_Uninitialized_move@PAPAUggml_backend_buffer@@V?$allocator@PAUggml_backend_buffer@@@std@@@std@@YAPAPAUggml_backend_buffer@@QAPAU1@0PAPAU1@AAV?$allocator@PAUggml_backend_buffer@@@0@@Z
	??$_Uninitialized_move@PAPAUggml_context@@V?$allocator@PAUggml_context@@@std@@@std@@YAPAPAUggml_context@@QAPAU1@0PAPAU1@AAV?$allocator@PAUggml_context@@@0@@Z
	??$_Uninitialized_move@PAPAUggml_tensor@@V?$allocator@PAUggml_tensor@@@std@@@std@@YAPAPAUggml_tensor@@QAPAU1@0PAPAU1@AAV?$allocator@PAUggml_tensor@@@0@@Z
	??$_Uninitialized_move@PAPAUwhisper_state@@V?$allocator@PAUwhisper_state@@@std@@@std@@YAPAPAUwhisper_state@@QAPAU1@0PAPAU1@AAV?$allocator@PAUwhisper_state@@@0@@Z
	??$_Uninitialized_move@PAPBUwhisper_grammar_element@@V?$allocator@PBUwhisper_grammar_element@@@std@@@std@@YAPAPBUwhisper_grammar_element@@QAPBU1@0PAPBU1@AAV?$allocator@PBUwhisper_grammar_element@@@0@@Z
	??$_Uninitialized_move@PAU?$pair@PAUggml_backend_device@@PAUggml_backend_buffer_type@@@std@@V?$allocator@U?$pair@PAUggml_backend_device@@PAUggml_backend_buffer_type@@@std@@@2@@std@@YAPAU?$pair@PAUggml_backend_device@@PAUggml_backend_buffer_type@@@0@QAU10@0PAU10@AAV?$allocator@U?$pair@PAUggml_backend_device@@PAUggml_backend_buffer_type@@@std@@@0@@Z
	??$_Uninitialized_move@PAU?$pair@V?$vector@IV?$allocator@I@std@@@std@@Uwhisper_partial_utf8@@@std@@V?$allocator@U?$pair@V?$vector@IV?$allocator@I@std@@@std@@Uwhisper_partial_utf8@@@std@@@2@@std@@YAPAU?$pair@V?$vector@IV?$allocator@I@std@@@std@@Uwhisper_partial_utf8@@@0@QAU10@0PAU10@AAV?$allocator@U?$pair@V?$vector@IV?$allocator@I@std@@@std@@Uwhisper_partial_utf8@@@std@@@0@@Z
	??$_Uninitialized_move@PAU?$whisper_pair@NH@@V?$allocator@U?$whisper_pair@NH@@@std@@@std@@YAPAU?$whisper_pair@NH@@QAU1@0PAU1@AAV?$allocator@U?$whisper_pair@NH@@@0@@Z
	??$_Uninitialized_move@PAU_Grp_t@?$_Tgt_state_t@PBD@std@@V?$allocator@U_Grp_t@?$_Tgt_state_t@PBD@std@@@3@@std@@YAPAU_Grp_t@?$_Tgt_state_t@PBD@0@QAU120@0PAU120@AAV?$allocator@U_Grp_t@?$_Tgt_state_t@PBD@std@@@0@@Z
	??$_Uninitialized_move@PAU_Grp_t@?$_Tgt_state_t@V?$_String_const_iterator@V?$_String_val@U?$_Simple_types@D@std@@@std@@@std@@@std@@V?$allocator@U_Grp_t@?$_Tgt_state_t@V?$_String_const_iterator@V?$_String_val@U?$_Simple_types@D@std@@@std@@@std@@@std@@@3@@std@@YAPAU_Grp_t@?$_Tgt_state_t@V?$_String_const_iterator@V?$_String_val@U?$_Simple_types@D@std@@@std@@@std@@@0@QAU120@0PAU120@AAV?$allocator@U_Grp_t@?$_Tgt_state_t@V?$_String_const_iterator@V?$_String_val@U?$_Simple_types@D@std@@@std@@@std@@@std@@@0@@Z
	??$_Uninitialized_move@PAU_Loop_vals_t@std@@V?$allocator@U_Loop_vals_t@std@@@2@@std@@YAPAU_Loop_vals_t@0@QAU10@0PAU10@AAV?$allocator@U_Loop_vals_t@std@@@0@@Z
	??$_Uninitialized_move@PAUvad_segment_info@whisper_state@@V?$allocator@Uvad_segment_info@whisper_state@@@std@@@std@@YAPAUvad_segment_info@whisper_state@@QAU12@0PAU12@AAV?$allocator@Uvad_segment_info@whisper_state@@@0@@Z
	??$_Uninitialized_move@PAUvad_time_mapping@@V?$allocator@Uvad_time_mapping@@@std@@@std@@YAPAUvad_time_mapping@@QAU1@0PAU1@AAV?$allocator@Uvad_time_mapping@@@0@@Z
	??$_Uninitialized_move@PAUwhisper_grammar_candidate@@V?$allocator@Uwhisper_grammar_candidate@@@std@@@std@@YAPAUwhisper_grammar_candidate@@QAU1@0PAU1@AAV?$allocator@Uwhisper_grammar_candidate@@@0@@Z
	??$_Uninitialized_move@PAUwhisper_grammar_element@@V?$allocator@Uwhisper_grammar_element@@@std@@@std@@YAPAUwhisper_grammar_element@@QAU1@0PAU1@AAV?$allocator@Uwhisper_grammar_element@@@0@@Z
	??$_Uninitialized_move@PAUwhisper_layer_decoder@@V?$allocator@Uwhisper_layer_decoder@@@std@@@std@@YAPAUwhisper_layer_decoder@@QAU1@0PAU1@AAV?$allocator@Uwhisper_layer_decoder@@@0@@Z
	??$_Uninitialized_move@PAUwhisper_layer_encoder@@V?$allocator@Uwhisper_layer_encoder@@@std@@@std@@YAPAUwhisper_layer_encoder@@QAU1@0PAU1@AAV?$allocator@Uwhisper_layer_encoder@@@0@@Z
	??$_Uninitialized_move@PAUwhisper_segment@@V?$allocator@Uwhisper_segment@@@std@@@std@@YAPAUwhisper_segment@@QAU1@0PAU1@AAV?$allocator@Uwhisper_segment@@@0@@Z
	??$_Uninitialized_move@PAUwhisper_token_data@@V?$allocator@Uwhisper_token_data@@@std@@@std@@YAPAUwhisper_token_data@@QAU1@0PAU1@AAV?$allocator@Uwhisper_token_data@@@0@@Z
	??$_Uninitialized_move@PAUwhisper_vad_segment@@V?$allocator@Uwhisper_vad_segment@@@std@@@std@@YAPAUwhisper_vad_segment@@QAU1@0PAU1@AAV?$allocator@Uwhisper_vad_segment@@@0@@Z
	??$_Uninitialized_move@PAV?$basic_string@DU?$char_traits@D@std@@V?$allocator@D@2@@std@@V?$allocator@V?$basic_string@DU?$char_traits@D@std@@V?$allocator@D@2@@std@@@2@@std@@YAPAV?$basic_string@DU?$char_traits@D@std@@V?$allocator@D@2@@0@QAV10@0PAV10@AAV?$allocator@V?$basic_string@DU?$char_traits@D@std@@V?$allocator@D@2@@std@@@0@@Z
	??$_Uninitialized_move@PAV?$sub_match@PBD@std@@V?$allocator@V?$sub_match@PBD@std@@@2@@std@@YAPAV?$sub_match@PBD@0@QAV10@0PAV10@AAV?$allocator@V?$sub_match@PBD@std@@@0@@Z
	??$_Uninitialized_move@PAV?$sub_match@V?$_String_const_iterator@V?$_String_val@U?$_Simple_types@D@std@@@std@@@std@@@std@@V?$allocator@V?$sub_match@V?$_String_const_iterator@V?$_String_val@U?$_Simple_types@D@std@@@std@@@std@@@std@@@2@@std@@YAPAV?$sub_match@V?$_String_const_iterator@V?$_String_val@U?$_Simple_types@D@std@@@std@@@std@@@0@QAV10@0PAV10@AAV?$allocator@V?$sub_match@V?$_String_const_iterator@V?$_String_val@U?$_Simple_types@D@std@@@std@@@std@@@std@@@0@@Z
	??$_Uninitialized_move@PAV?$vector@PBUwhisper_grammar_element@@V?$allocator@PBUwhisper_grammar_element@@@std@@@std@@V?$allocator@V?$vector@PBUwhisper_grammar_element@@V?$allocator@PBUwhisper_grammar_element@@@std@@@std@@@2@@std@@YAPAV?$vector@PBUwhisper_grammar_element@@V?$allocator@PBUwhisper_grammar_element@@@std@@@0@QAV10@0PAV10@AAV?$allocator@V?$vector@PBUwhisper_grammar_element@@V?$allocator@PBUwhisper_grammar_element@@@std@@@std@@@0@@Z
	??$_Uninitialized_value_construct_n@V?$allocator@D@std@@@std@@YAPADPADIAAV?$allocator@D@0@@Z
	??$_Uninitialized_value_construct_n@V?$allocator@E@std@@@std@@YAPAEPAEIAAV?$allocator@E@0@@Z
	??$_Uninitialized_value_construct_n@V?$allocator@H@std@@@std@@YAPAHPAHIAAV?$allocator@H@0@@Z
	??$_Uninitialized_value_construct_n@V?$allocator@M@std@@@std@@YAPAMPAMIAAV?$allocator@M@0@@Z
	??$_Uninitialized_value_construct_n@V?$allocator@U?$whisper_pair@NH@@@std@@@std@@YAPAU?$whisper_pair@NH@@PAU1@IAAV?$allocator@U?$whisper_pair@NH@@@0@@Z
	??$_Uninitialized_value_construct_n@V?$allocator@U_Grp_t@?$_Tgt_state_t@PBD@std@@@std@@@std@@YAPAU_Grp_t@?$_Tgt_state_t@PBD@0@PAU120@IAAV?$allocator@U_Grp_t@?$_Tgt_state_t@PBD@std@@@0@@Z
	??$_Uninitialized_value_construct_n@V?$allocator@U_Grp_t@?$_Tgt_state_t@V?$_String_const_iterator@V?$_String_val@U?$_Simple_types@D@std@@@std@@@std@@@std@@@std@@@std@@YAPAU_Grp_t@?$_Tgt_state_t@V?$_String_const_iterator@V?$_String_val@U?$_Simple_types@D@std@@@std@@@std@@@0@PAU120@IAAV?$allocator@U_Grp_t@?$_Tgt_state_t@V?$_String_const_iterator@V?$_String_val@U?$_Simple_types@D@std@@@std@@@std@@@std@@@0@@Z
	??$_Uninitialized_value_construct_n@V?$allocator@U_Loop_vals_t@std@@@std@@@std@@YAPAU_Loop_vals_t@0@PAU10@IAAV?$allocator@U_Loop_vals_t@std@@@0@@Z
	??$_Uninitialized_value_construct_n@V?$allocator@Uwhisper_kv_cell@@@std@@@std@@YAPAUwhisper_kv_cell@@PAU1@IAAV?$allocator@Uwhisper_kv_cell@@@0@@Z
	??$_Uninitialized_value_construct_n@V?$allocator@Uwhisper_layer_decoder@@@std@@@std@@YAPAUwhisper_layer_decoder@@PAU1@IAAV?$allocator@Uwhisper_layer_decoder@@@0@@Z
	??$_Uninitialized_value_construct_n@V?$allocator@Uwhisper_layer_encoder@@@std@@@std@@YAPAUwhisper_layer_encoder@@PAU1@IAAV?$allocator@Uwhisper_layer_encoder@@@0@@Z
	??$_Uninitialized_value_construct_n@V?$allocator@Uwhisper_token_data@@@std@@@std@@YAPAUwhisper_token_data@@PAU1@IAAV?$allocator@Uwhisper_token_data@@@0@@Z
	??$_Uninitialized_value_construct_n@V?$allocator@Uwhisper_vad_segment@@@std@@@std@@YAPAUwhisper_vad_segment@@PAU1@IAAV?$allocator@Uwhisper_vad_segment@@@0@@Z
	??$_Uninitialized_value_construct_n@V?$allocator@V?$sub_match@PBD@std@@@std@@@std@@YAPAV?$sub_match@PBD@0@PAV10@IAAV?$allocator@V?$sub_match@PBD@std@@@0@@Z
	??$_Uninitialized_value_construct_n@V?$allocator@V?$sub_match@V?$_String_const_iterator@V?$_String_val@U?$_Simple_types@D@std@@@std@@@std@@@std@@@std@@@std@@YAPAV?$sub_match@V?$_String_const_iterator@V?$_String_val@U?$_Simple_types@D@std@@@std@@@std@@@0@PAV10@IAAV?$allocator@V?$sub_match@V?$_String_const_iterator@V?$_String_val@U?$_Simple_types@D@std@@@std@@@std@@@std@@@0@@Z
	??$_Uninitialized_value_construct_n@V?$allocator@V?$vector@Uwhisper_grammar_element@@V?$allocator@Uwhisper_grammar_element@@@std@@@std@@@std@@@std@@YAPAV?$vector@Uwhisper_grammar_element@@V?$allocator@Uwhisper_grammar_element@@@std@@@0@PAV10@IAAV?$allocator@V?$vector@Uwhisper_grammar_element@@V?$allocator@Uwhisper_grammar_element@@@std@@@std@@@0@@Z
	??$_Uninitialized_value_construct_n@V?$allocator@Vthread@std@@@std@@@std@@YAPAVthread@0@PAV10@IAAV?$allocator@Vthread@std@@@0@@Z
	??$_Verify_range@D@std@@YAXQBD0@Z
	??$_Verify_range@H@std@@YAXQBH0@Z
	??$_Verify_range@I@std@@YAXQBI0@Z
	??$_Verify_range@M@std@@YAXQBM0@Z
	??$_Verify_range@N@std@@YAXQBN0@Z
	??$_Verify_range@PBUwhisper_grammar_element@@@std@@YAXQBQBUwhisper_grammar_element@@0@Z
	??$_Verify_range@U?$pair@$$CBV?$basic_string@DU?$char_traits@D@std@@V?$allocator@D@2@@std@@U?$pair@HV?$basic_string@DU?$char_traits@D@std@@V?$allocator@D@2@@std@@@2@@std@@@std@@YAXQBU?$pair@$$CBV?$basic_string@DU?$char_traits@D@std@@V?$allocator@D@2@@std@@U?$pair@HV?$basic_string@DU?$char_traits@D@std@@V?$allocator@D@2@@std@@@2@@0@0@Z
	??$_Verify_range@U?$pair@$$CBW4asr_system@@V?$map@W4asr_tensor@@PBDU?$less@W4asr_tensor@@@std@@V?$allocator@U?$pair@$$CBW4asr_tensor@@PBD@std@@@3@@std@@@std@@@std@@YAXQBU?$pair@$$CBW4asr_system@@V?$map@W4asr_tensor@@PBDU?$less@W4asr_tensor@@@std@@V?$allocator@U?$pair@$$CBW4asr_tensor@@PBD@std@@@3@@std@@@0@0@Z
	??$_Verify_range@U?$pair@$$CBW4asr_tensor@@PBD@std@@@std@@YAXQBU?$pair@$$CBW4asr_tensor@@PBD@0@0@Z
	??$_Verify_range@U?$pair@$$CBW4asr_tensor@@W4ggml_op@@@std@@@std@@YAXQBU?$pair@$$CBW4asr_tensor@@W4ggml_op@@@0@0@Z
	??$_Verify_range@U?$pair@$$CBW4e_model@@V?$basic_string@DU?$char_traits@D@std@@V?$allocator@D@2@@std@@@std@@@std@@YAXQBU?$pair@$$CBW4e_model@@V?$basic_string@DU?$char_traits@D@std@@V?$allocator@D@2@@std@@@0@0@Z
	??$_Verify_range@U?$pair@$$CBW4vad_tensor@@PBD@std@@@std@@YAXQBU?$pair@$$CBW4vad_tensor@@PBD@0@0@Z
	??$_Verify_range@U?$pair@$$CBW4vad_tensor@@W4ggml_op@@@std@@@std@@YAXQBU?$pair@$$CBW4vad_tensor@@W4ggml_op@@@0@0@Z
	??$_Verify_range@U?$pair@$$CBW4whisper_alignment_heads_preset@@Uwhisper_aheads@@@std@@@std@@YAXQBU?$pair@$$CBW4whisper_alignment_heads_preset@@Uwhisper_aheads@@@0@0@Z
	??$_Verify_range@U_Grp_t@?$_Tgt_state_t@PBD@std@@@std@@YAXQBU_Grp_t@?$_Tgt_state_t@PBD@0@0@Z
	??$_Verify_range@U_Grp_t@?$_Tgt_state_t@V?$_String_const_iterator@V?$_String_val@U?$_Simple_types@D@std@@@std@@@std@@@std@@@std@@YAXQBU_Grp_t@?$_Tgt_state_t@V?$_String_const_iterator@V?$_String_val@U?$_Simple_types@D@std@@@std@@@std@@@0@0@Z
	??$_Verify_range@Uwhisper_grammar_element@@@std@@YAXQBUwhisper_grammar_element@@0@Z
	??$_Verify_range@Uwhisper_token_data@@@std@@YAXQBUwhisper_token_data@@0@Z
	??$_Verify_range@V?$vector@PBUwhisper_grammar_element@@V?$allocator@PBUwhisper_grammar_element@@@std@@@std@@@std@@YAXQBV?$vector@PBUwhisper_grammar_element@@V?$allocator@PBUwhisper_grammar_element@@@std@@@0@0@Z
	??$_Verify_range@V?$vector@Uwhisper_grammar_element@@V?$allocator@Uwhisper_grammar_element@@@std@@@std@@@std@@YAXQBV?$vector@Uwhisper_grammar_element@@V?$allocator@Uwhisper_grammar_element@@@std@@@0@0@Z
	??$_Voidify_iter@PAD@std@@YAPAXPAD@Z
	??$_Voidify_iter@PAE@std@@YAPAXPAE@Z
	??$_Voidify_iter@PAH@std@@YAPAXPAH@Z
	??$_Voidify_iter@PAI@std@@YAPAXPAI@Z
	??$_Voidify_iter@PAM@std@@YAPAXPAM@Z
	??$_Voidify_iter@PAN@std@@YAPAXPAN@Z
	??$_Voidify_iter@PAPAD@std@@YAPAXPAPAD@Z
	??$_Voidify_iter@PAPAU?$_Tree_node@HPAX@std@@@std@@YAPAXPAPAU?$_Tree_node@HPAX@0@@Z
	??$_Voidify_iter@PAPAU?$_Tree_node@U?$pair@$$CBHH@std@@PAX@std@@@std@@YAPAXPAPAU?$_Tree_node@U?$pair@$$CBHH@std@@PAX@0@@Z
	??$_Voidify_iter@PAPAU?$_Tree_node@U?$pair@$$CBHV?$basic_string@DU?$char_traits@D@std@@V?$allocator@D@2@@std@@@std@@PAX@std@@@std@@YAPAXPAPAU?$_Tree_node@U?$pair@$$CBHV?$basic_string@DU?$char_traits@D@std@@V?$allocator@D@2@@std@@@std@@PAX@0@@Z
	??$_Voidify_iter@PAPAU?$_Tree_node@U?$pair@$$CBV?$basic_string@DU?$char_traits@D@std@@V?$allocator@D@2@@std@@H@std@@PAX@std@@@std@@YAPAXPAPAU?$_Tree_node@U?$pair@$$CBV?$basic_string@DU?$char_traits@D@std@@V?$allocator@D@2@@std@@H@std@@PAX@0@@Z
	??$_Voidify_iter@PAPAU?$_Tree_node@U?$pair@$$CBV?$basic_string@DU?$char_traits@D@std@@V?$allocator@D@2@@std@@PAUggml_tensor@@@std@@PAX@std@@@std@@YAPAXPAPAU?$_Tree_node@U?$pair@$$CBV?$basic_string@DU?$char_traits@D@std@@V?$allocator@D@2@@std@@PAUggml_tensor@@@std@@PAX@0@@Z
	??$_Voidify_iter@PAPAU?$_Tree_node@U?$pair@$$CBV?$basic_string@DU?$char_traits@D@std@@V?$allocator@D@2@@std@@U?$pair@HV?$basic_string@DU?$char_traits@D@std@@V?$allocator@D@2@@std@@@2@@std@@PAX@std@@@std@@YAPAXPAPAU?$_Tree_node@U?$pair@$$CBV?$basic_string@DU?$char_traits@D@std@@V?$allocator@D@2@@std@@U?$pair@HV?$basic_string@DU?$char_traits@D@std@@V?$allocator@D@2@@std@@@2@@std@@PAX@0@@Z
	??$_Voidify_iter@PAPAU?$_Tree_node@U?$pair@$$CBW4asr_system@@V?$map@W4asr_tensor@@PBDU?$less@W4asr_tensor@@@std@@V?$allocator@U?$pair@$$CBW4asr_tensor@@PBD@std@@@3@@std@@@std@@PAX@std@@@std@@YAPAXPAPAU?$_Tree_node@U?$pair@$$CBW4asr_system@@V?$map@W4asr_tensor@@PBDU?$less@W4asr_tensor@@@std@@V?$allocator@U?$pair@$$CBW4asr_tensor@@PBD@std@@@3@@std@@@std@@PAX@0@@Z
	??$_Voidify_iter@PAPAU?$_Tree_node@U?$pair@$$CBW4asr_tensor@@PBD@std@@PAX@std@@@std@@YAPAXPAPAU?$_Tree_node@U?$pair@$$CBW4asr_tensor@@PBD@std@@PAX@0@@Z
	??$_Voidify_iter@PAPAU?$_Tree_node@U?$pair@$$CBW4asr_tensor@@W4ggml_op@@@std@@PAX@std@@@std@@YAPAXPAPAU?$_Tree_node@U?$pair@$$CBW4asr_tensor@@W4ggml_op@@@std@@PAX@0@@Z
	??$_Voidify_iter@PAPAU?$_Tree_node@U?$pair@$$CBW4e_model@@V?$basic_string@DU?$char_traits@D@std@@V?$allocator@D@2@@std@@@std@@PAX@std@@@std@@YAPAXPAPAU?$_Tree_node@U?$pair@$$CBW4e_model@@V?$basic_string@DU?$char_traits@D@std@@V?$allocator@D@2@@std@@@std@@PAX@0@@Z
	??$_Voidify_iter@PAPAU?$_Tree_node@U?$pair@$$CBW4vad_tensor@@PBD@std@@PAX@std@@@std@@YAPAXPAPAU?$_Tree_node@U?$pair@$$CBW4vad_tensor@@PBD@std@@PAX@0@@Z
	??$_Voidify_iter@PAPAU?$_Tree_node@U?$pair@$$CBW4vad_tensor@@W4ggml_op@@@std@@PAX@std@@@std@@YAPAXPAPAU?$_Tree_node@U?$pair@$$CBW4vad_tensor@@W4ggml_op@@@std@@PAX@0@@Z
	??$_Voidify_iter@PAPAU?$_Tree_node@U?$pair@$$CBW4whisper_alignment_heads_preset@@Uwhisper_aheads@@@std@@PAX@std@@@std@@YAPAXPAPAU?$_Tree_node@U?$pair@$$CBW4whisper_alignment_heads_preset@@Uwhisper_aheads@@@std@@PAX@0@@Z
	??$_Voidify_iter@PAPAU?$_Tree_node@U?$pair@QAUggml_backend_buffer_type@@PAUggml_context@@@std@@PAX@std@@@std@@YAPAXPAPAU?$_Tree_node@U?$pair@QAUggml_backend_buffer_type@@PAUggml_context@@@std@@PAX@0@@Z
	??$_Voidify_iter@PAPAUggml_backend@@@std@@YAPAXPAPAUggml_backend@@@Z
	??$_Voidify_iter@PAPAUggml_backend_buffer@@@std@@YAPAXPAPAUggml_backend_buffer@@@Z
	??$_Voidify_iter@PAPAUggml_context@@@std@@YAPAXPAPAUggml_context@@@Z
	??$_Voidify_iter@PAPAUggml_tensor@@@std@@YAPAXPAPAUggml_tensor@@@Z
	??$_Voidify_iter@PAPAUwhisper_state@@@std@@YAPAXPAPAUwhisper_state@@@Z
	??$_Voidify_iter@PAPA_W@std@@YAPAXPAPA_W@Z
	??$_Voidify_iter@PAPBUwhisper_grammar_element@@@std@@YAPAXPAPBUwhisper_grammar_element@@@Z
	??$_Voidify_iter@PAU?$pair@$$CBHH@std@@@std@@YAPAXPAU?$pair@$$CBHH@0@@Z
	??$_Voidify_iter@PAU?$pair@$$CBHV?$basic_string@DU?$char_traits@D@std@@V?$allocator@D@2@@std@@@std@@@std@@YAPAXPAU?$pair@$$CBHV?$basic_string@DU?$char_traits@D@std@@V?$allocator@D@2@@std@@@0@@Z
	??$_Voidify_iter@PAU?$pair@$$CBV?$basic_string@DU?$char_traits@D@std@@V?$allocator@D@2@@std@@H@std@@@std@@YAPAXPAU?$pair@$$CBV?$basic_string@DU?$char_traits@D@std@@V?$allocator@D@2@@std@@H@0@@Z
	??$_Voidify_iter@PAU?$pair@$$CBV?$basic_string@DU?$char_traits@D@std@@V?$allocator@D@2@@std@@PAUggml_tensor@@@std@@@std@@YAPAXPAU?$pair@$$CBV?$basic_string@DU?$char_traits@D@std@@V?$allocator@D@2@@std@@PAUggml_tensor@@@0@@Z
	??$_Voidify_iter@PAU?$pair@$$CBV?$basic_string@DU?$char_traits@D@std@@V?$allocator@D@2@@std@@U?$pair@HV?$basic_string@DU?$char_traits@D@std@@V?$allocator@D@2@@std@@@2@@std@@@std@@YAPAXPAU?$pair@$$CBV?$basic_string@DU?$char_traits@D@std@@V?$allocator@D@2@@std@@U?$pair@HV?$basic_string@DU?$char_traits@D@std@@V?$allocator@D@2@@std@@@2@@0@@Z
	??$_Voidify_iter@PAU?$pair@$$CBW4asr_system@@V?$map@W4asr_tensor@@PBDU?$less@W4asr_tensor@@@std@@V?$allocator@U?$pair@$$CBW4asr_tensor@@PBD@std@@@3@@std@@@std@@@std@@YAPAXPAU?$pair@$$CBW4asr_system@@V?$map@W4asr_tensor@@PBDU?$less@W4asr_tensor@@@std@@V?$allocator@U?$pair@$$CBW4asr_tensor@@PBD@std@@@3@@std@@@0@@Z
	??$_Voidify_iter@PAU?$pair@$$CBW4asr_tensor@@PBD@std@@@std@@YAPAXPAU?$pair@$$CBW4asr_tensor@@PBD@0@@Z
	??$_Voidify_iter@PAU?$pair@$$CBW4asr_tensor@@W4ggml_op@@@std@@@std@@YAPAXPAU?$pair@$$CBW4asr_tensor@@W4ggml_op@@@0@@Z
	??$_Voidify_iter@PAU?$pair@$$CBW4e_model@@V?$basic_string@DU?$char_traits@D@std@@V?$allocator@D@2@@std@@@std@@@std@@YAPAXPAU?$pair@$$CBW4e_model@@V?$basic_string@DU?$char_traits@D@std@@V?$allocator@D@2@@std@@@0@@Z
	??$_Voidify_iter@PAU?$pair@$$CBW4vad_tensor@@PBD@std@@@std@@YAPAXPAU?$pair@$$CBW4vad_tensor@@PBD@0@@Z
	??$_Voidify_iter@PAU?$pair@$$CBW4vad_tensor@@W4ggml_op@@@std@@@std@@YAPAXPAU?$pair@$$CBW4vad_tensor@@W4ggml_op@@@0@@Z
	??$_Voidify_iter@PAU?$pair@$$CBW4whisper_alignment_heads_preset@@Uwhisper_aheads@@@std@@@std@@YAPAXPAU?$pair@$$CBW4whisper_alignment_heads_preset@@Uwhisper_aheads@@@0@@Z
	??$_Voidify_iter@PAU?$pair@PAUggml_backend_device@@PAUggml_backend_buffer_type@@@std@@@std@@YAPAXPAU?$pair@PAUggml_backend_device@@PAUggml_backend_buffer_type@@@0@@Z
	??$_Voidify_iter@PAU?$pair@QAUggml_backend_buffer_type@@PAUggml_context@@@std@@@std@@YAPAXPAU?$pair@QAUggml_backend_buffer_type@@PAUggml_context@@@0@@Z
	??$_Voidify_iter@PAU?$pair@V?$vector@IV?$allocator@I@std@@@std@@Uwhisper_partial_utf8@@@std@@@std@@YAPAXPAU?$pair@V?$vector@IV?$allocator@I@std@@@std@@Uwhisper_partial_utf8@@@0@@Z
	??$_Voidify_iter@PAU?$whisper_pair@NH@@@std@@YAPAXPAU?$whisper_pair@NH@@@Z
	??$_Voidify_iter@PAU_Container_proxy@std@@@std@@YAPAXPAU_Container_proxy@0@@Z
	??$_Voidify_iter@PAU_Grp_t@?$_Tgt_state_t@PBD@std@@@std@@YAPAXPAU_Grp_t@?$_Tgt_state_t@PBD@0@@Z
	??$_Voidify_iter@PAU_Grp_t@?$_Tgt_state_t@V?$_String_const_iterator@V?$_String_val@U?$_Simple_types@D@std@@@std@@@std@@@std@@@std@@YAPAXPAU_Grp_t@?$_Tgt_state_t@V?$_String_const_iterator@V?$_String_val@U?$_Simple_types@D@std@@@std@@@std@@@0@@Z
	??$_Voidify_iter@PAU_Loop_vals_t@std@@@std@@YAPAXPAU_Loop_vals_t@0@@Z
	??$_Voidify_iter@PAUvad_segment_info@whisper_state@@@std@@YAPAXPAUvad_segment_info@whisper_state@@@Z
	??$_Voidify_iter@PAUvad_time_mapping@@@std@@YAPAXPAUvad_time_mapping@@@Z
	??$_Voidify_iter@PAUwhisper_grammar_candidate@@@std@@YAPAXPAUwhisper_grammar_candidate@@@Z
	??$_Voidify_iter@PAUwhisper_grammar_element@@@std@@YAPAXPAUwhisper_grammar_element@@@Z
	??$_Voidify_iter@PAUwhisper_kv_cell@@@std@@YAPAXPAUwhisper_kv_cell@@@Z
	??$_Voidify_iter@PAUwhisper_layer_decoder@@@std@@YAPAXPAUwhisper_layer_decoder@@@Z
	??$_Voidify_iter@PAUwhisper_layer_encoder@@@std@@YAPAXPAUwhisper_layer_encoder@@@Z
	??$_Voidify_iter@PAUwhisper_segment@@@std@@YAPAXPAUwhisper_segment@@@Z
	??$_Voidify_iter@PAUwhisper_token_data@@@std@@YAPAXPAUwhisper_token_data@@@Z
	??$_Voidify_iter@PAUwhisper_vad_segment@@@std@@YAPAXPAUwhisper_vad_segment@@@Z
	??$_Voidify_iter@PAV?$basic_string@DU?$char_traits@D@std@@V?$allocator@D@2@@std@@@std@@YAPAXPAV?$basic_string@DU?$char_traits@D@std@@V?$allocator@D@2@@0@@Z
	??$_Voidify_iter@PAV?$sub_match@PBD@std@@@std@@YAPAXPAV?$sub_match@PBD@0@@Z
	??$_Voidify_iter@PAV?$sub_match@V?$_String_const_iterator@V?$_String_val@U?$_Simple_types@D@std@@@std@@@std@@@std@@@std@@YAPAXPAV?$sub_match@V?$_String_const_iterator@V?$_String_val@U?$_Simple_types@D@std@@@std@@@std@@@0@@Z
	??$_Voidify_iter@PAV?$vector@PBUwhisper_grammar_element@@V?$allocator@PBUwhisper_grammar_element@@@std@@@std@@@std@@YAPAXPAV?$vector@PBUwhisper_grammar_element@@V?$allocator@PBUwhisper_grammar_element@@@std@@@0@@Z
	??$_Voidify_iter@PAV?$vector@Uwhisper_grammar_element@@V?$allocator@Uwhisper_grammar_element@@@std@@@std@@@std@@YAPAXPAV?$vector@Uwhisper_grammar_element@@V?$allocator@Uwhisper_grammar_element@@@std@@@0@@Z
	??$_Voidify_iter@PAVthread@std@@@std@@YAPAXPAVthread@0@@Z
	??$_Voidify_iter@PA_W@std@@YAPAXPA_W@Z
	??$_Within_limits@E@std@@YA_NABEU?$integral_constant@_N$00@0@U?$integral_constant@_N$0A@@0@22@Z
	??$_Within_limits@PBDE@std@@YA_NABQBDABE@Z
	??$_Zero_range@PAD@std@@YAPADQAD0@Z
	??$_Zero_range@PAE@std@@YAPAEQAE0@Z
	??$_Zero_range@PAH@std@@YAPAHQAH0@Z
	??$_Zero_range@PAM@std@@YAPAMQAM0@Z
	??$addressof@$$CBU?$pair@$$CBV?$basic_string@DU?$char_traits@D@std@@V?$allocator@D@2@@std@@H@std@@@std@@YAPBU?$pair@$$CBV?$basic_string@DU?$char_traits@D@std@@V?$allocator@D@2@@std@@H@0@ABU10@@Z
	??$addressof@$$CBUwhisper_filters@@@std@@YAPBUwhisper_filters@@ABU1@@Z
	??$addressof@$$CBV?$_String_val@U?$_Simple_types@D@std@@@std@@@std@@YAPBV?$_String_val@U?$_Simple_types@D@std@@@0@ABV10@@Z
	??$addressof@$$CBV?$_String_val@U?$_Simple_types@_W@std@@@std@@@std@@YAPBV?$_String_val@U?$_Simple_types@_W@std@@@0@ABV10@@Z
	??$addressof@$$CBV?$_Tree_val@U?$_Tree_simple_types@H@std@@@std@@@std@@YAPBV?$_Tree_val@U?$_Tree_simple_types@H@std@@@0@ABV10@@Z
	??$addressof@$$CBV?$_Tree_val@U?$_Tree_simple_types@U?$pair@$$CBHH@std@@@std@@@std@@@std@@YAPBV?$_Tree_val@U?$_Tree_simple_types@U?$pair@$$CBHH@std@@@std@@@0@ABV10@@Z
	??$addressof@$$CBV?$_Tree_val@U?$_Tree_simple_types@U?$pair@$$CBHV?$basic_string@DU?$char_traits@D@std@@V?$allocator@D@2@@std@@@std@@@std@@@std@@@std@@YAPBV?$_Tree_val@U?$_Tree_simple_types@U?$pair@$$CBHV?$basic_string@DU?$char_traits@D@std@@V?$allocator@D@2@@std@@@std@@@std@@@0@ABV10@@Z
	??$addressof@$$CBV?$_Tree_val@U?$_Tree_simple_types@U?$pair@$$CBV?$basic_string@DU?$char_traits@D@std@@V?$allocator@D@2@@std@@H@std@@@std@@@std@@@std@@YAPBV?$_Tree_val@U?$_Tree_simple_types@U?$pair@$$CBV?$basic_string@DU?$char_traits@D@std@@V?$allocator@D@2@@std@@H@std@@@std@@@0@ABV10@@Z
	??$addressof@$$CBV?$_Tree_val@U?$_Tree_simple_types@U?$pair@$$CBV?$basic_string@DU?$char_traits@D@std@@V?$allocator@D@2@@std@@PAUggml_tensor@@@std@@@std@@@std@@@std@@YAPBV?$_Tree_val@U?$_Tree_simple_types@U?$pair@$$CBV?$basic_string@DU?$char_traits@D@std@@V?$allocator@D@2@@std@@PAUggml_tensor@@@std@@@std@@@0@ABV10@@Z
	??$addressof@$$CBV?$_Tree_val@U?$_Tree_simple_types@U?$pair@$$CBV?$basic_string@DU?$char_traits@D@std@@V?$allocator@D@2@@std@@U?$pair@HV?$basic_string@DU?$char_traits@D@std@@V?$allocator@D@2@@std@@@2@@std@@@std@@@std@@@std@@YAPBV?$_Tree_val@U?$_Tree_simple_types@U?$pair@$$CBV?$basic_string@DU?$char_traits@D@std@@V?$allocator@D@2@@std@@U?$pair@HV?$basic_string@DU?$char_traits@D@std@@V?$allocator@D@2@@std@@@2@@std@@@std@@@0@ABV10@@Z
	??$addressof@$$CBV?$_Tree_val@U?$_Tree_simple_types@U?$pair@$$CBW4asr_system@@V?$map@W4asr_tensor@@PBDU?$less@W4asr_tensor@@@std@@V?$allocator@U?$pair@$$CBW4asr_tensor@@PBD@std@@@3@@std@@@std@@@std@@@std@@@std@@YAPBV?$_Tree_val@U?$_Tree_simple_types@U?$pair@$$CBW4asr_system@@V?$map@W4asr_tensor@@PBDU?$less@W4asr_tensor@@@std@@V?$allocator@U?$pair@$$CBW4asr_tensor@@PBD@std@@@3@@std@@@std@@@std@@@0@ABV10@@Z
	??$addressof@$$CBV?$_Tree_val@U?$_Tree_simple_types@U?$pair@$$CBW4asr_tensor@@PBD@std@@@std@@@std@@@std@@YAPBV?$_Tree_val@U?$_Tree_simple_types@U?$pair@$$CBW4asr_tensor@@PBD@std@@@std@@@0@ABV10@@Z
	??$addressof@$$CBV?$_Tree_val@U?$_Tree_simple_types@U?$pair@$$CBW4asr_tensor@@W4ggml_op@@@std@@@std@@@std@@@std@@YAPBV?$_Tree_val@U?$_Tree_simple_types@U?$pair@$$CBW4asr_tensor@@W4ggml_op@@@std@@@std@@@0@ABV10@@Z
	??$addressof@$$CBV?$_Tree_val@U?$_Tree_simple_types@U?$pair@$$CBW4e_model@@V?$basic_string@DU?$char_traits@D@std@@V?$allocator@D@2@@std@@@std@@@std@@@std@@@std@@YAPBV?$_Tree_val@U?$_Tree_simple_types@U?$pair@$$CBW4e_model@@V?$basic_string@DU?$char_traits@D@std@@V?$allocator@D@2@@std@@@std@@@std@@@0@ABV10@@Z
	??$addressof@$$CBV?$_Tree_val@U?$_Tree_simple_types@U?$pair@$$CBW4vad_tensor@@PBD@std@@@std@@@std@@@std@@YAPBV?$_Tree_val@U?$_Tree_simple_types@U?$pair@$$CBW4vad_tensor@@PBD@std@@@std@@@0@ABV10@@Z
	??$addressof@$$CBV?$_Tree_val@U?$_Tree_simple_types@U?$pair@$$CBW4vad_tensor@@W4ggml_op@@@std@@@std@@@std@@@std@@YAPBV?$_Tree_val@U?$_Tree_simple_types@U?$pair@$$CBW4vad_tensor@@W4ggml_op@@@std@@@std@@@0@ABV10@@Z
	??$addressof@$$CBV?$_Tree_val@U?$_Tree_simple_types@U?$pair@$$CBW4whisper_alignment_heads_preset@@Uwhisper_aheads@@@std@@@std@@@std@@@std@@YAPBV?$_Tree_val@U?$_Tree_simple_types@U?$pair@$$CBW4whisper_alignment_heads_preset@@Uwhisper_aheads@@@std@@@std@@@0@ABV10@@Z
	??$addressof@$$CBV?$_Tree_val@U?$_Tree_simple_types@U?$pair@QAUggml_backend_buffer_type@@PAUggml_context@@@std@@@std@@@std@@@std@@YAPBV?$_Tree_val@U?$_Tree_simple_types@U?$pair@QAUggml_backend_buffer_type@@PAUggml_context@@@std@@@std@@@0@ABV10@@Z
	??$addressof@$$CBV?$_Vector_val@U?$_Simple_types@I@std@@@std@@@std@@YAPBV?$_Vector_val@U?$_Simple_types@I@std@@@0@ABV10@@Z
	??$addressof@$$CBV?$_Vector_val@U?$_Simple_types@M@std@@@std@@@std@@YAPBV?$_Vector_val@U?$_Simple_types@M@std@@@0@ABV10@@Z
	??$addressof@$$CBV?$_Vector_val@U?$_Simple_types@N@std@@@std@@@std@@YAPBV?$_Vector_val@U?$_Simple_types@N@std@@@0@ABV10@@Z
	??$addressof@$$CBV?$_Vector_val@U?$_Simple_types@PBUwhisper_grammar_element@@@std@@@std@@@std@@YAPBV?$_Vector_val@U?$_Simple_types@PBUwhisper_grammar_element@@@std@@@0@ABV10@@Z
	??$addressof@$$CBV?$_Vector_val@U?$_Simple_types@Uvad_time_mapping@@@std@@@std@@@std@@YAPBV?$_Vector_val@U?$_Simple_types@Uvad_time_mapping@@@std@@@0@ABV10@@Z
	??$addressof@$$CBV?$basic_string@DU?$char_traits@D@std@@V?$allocator@D@2@@std@@@std@@YAPBV?$basic_string@DU?$char_traits@D@std@@V?$allocator@D@2@@0@ABV10@@Z
	??$addressof@$$CBV?$codecvt@DDU_Mbstatet@@@std@@@std@@YAPBV?$codecvt@DDU_Mbstatet@@@0@ABV10@@Z
	??$addressof@$$CBV?$collate@D@std@@@std@@YAPBV?$collate@D@0@ABV10@@Z
	??$addressof@$$CBV?$ctype@D@std@@@std@@YAPBV?$ctype@D@0@ABV10@@Z
	??$addressof@$$CBV?$vector@IV?$allocator@I@std@@@std@@@std@@YAPBV?$vector@IV?$allocator@I@std@@@0@ABV10@@Z
	??$addressof@$$CBV?$vector@MV?$allocator@M@std@@@std@@@std@@YAPBV?$vector@MV?$allocator@M@std@@@0@ABV10@@Z
	??$addressof@$$CBV?$vector@PBUwhisper_grammar_element@@V?$allocator@PBUwhisper_grammar_element@@@std@@@std@@@std@@YAPBV?$vector@PBUwhisper_grammar_element@@V?$allocator@PBUwhisper_grammar_element@@@std@@@0@ABV10@@Z
	??$addressof@$$CBV?$vector@U_Grp_t@?$_Tgt_state_t@PBD@std@@V?$allocator@U_Grp_t@?$_Tgt_state_t@PBD@std@@@3@@std@@@std@@YAPBV?$vector@U_Grp_t@?$_Tgt_state_t@PBD@std@@V?$allocator@U_Grp_t@?$_Tgt_state_t@PBD@std@@@3@@0@ABV10@@Z
	??$addressof@$$CBV?$vector@U_Grp_t@?$_Tgt_state_t@V?$_String_const_iterator@V?$_String_val@U?$_Simple_types@D@std@@@std@@@std@@@std@@V?$allocator@U_Grp_t@?$_Tgt_state_t@V?$_String_const_iterator@V?$_String_val@U?$_Simple_types@D@std@@@std@@@std@@@std@@@3@@std@@@std@@YAPBV?$vector@U_Grp_t@?$_Tgt_state_t@V?$_String_const_iterator@V?$_String_val@U?$_Simple_types@D@std@@@std@@@std@@@std@@V?$allocator@U_Grp_t@?$_Tgt_state_t@V?$_String_const_iterator@V?$_String_val@U?$_Simple_types@D@std@@@std@@@std@@@std@@@3@@0@ABV10@@Z
	??$addressof@$$CBV?$vector@Uwhisper_grammar_element@@V?$allocator@Uwhisper_grammar_element@@@std@@@std@@@std@@YAPBV?$vector@Uwhisper_grammar_element@@V?$allocator@Uwhisper_grammar_element@@@std@@@0@ABV10@@Z
	??$addressof@$$CBV?$vector@Uwhisper_token_data@@V?$allocator@Uwhisper_token_data@@@std@@@std@@@std@@YAPBV?$vector@Uwhisper_token_data@@V?$allocator@Uwhisper_token_data@@@std@@@0@ABV10@@Z
	??$addressof@$$CBV?$vector@V?$vector@PBUwhisper_grammar_element@@V?$allocator@PBUwhisper_grammar_element@@@std@@@std@@V?$allocator@V?$vector@PBUwhisper_grammar_element@@V?$allocator@PBUwhisper_grammar_element@@@std@@@std@@@2@@std@@@std@@YAPBV?$vector@V?$vector@PBUwhisper_grammar_element@@V?$allocator@PBUwhisper_grammar_element@@@std@@@std@@V?$allocator@V?$vector@PBUwhisper_grammar_element@@V?$allocator@PBUwhisper_grammar_element@@@std@@@std@@@2@@0@ABV10@@Z
	??$addressof@$$CBV?$vector@V?$vector@Uwhisper_grammar_element@@V?$allocator@Uwhisper_grammar_element@@@std@@@std@@V?$allocator@V?$vector@Uwhisper_grammar_element@@V?$allocator@Uwhisper_grammar_element@@@std@@@std@@@2@@std@@@std@@YAPBV?$vector@V?$vector@Uwhisper_grammar_element@@V?$allocator@Uwhisper_grammar_element@@@std@@@std@@V?$allocator@V?$vector@Uwhisper_grammar_element@@V?$allocator@Uwhisper_grammar_element@@@std@@@std@@@2@@0@ABV10@@Z
	??$addressof@$$CBV?$vector@_NV?$allocator@_N@std@@@std@@@std@@YAPBV?$vector@_NV?$allocator@_N@std@@@0@ABV10@@Z
	??$addressof@D@std@@YAPADAAD@Z
	??$addressof@H@std@@YAPAHAAH@Z
	??$addressof@PAD@std@@YAPAPADAAPAD@Z
	??$addressof@PAU?$_Sequence@D@std@@@std@@YAPAPAU?$_Sequence@D@0@AAPAU10@@Z
	??$addressof@PAU?$_Tree_node@HPAX@std@@@std@@YAPAPAU?$_Tree_node@HPAX@0@AAPAU10@@Z
	??$addressof@PAU?$_Tree_node@U?$pair@$$CBHH@std@@PAX@std@@@std@@YAPAPAU?$_Tree_node@U?$pair@$$CBHH@std@@PAX@0@AAPAU10@@Z
	??$addressof@PAU?$_Tree_node@U?$pair@$$CBHV?$basic_string@DU?$char_traits@D@std@@V?$allocator@D@2@@std@@@std@@PAX@std@@@std@@YAPAPAU?$_Tree_node@U?$pair@$$CBHV?$basic_string@DU?$char_traits@D@std@@V?$allocator@D@2@@std@@@std@@PAX@0@AAPAU10@@Z
	??$addressof@PAU?$_Tree_node@U?$pair@$$CBV?$basic_string@DU?$char_traits@D@std@@V?$allocator@D@2@@std@@H@std@@PAX@std@@@std@@YAPAPAU?$_Tree_node@U?$pair@$$CBV?$basic_string@DU?$char_traits@D@std@@V?$allocator@D@2@@std@@H@std@@PAX@0@AAPAU10@@Z
	??$addressof@PAU?$_Tree_node@U?$pair@$$CBV?$basic_string@DU?$char_traits@D@std@@V?$allocator@D@2@@std@@PAUggml_tensor@@@std@@PAX@std@@@std@@YAPAPAU?$_Tree_node@U?$pair@$$CBV?$basic_string@DU?$char_traits@D@std@@V?$allocator@D@2@@std@@PAUggml_tensor@@@std@@PAX@0@AAPAU10@@Z
	??$addressof@PAU?$_Tree_node@U?$pair@$$CBV?$basic_string@DU?$char_traits@D@std@@V?$allocator@D@2@@std@@U?$pair@HV?$basic_string@DU?$char_traits@D@std@@V?$allocator@D@2@@std@@@2@@std@@PAX@std@@@std@@YAPAPAU?$_Tree_node@U?$pair@$$CBV?$basic_string@DU?$char_traits@D@std@@V?$allocator@D@2@@std@@U?$pair@HV?$basic_string@DU?$char_traits@D@std@@V?$allocator@D@2@@std@@@2@@std@@PAX@0@AAPAU10@@Z
	??$addressof@PAU?$_Tree_node@U?$pair@$$CBW4asr_system@@V?$map@W4asr_tensor@@PBDU?$less@W4asr_tensor@@@std@@V?$allocator@U?$pair@$$CBW4asr_tensor@@PBD@std@@@3@@std@@@std@@PAX@std@@@std@@YAPAPAU?$_Tree_node@U?$pair@$$CBW4asr_system@@V?$map@W4asr_tensor@@PBDU?$less@W4asr_tensor@@@std@@V?$allocator@U?$pair@$$CBW4asr_tensor@@PBD@std@@@3@@std@@@std@@PAX@0@AAPAU10@@Z
	??$addressof@PAU?$_Tree_node@U?$pair@$$CBW4asr_tensor@@PBD@std@@PAX@std@@@std@@YAPAPAU?$_Tree_node@U?$pair@$$CBW4asr_tensor@@PBD@std@@PAX@0@AAPAU10@@Z
	??$addressof@PAU?$_Tree_node@U?$pair@$$CBW4asr_tensor@@W4ggml_op@@@std@@PAX@std@@@std@@YAPAPAU?$_Tree_node@U?$pair@$$CBW4asr_tensor@@W4ggml_op@@@std@@PAX@0@AAPAU10@@Z
	??$addressof@PAU?$_Tree_node@U?$pair@$$CBW4e_model@@V?$basic_string@DU?$char_traits@D@std@@V?$allocator@D@2@@std@@@std@@PAX@std@@@std@@YAPAPAU?$_Tree_node@U?$pair@$$CBW4e_model@@V?$basic_string@DU?$char_traits@D@std@@V?$allocator@D@2@@std@@@std@@PAX@0@AAPAU10@@Z
	??$addressof@PAU?$_Tree_node@U?$pair@$$CBW4vad_tensor@@PBD@std@@PAX@std@@@std@@YAPAPAU?$_Tree_node@U?$pair@$$CBW4vad_tensor@@PBD@std@@PAX@0@AAPAU10@@Z
	??$addressof@PAU?$_Tree_node@U?$pair@$$CBW4vad_tensor@@W4ggml_op@@@std@@PAX@std@@@std@@YAPAPAU?$_Tree_node@U?$pair@$$CBW4vad_tensor@@W4ggml_op@@@std@@PAX@0@AAPAU10@@Z
	??$addressof@PAU?$_Tree_node@U?$pair@$$CBW4whisper_alignment_heads_preset@@Uwhisper_aheads@@@std@@PAX@std@@@std@@YAPAPAU?$_Tree_node@U?$pair@$$CBW4whisper_alignment_heads_preset@@Uwhisper_aheads@@@std@@PAX@0@AAPAU10@@Z
	??$addressof@PAU?$_Tree_node@U?$pair@QAUggml_backend_buffer_type@@PAUggml_context@@@std@@PAX@std@@@std@@YAPAPAU?$_Tree_node@U?$pair@QAUggml_backend_buffer_type@@PAUggml_context@@@std@@PAX@0@AAPAU10@@Z
	??$addressof@PA_W@std@@YAPAPA_WAAPA_W@Z
	??$addressof@PBD@std@@YAPAPBDAAPBD@Z
	??$addressof@U?$pair@$$CBHH@std@@@std@@YAPAU?$pair@$$CBHH@0@AAU10@@Z
	??$addressof@U?$pair@$$CBHV?$basic_string@DU?$char_traits@D@std@@V?$allocator@D@2@@std@@@std@@@std@@YAPAU?$pair@$$CBHV?$basic_string@DU?$char_traits@D@std@@V?$allocator@D@2@@std@@@0@AAU10@@Z
	??$addressof@U?$pair@$$CBV?$basic_string@DU?$char_traits@D@std@@V?$allocator@D@2@@std@@H@std@@@std@@YAPAU?$pair@$$CBV?$basic_string@DU?$char_traits@D@std@@V?$allocator@D@2@@std@@H@0@AAU10@@Z
	??$addressof@U?$pair@$$CBV?$basic_string@DU?$char_traits@D@std@@V?$allocator@D@2@@std@@PAUggml_tensor@@@std@@@std@@YAPAU?$pair@$$CBV?$basic_string@DU?$char_traits@D@std@@V?$allocator@D@2@@std@@PAUggml_tensor@@@0@AAU10@@Z
	??$addressof@U?$pair@$$CBV?$basic_string@DU?$char_traits@D@std@@V?$allocator@D@2@@std@@U?$pair@HV?$basic_string@DU?$char_traits@D@std@@V?$allocator@D@2@@std@@@2@@std@@@std@@YAPAU?$pair@$$CBV?$basic_string@DU?$char_traits@D@std@@V?$allocator@D@2@@std@@U?$pair@HV?$basic_string@DU?$char_traits@D@std@@V?$allocator@D@2@@std@@@2@@0@AAU10@@Z
	??$addressof@U?$pair@$$CBW4asr_system@@V?$map@W4asr_tensor@@PBDU?$less@W4asr_tensor@@@std@@V?$allocator@U?$pair@$$CBW4asr_tensor@@PBD@std@@@3@@std@@@std@@@std@@YAPAU?$pair@$$CBW4asr_system@@V?$map@W4asr_tensor@@PBDU?$less@W4asr_tensor@@@std@@V?$allocator@U?$pair@$$CBW4asr_tensor@@PBD@std@@@3@@std@@@0@AAU10@@Z
	??$addressof@U?$pair@$$CBW4asr_tensor@@PBD@std@@@std@@YAPAU?$pair@$$CBW4asr_tensor@@PBD@0@AAU10@@Z
	??$addressof@U?$pair@$$CBW4asr_tensor@@W4ggml_op@@@std@@@std@@YAPAU?$pair@$$CBW4asr_tensor@@W4ggml_op@@@0@AAU10@@Z
	??$addressof@U?$pair@$$CBW4e_model@@V?$basic_string@DU?$char_traits@D@std@@V?$allocator@D@2@@std@@@std@@@std@@YAPAU?$pair@$$CBW4e_model@@V?$basic_string@DU?$char_traits@D@std@@V?$allocator@D@2@@std@@@0@AAU10@@Z
	??$addressof@U?$pair@$$CBW4vad_tensor@@PBD@std@@@std@@YAPAU?$pair@$$CBW4vad_tensor@@PBD@0@AAU10@@Z
	??$addressof@U?$pair@$$CBW4vad_tensor@@W4ggml_op@@@std@@@std@@YAPAU?$pair@$$CBW4vad_tensor@@W4ggml_op@@@0@AAU10@@Z
	??$addressof@U?$pair@$$CBW4whisper_alignment_heads_preset@@Uwhisper_aheads@@@std@@@std@@YAPAU?$pair@$$CBW4whisper_alignment_heads_preset@@Uwhisper_aheads@@@0@AAU10@@Z
	??$addressof@U?$pair@QAUggml_backend_buffer_type@@PAUggml_context@@@std@@@std@@YAPAU?$pair@QAUggml_backend_buffer_type@@PAUggml_context@@@0@AAU10@@Z
	??$addressof@U_Container_base12@std@@@std@@YAPAU_Container_base12@0@AAU10@@Z
	??$addressof@U_Container_proxy@std@@@std@@YAPAU_Container_proxy@0@AAU10@@Z
	??$addressof@Uwhisper_mel@@@std@@YAPAUwhisper_mel@@AAU1@@Z
	??$addressof@V?$_Builder@PBDDV?$regex_traits@D@std@@@std@@@std@@YAPAV?$_Builder@PBDDV?$regex_traits@D@std@@@0@AAV10@@Z
	??$addressof@V?$_String_const_iterator@V?$_String_val@U?$_Simple_types@D@std@@@std@@@std@@@std@@YAPAV?$_String_const_iterator@V?$_String_val@U?$_Simple_types@D@std@@@std@@@0@AAV10@@Z
	??$addressof@V?$_String_val@U?$_Simple_types@D@std@@@std@@@std@@YAPAV?$_String_val@U?$_Simple_types@D@std@@@0@AAV10@@Z
	??$addressof@V?$_String_val@U?$_Simple_types@_W@std@@@std@@@std@@YAPAV?$_String_val@U?$_Simple_types@_W@std@@@0@AAV10@@Z
	??$addressof@V?$_Tree_val@U?$_Tree_simple_types@H@std@@@std@@@std@@YAPAV?$_Tree_val@U?$_Tree_simple_types@H@std@@@0@AAV10@@Z
	??$addressof@V?$_Tree_val@U?$_Tree_simple_types@U?$pair@$$CBHH@std@@@std@@@std@@@std@@YAPAV?$_Tree_val@U?$_Tree_simple_types@U?$pair@$$CBHH@std@@@std@@@0@AAV10@@Z
	??$addressof@V?$_Tree_val@U?$_Tree_simple_types@U?$pair@$$CBHV?$basic_string@DU?$char_traits@D@std@@V?$allocator@D@2@@std@@@std@@@std@@@std@@@std@@YAPAV?$_Tree_val@U?$_Tree_simple_types@U?$pair@$$CBHV?$basic_string@DU?$char_traits@D@std@@V?$allocator@D@2@@std@@@std@@@std@@@0@AAV10@@Z
	??$addressof@V?$_Tree_val@U?$_Tree_simple_types@U?$pair@$$CBV?$basic_string@DU?$char_traits@D@std@@V?$allocator@D@2@@std@@H@std@@@std@@@std@@@std@@YAPAV?$_Tree_val@U?$_Tree_simple_types@U?$pair@$$CBV?$basic_string@DU?$char_traits@D@std@@V?$allocator@D@2@@std@@H@std@@@std@@@0@AAV10@@Z
	??$addressof@V?$_Tree_val@U?$_Tree_simple_types@U?$pair@$$CBV?$basic_string@DU?$char_traits@D@std@@V?$allocator@D@2@@std@@PAUggml_tensor@@@std@@@std@@@std@@@std@@YAPAV?$_Tree_val@U?$_Tree_simple_types@U?$pair@$$CBV?$basic_string@DU?$char_traits@D@std@@V?$allocator@D@2@@std@@PAUggml_tensor@@@std@@@std@@@0@AAV10@@Z
	??$addressof@V?$_Tree_val@U?$_Tree_simple_types@U?$pair@$$CBV?$basic_string@DU?$char_traits@D@std@@V?$allocator@D@2@@std@@U?$pair@HV?$basic_string@DU?$char_traits@D@std@@V?$allocator@D@2@@std@@@2@@std@@@std@@@std@@@std@@YAPAV?$_Tree_val@U?$_Tree_simple_types@U?$pair@$$CBV?$basic_string@DU?$char_traits@D@std@@V?$allocator@D@2@@std@@U?$pair@HV?$basic_string@DU?$char_traits@D@std@@V?$allocator@D@2@@std@@@2@@std@@@std@@@0@AAV10@@Z
	??$addressof@V?$_Tree_val@U?$_Tree_simple_types@U?$pair@$$CBW4asr_system@@V?$map@W4asr_tensor@@PBDU?$less@W4asr_tensor@@@std@@V?$allocator@U?$pair@$$CBW4asr_tensor@@PBD@std@@@3@@std@@@std@@@std@@@std@@@std@@YAPAV?$_Tree_val@U?$_Tree_simple_types@U?$pair@$$CBW4asr_system@@V?$map@W4asr_tensor@@PBDU?$less@W4asr_tensor@@@std@@V?$allocator@U?$pair@$$CBW4asr_tensor@@PBD@std@@@3@@std@@@std@@@std@@@0@AAV10@@Z
	??$addressof@V?$_Tree_val@U?$_Tree_simple_types@U?$pair@$$CBW4asr_tensor@@PBD@std@@@std@@@std@@@std@@YAPAV?$_Tree_val@U?$_Tree_simple_types@U?$pair@$$CBW4asr_tensor@@PBD@std@@@std@@@0@AAV10@@Z
	??$addressof@V?$_Tree_val@U?$_Tree_simple_types@U?$pair@$$CBW4asr_tensor@@W4ggml_op@@@std@@@std@@@std@@@std@@YAPAV?$_Tree_val@U?$_Tree_simple_types@U?$pair@$$CBW4asr_tensor@@W4ggml_op@@@std@@@std@@@0@AAV10@@Z
	??$addressof@V?$_Tree_val@U?$_Tree_simple_types@U?$pair@$$CBW4e_model@@V?$basic_string@DU?$char_traits@D@std@@V?$allocator@D@2@@std@@@std@@@std@@@std@@@std@@YAPAV?$_Tree_val@U?$_Tree_simple_types@U?$pair@$$CBW4e_model@@V?$basic_string@DU?$char_traits@D@std@@V?$allocator@D@2@@std@@@std@@@std@@@0@AAV10@@Z
	??$addressof@V?$_Tree_val@U?$_Tree_simple_types@U?$pair@$$CBW4vad_tensor@@PBD@std@@@std@@@std@@@std@@YAPAV?$_Tree_val@U?$_Tree_simple_types@U?$pair@$$CBW4vad_tensor@@PBD@std@@@std@@@0@AAV10@@Z
	??$addressof@V?$_Tree_val@U?$_Tree_simple_types@U?$pair@$$CBW4vad_tensor@@W4ggml_op@@@std@@@std@@@std@@@std@@YAPAV?$_Tree_val@U?$_Tree_simple_types@U?$pair@$$CBW4vad_tensor@@W4ggml_op@@@std@@@std@@@0@AAV10@@Z
	??$addressof@V?$_Tree_val@U?$_Tree_simple_types@U?$pair@$$CBW4whisper_alignment_heads_preset@@Uwhisper_aheads@@@std@@@std@@@std@@@std@@YAPAV?$_Tree_val@U?$_Tree_simple_types@U?$pair@$$CBW4whisper_alignment_heads_preset@@Uwhisper_aheads@@@std@@@std@@@0@AAV10@@Z
	??$addressof@V?$_Tree_val@U?$_Tree_simple_types@U?$pair@QAUggml_backend_buffer_type@@PAUggml_context@@@std@@@std@@@std@@@std@@YAPAV?$_Tree_val@U?$_Tree_simple_types@U?$pair@QAUggml_backend_buffer_type@@PAUggml_context@@@std@@@std@@@0@AAV10@@Z
	??$addressof@V?$_Vector_val@U?$_Simple_types@H@std@@@std@@@std@@YAPAV?$_Vector_val@U?$_Simple_types@H@std@@@0@AAV10@@Z
	??$addressof@V?$_Vector_val@U?$_Simple_types@I@std@@@std@@@std@@YAPAV?$_Vector_val@U?$_Simple_types@I@std@@@0@AAV10@@Z
	??$addressof@V?$_Vector_val@U?$_Simple_types@M@std@@@std@@@std@@YAPAV?$_Vector_val@U?$_Simple_types@M@std@@@0@AAV10@@Z
	??$addressof@V?$_Vector_val@U?$_Simple_types@U?$whisper_pair@NH@@@std@@@std@@@std@@YAPAV?$_Vector_val@U?$_Simple_types@U?$whisper_pair@NH@@@std@@@0@AAV10@@Z
	??$addressof@V?$_Vector_val@U?$_Simple_types@Uvad_time_mapping@@@std@@@std@@@std@@YAPAV?$_Vector_val@U?$_Simple_types@Uvad_time_mapping@@@std@@@0@AAV10@@Z
	??$addressof@V?$_Vector_val@U?$_Simple_types@Uwhisper_segment@@@std@@@std@@@std@@YAPAV?$_Vector_val@U?$_Simple_types@Uwhisper_segment@@@std@@@0@AAV10@@Z
	??$addressof@V?$_Vector_val@U?$_Simple_types@Uwhisper_token_data@@@std@@@std@@@std@@YAPAV?$_Vector_val@U?$_Simple_types@Uwhisper_token_data@@@std@@@0@AAV10@@Z
	??$addressof@V?$basic_filebuf@DU?$char_traits@D@std@@@std@@@std@@YAPAV?$basic_filebuf@DU?$char_traits@D@std@@@0@AAV10@@Z
	??$addressof@V?$basic_string@DU?$char_traits@D@std@@V?$allocator@D@2@@std@@@std@@YAPAV?$basic_string@DU?$char_traits@D@std@@V?$allocator@D@2@@0@AAV10@@Z
	??$addressof@V?$match_results@V?$_String_const_iterator@V?$_String_val@U?$_Simple_types@D@std@@@std@@@std@@V?$allocator@V?$sub_match@V?$_String_const_iterator@V?$_String_val@U?$_Simple_types@D@std@@@std@@@std@@@std@@@2@@std@@@std@@YAPAV?$match_results@V?$_String_const_iterator@V?$_String_val@U?$_Simple_types@D@std@@@std@@@std@@V?$allocator@V?$sub_match@V?$_String_const_iterator@V?$_String_val@U?$_Simple_types@D@std@@@std@@@std@@@std@@@2@@0@AAV10@@Z
	??$addressof@V?$vector@MV?$allocator@M@std@@@std@@@std@@YAPAV?$vector@MV?$allocator@M@std@@@0@AAV10@@Z
	??$addressof@V?$vector@PAUggml_backend@@V?$allocator@PAUggml_backend@@@std@@@std@@@std@@YAPAV?$vector@PAUggml_backend@@V?$allocator@PAUggml_backend@@@std@@@0@AAV10@@Z
	??$addressof@V?$vector@Uwhisper_grammar_candidate@@V?$allocator@Uwhisper_grammar_candidate@@@std@@@std@@@std@@YAPAV?$vector@Uwhisper_grammar_candidate@@V?$allocator@Uwhisper_grammar_candidate@@@std@@@0@AAV10@@Z
	??$addressof@V?$vector@Uwhisper_token_data@@V?$allocator@Uwhisper_token_data@@@std@@@std@@@std@@YAPAV?$vector@Uwhisper_token_data@@V?$allocator@Uwhisper_token_data@@@std@@@0@AAV10@@Z
	??$addressof@V?$vector@Uwhisper_vad_segment@@V?$allocator@Uwhisper_vad_segment@@@std@@@std@@@std@@YAPAV?$vector@Uwhisper_vad_segment@@V?$allocator@Uwhisper_vad_segment@@@std@@@0@AAV10@@Z
	??$addressof@V?$vector@V?$vector@PBUwhisper_grammar_element@@V?$allocator@PBUwhisper_grammar_element@@@std@@@std@@V?$allocator@V?$vector@PBUwhisper_grammar_element@@V?$allocator@PBUwhisper_grammar_element@@@std@@@std@@@2@@std@@@std@@YAPAV?$vector@V?$vector@PBUwhisper_grammar_element@@V?$allocator@PBUwhisper_grammar_element@@@std@@@std@@V?$allocator@V?$vector@PBUwhisper_grammar_element@@V?$allocator@PBUwhisper_grammar_element@@@std@@@std@@@2@@0@AAV10@@Z
	??$addressof@V?$vector@V?$vector@Uwhisper_grammar_element@@V?$allocator@Uwhisper_grammar_element@@@std@@@std@@V?$allocator@V?$vector@Uwhisper_grammar_element@@V?$allocator@Uwhisper_grammar_element@@@std@@@std@@@2@@std@@@std@@YAPAV?$vector@V?$vector@Uwhisper_grammar_element@@V?$allocator@Uwhisper_grammar_element@@@std@@@std@@V?$allocator@V?$vector@Uwhisper_grammar_element@@V?$allocator@Uwhisper_grammar_element@@@std@@@std@@@2@@0@AAV10@@Z
	??$advance@PAIH@std@@YAXAAPAIH@Z
	??$advance@PAPBUwhisper_grammar_element@@H@std@@YAXAAPAPBUwhisper_grammar_element@@H@Z
	??$advance@PAU_Grp_t@?$_Tgt_state_t@PBD@std@@H@std@@YAXAAPAU_Grp_t@?$_Tgt_state_t@PBD@0@H@Z
	??$advance@PAU_Grp_t@?$_Tgt_state_t@V?$_String_const_iterator@V?$_String_val@U?$_Simple_types@D@std@@@std@@@std@@@std@@H@std@@YAXAAPAU_Grp_t@?$_Tgt_state_t@V?$_String_const_iterator@V?$_String_val@U?$_Simple_types@D@std@@@std@@@std@@@0@H@Z
	??$advance@PAUwhisper_grammar_element@@H@std@@YAXAAPAUwhisper_grammar_element@@H@Z
	??$advance@PAUwhisper_token_data@@H@std@@YAXAAPAUwhisper_token_data@@H@Z
	??$advance@PAV?$vector@PBUwhisper_grammar_element@@V?$allocator@PBUwhisper_grammar_element@@@std@@@std@@H@std@@YAXAAPAV?$vector@PBUwhisper_grammar_element@@V?$allocator@PBUwhisper_grammar_element@@@std@@@0@H@Z
	??$advance@PAV?$vector@Uwhisper_grammar_element@@V?$allocator@Uwhisper_grammar_element@@@std@@@std@@H@std@@YAXAAPAV?$vector@Uwhisper_grammar_element@@V?$allocator@Uwhisper_grammar_element@@@std@@@0@H@Z
	??$advance@PBHH@std@@YAXAAPBHH@Z
	??$advance@PBNH@std@@YAXAAPBNH@Z
	??$advance@PBUvad_time_mapping@@H@std@@YAXAAPBUvad_time_mapping@@H@Z
	??$assign@PAI$0A@@?$vector@IV?$allocator@I@std@@@std@@QAEXPAI0@Z
	??$assign@PAPBUwhisper_grammar_element@@$0A@@?$vector@PBUwhisper_grammar_element@@V?$allocator@PBUwhisper_grammar_element@@@std@@@std@@QAEXPAPBUwhisper_grammar_element@@0@Z
	??$assign@PAU_Grp_t@?$_Tgt_state_t@PBD@std@@$0A@@?$vector@U_Grp_t@?$_Tgt_state_t@PBD@std@@V?$allocator@U_Grp_t@?$_Tgt_state_t@PBD@std@@@3@@std@@QAEXPAU_Grp_t@?$_Tgt_state_t@PBD@1@0@Z
	??$assign@PAU_Grp_t@?$_Tgt_state_t@V?$_String_const_iterator@V?$_String_val@U?$_Simple_types@D@std@@@std@@@std@@@std@@$0A@@?$vector@U_Grp_t@?$_Tgt_state_t@V?$_String_const_iterator@V?$_String_val@U?$_Simple_types@D@std@@@std@@@std@@@std@@V?$allocator@U_Grp_t@?$_Tgt_state_t@V?$_String_const_iterator@V?$_String_val@U?$_Simple_types@D@std@@@std@@@std@@@std@@@3@@std@@QAEXPAU_Grp_t@?$_Tgt_state_t@V?$_String_const_iterator@V?$_String_val@U?$_Simple_types@D@std@@@std@@@std@@@1@0@Z
	??$assign@PAUwhisper_grammar_element@@$0A@@?$vector@Uwhisper_grammar_element@@V?$allocator@Uwhisper_grammar_element@@@std@@@std@@QAEXPAUwhisper_grammar_element@@0@Z
	??$assign@PAUwhisper_token_data@@$0A@@?$vector@Uwhisper_token_data@@V?$allocator@Uwhisper_token_data@@@std@@@std@@QAEXPAUwhisper_token_data@@0@Z
	??$assign@PAV?$vector@PBUwhisper_grammar_element@@V?$allocator@PBUwhisper_grammar_element@@@std@@@std@@$0A@@?$vector@V?$vector@PBUwhisper_grammar_element@@V?$allocator@PBUwhisper_grammar_element@@@std@@@std@@V?$allocator@V?$vector@PBUwhisper_grammar_element@@V?$allocator@PBUwhisper_grammar_element@@@std@@@std@@@2@@std@@QAEXPAV?$vector@PBUwhisper_grammar_element@@V?$allocator@PBUwhisper_grammar_element@@@std@@@1@0@Z
	??$assign@PAV?$vector@Uwhisper_grammar_element@@V?$allocator@Uwhisper_grammar_element@@@std@@@std@@$0A@@?$vector@V?$vector@Uwhisper_grammar_element@@V?$allocator@Uwhisper_grammar_element@@@std@@@std@@V?$allocator@V?$vector@Uwhisper_grammar_element@@V?$allocator@Uwhisper_grammar_element@@@std@@@std@@@2@@std@@QAEXPAV?$vector@Uwhisper_grammar_element@@V?$allocator@Uwhisper_grammar_element@@@std@@@1@0@Z
	??$assign@PBD$0A@@?$basic_string@DU?$char_traits@D@std@@V?$allocator@D@2@@std@@QAEAAV01@QBD0@Z
	??$construct@D$$V@?$_Default_allocator_traits@V?$allocator@D@std@@@std@@SAXAAV?$allocator@D@1@QAD@Z
	??$construct@DAAD@?$_Default_allocator_traits@V?$allocator@D@std@@@std@@SAXAAV?$allocator@D@1@QADAAD@Z
	??$construct@DABD@?$_Default_allocator_traits@V?$allocator@D@std@@@std@@SAXAAV?$allocator@D@1@QADABD@Z
	??$construct@DD@?$_Default_allocator_traits@V?$allocator@D@std@@@std@@SAXAAV?$allocator@D@1@QAD$$QAD@Z
	??$construct@E$$V@?$_Default_allocator_traits@V?$allocator@E@std@@@std@@SAXAAV?$allocator@E@1@QAE@Z
	??$construct@EE@?$_Default_allocator_traits@V?$allocator@E@std@@@std@@SAXAAV?$allocator@E@1@QAE$$QAE@Z
	??$construct@H$$V@?$_Default_allocator_traits@V?$allocator@H@std@@@std@@SAXAAV?$allocator@H@1@QAH@Z
	??$construct@HAAH@?$_Default_allocator_traits@V?$allocator@H@std@@@std@@SAXAAV?$allocator@H@1@QAHAAH@Z
	??$construct@HAAH@?$_Default_allocator_traits@V?$allocator@U?$_Tree_node@HPAX@std@@@std@@@std@@SAXAAV?$allocator@U?$_Tree_node@HPAX@std@@@1@QAHAAH@Z
	??$construct@HABH@?$_Default_allocator_traits@V?$allocator@H@std@@@std@@SAXAAV?$allocator@H@1@QAHABH@Z
	??$construct@HABH@?$_Default_allocator_traits@V?$allocator@U?$_Tree_node@HPAX@std@@@std@@@std@@SAXAAV?$allocator@U?$_Tree_node@HPAX@std@@@1@QAHABH@Z
	??$construct@HH@?$_Default_allocator_traits@V?$allocator@H@std@@@std@@SAXAAV?$allocator@H@1@QAH$$QAH@Z
	??$construct@IAAI@?$_Default_allocator_traits@V?$allocator@I@std@@@std@@SAXAAV?$allocator@I@1@QAIAAI@Z
	??$construct@IABI@?$_Default_allocator_traits@V?$allocator@I@std@@@std@@SAXAAV?$allocator@I@1@QAIABI@Z
	??$construct@II@?$_Default_allocator_traits@V?$allocator@I@std@@@std@@SAXAAV?$allocator@I@1@QAI$$QAI@Z
	??$construct@M$$V@?$_Default_allocator_traits@V?$allocator@M@std@@@std@@SAXAAV?$allocator@M@1@QAM@Z
	??$construct@MABM@?$_Default_allocator_traits@V?$allocator@M@std@@@std@@SAXAAV?$allocator@M@1@QAMABM@Z
	??$construct@MM@?$_Default_allocator_traits@V?$allocator@M@std@@@std@@SAXAAV?$allocator@M@1@QAM$$QAM@Z
	??$construct@NABM@?$_Default_allocator_traits@V?$allocator@N@std@@@std@@SAXAAV?$allocator@N@1@QANABM@Z
	??$construct@NABN@?$_Default_allocator_traits@V?$allocator@N@std@@@std@@SAXAAV?$allocator@N@1@QANABN@Z
	??$construct@NN@?$_Default_allocator_traits@V?$allocator@N@std@@@std@@SAXAAV?$allocator@N@1@QAN$$QAN@Z
	??$construct@PAUggml_backend@@AAPAU1@@?$_Default_allocator_traits@V?$allocator@PAUggml_backend@@@std@@@std@@SAXAAV?$allocator@PAUggml_backend@@@1@QAPAUggml_backend@@AAPAU3@@Z
	??$construct@PAUggml_backend@@ABQAU1@@?$_Default_allocator_traits@V?$allocator@PAUggml_backend@@@std@@@std@@SAXAAV?$allocator@PAUggml_backend@@@1@QAPAUggml_backend@@ABQAU3@@Z
	??$construct@PAUggml_backend@@PAU1@@?$_Default_allocator_traits@V?$allocator@PAUggml_backend@@@std@@@std@@SAXAAV?$allocator@PAUggml_backend@@@1@QAPAUggml_backend@@$$QAPAU3@@Z
	??$construct@PAUggml_backend_buffer@@AAPAU1@@?$_Default_allocator_traits@V?$allocator@PAUggml_backend_buffer@@@std@@@std@@SAXAAV?$allocator@PAUggml_backend_buffer@@@1@QAPAUggml_backend_buffer@@AAPAU3@@Z
	??$construct@PAUggml_backend_buffer@@PAU1@@?$_Default_allocator_traits@V?$allocator@PAUggml_backend_buffer@@@std@@@std@@SAXAAV?$allocator@PAUggml_backend_buffer@@@1@QAPAUggml_backend_buffer@@$$QAPAU3@@Z
	??$construct@PAUggml_context@@AAPAU1@@?$_Default_allocator_traits@V?$allocator@PAUggml_context@@@std@@@std@@SAXAAV?$allocator@PAUggml_context@@@1@QAPAUggml_context@@AAPAU3@@Z
	??$construct@PAUggml_context@@PAU1@@?$_Default_allocator_traits@V?$allocator@PAUggml_context@@@std@@@std@@SAXAAV?$allocator@PAUggml_context@@@1@QAPAUggml_context@@$$QAPAU3@@Z
	??$construct@PAUggml_tensor@@PAU1@@?$_Default_allocator_traits@V?$allocator@PAUggml_tensor@@@std@@@std@@SAXAAV?$allocator@PAUggml_tensor@@@1@QAPAUggml_tensor@@$$QAPAU3@@Z
	??$construct@PAUwhisper_state@@PAU1@@?$_Default_allocator_traits@V?$allocator@PAUwhisper_state@@@std@@@std@@SAXAAV?$allocator@PAUwhisper_state@@@1@QAPAUwhisper_state@@$$QAPAU3@@Z
	??$construct@PBUwhisper_grammar_element@@AAPBU1@@?$_Default_allocator_traits@V?$allocator@PBUwhisper_grammar_element@@@std@@@std@@SAXAAV?$allocator@PBUwhisper_grammar_element@@@1@QAPBUwhisper_grammar_element@@AAPBU3@@Z
	??$construct@PBUwhisper_grammar_element@@ABQBU1@@?$_Default_allocator_traits@V?$allocator@PBUwhisper_grammar_element@@@std@@@std@@SAXAAV?$allocator@PBUwhisper_grammar_element@@@1@QAPBUwhisper_grammar_element@@ABQBU3@@Z
	??$construct@PBUwhisper_grammar_element@@PBU1@@?$_Default_allocator_traits@V?$allocator@PBUwhisper_grammar_element@@@std@@@std@@SAXAAV?$allocator@PBUwhisper_grammar_element@@@1@QAPBUwhisper_grammar_element@@$$QAPBU3@@Z
	??$construct@U?$pair@$$CBHH@std@@ABUpiecewise_construct_t@2@V?$tuple@ABH@2@V?$tuple@$$V@2@@?$_Default_allocator_traits@V?$allocator@U?$_Tree_node@U?$pair@$$CBHH@std@@PAX@std@@@std@@@std@@SAXAAV?$allocator@U?$_Tree_node@U?$pair@$$CBHH@std@@PAX@std@@@1@QAU?$pair@$$CBHH@1@ABUpiecewise_construct_t@1@$$QAV?$tuple@ABH@1@$$QAV?$tuple@$$V@1@@Z
	??$construct@U?$pair@$$CBHV?$basic_string@DU?$char_traits@D@std@@V?$allocator@D@2@@std@@@std@@ABUpiecewise_construct_t@2@V?$tuple@ABH@2@V?$tuple@$$V@2@@?$_Default_allocator_traits@V?$allocator@U?$_Tree_node@U?$pair@$$CBHV?$basic_string@DU?$char_traits@D@std@@V?$allocator@D@2@@std@@@std@@PAX@std@@@std@@@std@@SAXAAV?$allocator@U?$_Tree_node@U?$pair@$$CBHV?$basic_string@DU?$char_traits@D@std@@V?$allocator@D@2@@std@@@std@@PAX@std@@@1@QAU?$pair@$$CBHV?$basic_string@DU?$char_traits@D@std@@V?$allocator@D@2@@std@@@1@ABUpiecewise_construct_t@1@$$QAV?$tuple@ABH@1@$$QAV?$tuple@$$V@1@@Z
	??$construct@U?$pair@$$CBV?$basic_string@DU?$char_traits@D@std@@V?$allocator@D@2@@std@@H@std@@ABUpiecewise_construct_t@2@V?$tuple@ABV?$basic_string@DU?$char_traits@D@std@@V?$allocator@D@2@@std@@@2@V?$tuple@$$V@2@@?$_Default_allocator_traits@V?$allocator@U?$_Tree_node@U?$pair@$$CBV?$basic_string@DU?$char_traits@D@std@@V?$allocator@D@2@@std@@H@std@@PAX@std@@@std@@@std@@SAXAAV?$allocator@U?$_Tree_node@U?$pair@$$CBV?$basic_string@DU?$char_traits@D@std@@V?$allocator@D@2@@std@@H@std@@PAX@std@@@1@QAU?$pair@$$CBV?$basic_string@DU?$char_traits@D@std@@V?$allocator@D@2@@std@@H@1@ABUpiecewise_construct_t@1@$$QAV?$tuple@ABV?$basic_string@DU?$char_traits@D@std@@V?$allocator@D@2@@std@@@1@$$QAV?$tuple@$$V@1@@Z
	??$construct@U?$pair@$$CBV?$basic_string@DU?$char_traits@D@std@@V?$allocator@D@2@@std@@PAUggml_tensor@@@std@@ABUpiecewise_construct_t@2@V?$tuple@$$QAV?$basic_string@DU?$char_traits@D@std@@V?$allocator@D@2@@std@@@2@V?$tuple@$$V@2@@?$_Default_allocator_traits@V?$allocator@U?$_Tree_node@U?$pair@$$CBV?$basic_string@DU?$char_traits@D@std@@V?$allocator@D@2@@std@@PAUggml_tensor@@@std@@PAX@std@@@std@@@std@@SAXAAV?$allocator@U?$_Tree_node@U?$pair@$$CBV?$basic_string@DU?$char_traits@D@std@@V?$allocator@D@2@@std@@PAUggml_tensor@@@std@@PAX@std@@@1@QAU?$pair@$$CBV?$basic_string@DU?$char_traits@D@std@@V?$allocator@D@2@@std@@PAUggml_tensor@@@1@ABUpiecewise_construct_t@1@$$QAV?$tuple@$$QAV?$basic_string@DU?$char_traits@D@std@@V?$allocator@D@2@@std@@@1@$$QAV?$tuple@$$V@1@@Z
	??$construct@U?$pair@$$CBV?$basic_string@DU?$char_traits@D@std@@V?$allocator@D@2@@std@@U?$pair@HV?$basic_string@DU?$char_traits@D@std@@V?$allocator@D@2@@std@@@2@@std@@ABU12@@?$_Default_allocator_traits@V?$allocator@U?$_Tree_node@U?$pair@$$CBV?$basic_string@DU?$char_traits@D@std@@V?$allocator@D@2@@std@@U?$pair@HV?$basic_string@DU?$char_traits@D@std@@V?$allocator@D@2@@std@@@2@@std@@PAX@std@@@std@@@std@@SAXAAV?$allocator@U?$_Tree_node@U?$pair@$$CBV?$basic_string@DU?$char_traits@D@std@@V?$allocator@D@2@@std@@U?$pair@HV?$basic_string@DU?$char_traits@D@std@@V?$allocator@D@2@@std@@@2@@std@@PAX@std@@@1@QAU?$pair@$$CBV?$basic_string@DU?$char_traits@D@std@@V?$allocator@D@2@@std@@U?$pair@HV?$basic_string@DU?$char_traits@D@std@@V?$allocator@D@2@@std@@@2@@1@ABU31@@Z
	??$construct@U?$pair@$$CBW4asr_system@@V?$map@W4asr_tensor@@PBDU?$less@W4asr_tensor@@@std@@V?$allocator@U?$pair@$$CBW4asr_tensor@@PBD@std@@@3@@std@@@std@@ABU12@@?$_Default_allocator_traits@V?$allocator@U?$_Tree_node@U?$pair@$$CBW4asr_system@@V?$map@W4asr_tensor@@PBDU?$less@W4asr_tensor@@@std@@V?$allocator@U?$pair@$$CBW4asr_tensor@@PBD@std@@@3@@std@@@std@@PAX@std@@@std@@@std@@SAXAAV?$allocator@U?$_Tree_node@U?$pair@$$CBW4asr_system@@V?$map@W4asr_tensor@@PBDU?$less@W4asr_tensor@@@std@@V?$allocator@U?$pair@$$CBW4asr_tensor@@PBD@std@@@3@@std@@@std@@PAX@std@@@1@QAU?$pair@$$CBW4asr_system@@V?$map@W4asr_tensor@@PBDU?$less@W4asr_tensor@@@std@@V?$allocator@U?$pair@$$CBW4asr_tensor@@PBD@std@@@3@@std@@@1@ABU31@@Z
	??$construct@U?$pair@$$CBW4asr_tensor@@PBD@std@@AAU12@@?$_Default_allocator_traits@V?$allocator@U?$_Tree_node@U?$pair@$$CBW4asr_tensor@@PBD@std@@PAX@std@@@std@@@std@@SAXAAV?$allocator@U?$_Tree_node@U?$pair@$$CBW4asr_tensor@@PBD@std@@PAX@std@@@1@QAU?$pair@$$CBW4asr_tensor@@PBD@1@AAU31@@Z
	??$construct@U?$pair@$$CBW4asr_tensor@@PBD@std@@ABU12@@?$_Default_allocator_traits@V?$allocator@U?$_Tree_node@U?$pair@$$CBW4asr_tensor@@PBD@std@@PAX@std@@@std@@@std@@SAXAAV?$allocator@U?$_Tree_node@U?$pair@$$CBW4asr_tensor@@PBD@std@@PAX@std@@@1@QAU?$pair@$$CBW4asr_tensor@@PBD@1@ABU31@@Z
	??$construct@U?$pair@$$CBW4asr_tensor@@W4ggml_op@@@std@@ABU12@@?$_Default_allocator_traits@V?$allocator@U?$_Tree_node@U?$pair@$$CBW4asr_tensor@@W4ggml_op@@@std@@PAX@std@@@std@@@std@@SAXAAV?$allocator@U?$_Tree_node@U?$pair@$$CBW4asr_tensor@@W4ggml_op@@@std@@PAX@std@@@1@QAU?$pair@$$CBW4asr_tensor@@W4ggml_op@@@1@ABU31@@Z
	??$construct@U?$pair@$$CBW4e_model@@V?$basic_string@DU?$char_traits@D@std@@V?$allocator@D@2@@std@@@std@@ABU12@@?$_Default_allocator_traits@V?$allocator@U?$_Tree_node@U?$pair@$$CBW4e_model@@V?$basic_string@DU?$char_traits@D@std@@V?$allocator@D@2@@std@@@std@@PAX@std@@@std@@@std@@SAXAAV?$allocator@U?$_Tree_node@U?$pair@$$CBW4e_model@@V?$basic_string@DU?$char_traits@D@std@@V?$allocator@D@2@@std@@@std@@PAX@std@@@1@QAU?$pair@$$CBW4e_model@@V?$basic_string@DU?$char_traits@D@std@@V?$allocator@D@2@@std@@@1@ABU31@@Z
	??$construct@U?$pair@$$CBW4vad_tensor@@PBD@std@@ABU12@@?$_Default_allocator_traits@V?$allocator@U?$_Tree_node@U?$pair@$$CBW4vad_tensor@@PBD@std@@PAX@std@@@std@@@std@@SAXAAV?$allocator@U?$_Tree_node@U?$pair@$$CBW4vad_tensor@@PBD@std@@PAX@std@@@1@QAU?$pair@$$CBW4vad_tensor@@PBD@1@ABU31@@Z
	??$construct@U?$pair@$$CBW4vad_tensor@@W4ggml_op@@@std@@ABU12@@?$_Default_allocator_traits@V?$allocator@U?$_Tree_node@U?$pair@$$CBW4vad_tensor@@W4ggml_op@@@std@@PAX@std@@@std@@@std@@SAXAAV?$allocator@U?$_Tree_node@U?$pair@$$CBW4vad_tensor@@W4ggml_op@@@std@@PAX@std@@@1@QAU?$pair@$$CBW4vad_tensor@@W4ggml_op@@@1@ABU31@@Z
	??$construct@U?$pair@$$CBW4whisper_alignment_heads_preset@@Uwhisper_aheads@@@std@@ABU12@@?$_Default_allocator_traits@V?$allocator@U?$_Tree_node@U?$pair@$$CBW4whisper_alignment_heads_preset@@Uwhisper_aheads@@@std@@PAX@std@@@std@@@std@@SAXAAV?$allocator@U?$_Tree_node@U?$pair@$$CBW4whisper_alignment_heads_preset@@Uwhisper_aheads@@@std@@PAX@std@@@1@QAU?$pair@$$CBW4whisper_alignment_heads_preset@@Uwhisper_aheads@@@1@ABU31@@Z
	??$construct@U?$pair@PAUggml_backend_device@@PAUggml_backend_buffer_type@@@std@@AAPAUggml_backend_device@@AAPAUggml_backend_buffer_type@@@?$_Default_allocator_traits@V?$allocator@U?$pair@PAUggml_backend_device@@PAUggml_backend_buffer_type@@@std@@@std@@@std@@SAXAAV?$allocator@U?$pair@PAUggml_backend_device@@PAUggml_backend_buffer_type@@@std@@@1@QAU?$pair@PAUggml_backend_device@@PAUggml_backend_buffer_type@@@1@AAPAUggml_backend_device@@AAPAUggml_backend_buffer_type@@@Z
	??$construct@U?$pair@PAUggml_backend_device@@PAUggml_backend_buffer_type@@@std@@AAPAUggml_backend_device@@PAUggml_backend_buffer_type@@@?$_Default_allocator_traits@V?$allocator@U?$pair@PAUggml_backend_device@@PAUggml_backend_buffer_type@@@std@@@std@@@std@@SAXAAV?$allocator@U?$pair@PAUggml_backend_device@@PAUggml_backend_buffer_type@@@std@@@1@QAU?$pair@PAUggml_backend_device@@PAUggml_backend_buffer_type@@@1@AAPAUggml_backend_device@@$$QAPAUggml_backend_buffer_type@@@Z
	??$construct@U?$pair@PAUggml_backend_device@@PAUggml_backend_buffer_type@@@std@@AAU12@@?$_Default_allocator_traits@V?$allocator@U?$pair@PAUggml_backend_device@@PAUggml_backend_buffer_type@@@std@@@std@@@std@@SAXAAV?$allocator@U?$pair@PAUggml_backend_device@@PAUggml_backend_buffer_type@@@std@@@1@QAU?$pair@PAUggml_backend_device@@PAUggml_backend_buffer_type@@@1@AAU31@@Z
	??$construct@U?$pair@PAUggml_backend_device@@PAUggml_backend_buffer_type@@@std@@U12@@?$_Default_allocator_traits@V?$allocator@U?$pair@PAUggml_backend_device@@PAUggml_backend_buffer_type@@@std@@@std@@@std@@SAXAAV?$allocator@U?$pair@PAUggml_backend_device@@PAUggml_backend_buffer_type@@@std@@@1@QAU?$pair@PAUggml_backend_device@@PAUggml_backend_buffer_type@@@1@$$QAU31@@Z
	??$construct@U?$pair@QAUggml_backend_buffer_type@@PAUggml_context@@@std@@ABUpiecewise_construct_t@2@V?$tuple@ABQAUggml_backend_buffer_type@@@2@V?$tuple@$$V@2@@?$_Default_allocator_traits@V?$allocator@U?$_Tree_node@U?$pair@QAUggml_backend_buffer_type@@PAUggml_context@@@std@@PAX@std@@@std@@@std@@SAXAAV?$allocator@U?$_Tree_node@U?$pair@QAUggml_backend_buffer_type@@PAUggml_context@@@std@@PAX@std@@@1@QAU?$pair@QAUggml_backend_buffer_type@@PAUggml_context@@@1@ABUpiecewise_construct_t@1@$$QAV?$tuple@ABQAUggml_backend_buffer_type@@@1@$$QAV?$tuple@$$V@1@@Z
	??$construct@U?$pair@V?$vector@IV?$allocator@I@std@@@std@@Uwhisper_partial_utf8@@@std@@U12@@?$_Default_allocator_traits@V?$allocator@U?$pair@V?$vector@IV?$allocator@I@std@@@std@@Uwhisper_partial_utf8@@@std@@@std@@@std@@SAXAAV?$allocator@U?$pair@V?$vector@IV?$allocator@I@std@@@std@@Uwhisper_partial_utf8@@@std@@@1@QAU?$pair@V?$vector@IV?$allocator@I@std@@@std@@Uwhisper_partial_utf8@@@1@$$QAU31@@Z
	??$construct@U?$whisper_pair@NH@@$$V@?$_Default_allocator_traits@V?$allocator@U?$whisper_pair@NH@@@std@@@std@@SAXAAV?$allocator@U?$whisper_pair@NH@@@1@QAU?$whisper_pair@NH@@@Z
	??$construct@U?$whisper_pair@NH@@AAMABH@?$_Default_allocator_traits@V?$allocator@U?$whisper_pair@NH@@@std@@@std@@SAXAAV?$allocator@U?$whisper_pair@NH@@@1@QAU?$whisper_pair@NH@@AAMABH@Z
	??$construct@U?$whisper_pair@NH@@U1@@?$_Default_allocator_traits@V?$allocator@U?$whisper_pair@NH@@@std@@@std@@SAXAAV?$allocator@U?$whisper_pair@NH@@@1@QAU?$whisper_pair@NH@@$$QAU3@@Z
	??$construct@U_Grp_t@?$_Tgt_state_t@PBD@std@@$$V@?$_Default_allocator_traits@V?$allocator@U_Grp_t@?$_Tgt_state_t@PBD@std@@@std@@@std@@SAXAAV?$allocator@U_Grp_t@?$_Tgt_state_t@PBD@std@@@1@QAU_Grp_t@?$_Tgt_state_t@PBD@1@@Z
	??$construct@U_Grp_t@?$_Tgt_state_t@PBD@std@@AAU123@@?$_Default_allocator_traits@V?$allocator@U_Grp_t@?$_Tgt_state_t@PBD@std@@@std@@@std@@SAXAAV?$allocator@U_Grp_t@?$_Tgt_state_t@PBD@std@@@1@QAU_Grp_t@?$_Tgt_state_t@PBD@1@AAU341@@Z
	??$construct@U_Grp_t@?$_Tgt_state_t@PBD@std@@U123@@?$_Default_allocator_traits@V?$allocator@U_Grp_t@?$_Tgt_state_t@PBD@std@@@std@@@std@@SAXAAV?$allocator@U_Grp_t@?$_Tgt_state_t@PBD@std@@@1@QAU_Grp_t@?$_Tgt_state_t@PBD@1@$$QAU341@@Z
	??$construct@U_Grp_t@?$_Tgt_state_t@V?$_String_const_iterator@V?$_String_val@U?$_Simple_types@D@std@@@std@@@std@@@std@@$$V@?$_Default_allocator_traits@V?$allocator@U_Grp_t@?$_Tgt_state_t@V?$_String_const_iterator@V?$_String_val@U?$_Simple_types@D@std@@@std@@@std@@@std@@@std@@@std@@SAXAAV?$allocator@U_Grp_t@?$_Tgt_state_t@V?$_String_const_iterator@V?$_String_val@U?$_Simple_types@D@std@@@std@@@std@@@std@@@1@QAU_Grp_t@?$_Tgt_state_t@V?$_String_const_iterator@V?$_String_val@U?$_Simple_types@D@std@@@std@@@std@@@1@@Z
	??$construct@U_Grp_t@?$_Tgt_state_t@V?$_String_const_iterator@V?$_String_val@U?$_Simple_types@D@std@@@std@@@std@@@std@@AAU123@@?$_Default_allocator_traits@V?$allocator@U_Grp_t@?$_Tgt_state_t@V?$_String_const_iterator@V?$_String_val@U?$_Simple_types@D@std@@@std@@@std@@@std@@@std@@@std@@SAXAAV?$allocator@U_Grp_t@?$_Tgt_state_t@V?$_String_const_iterator@V?$_String_val@U?$_Simple_types@D@std@@@std@@@std@@@std@@@1@QAU_Grp_t@?$_Tgt_state_t@V?$_String_const_iterator@V?$_String_val@U?$_Simple_types@D@std@@@std@@@std@@@1@AAU341@@Z
	??$construct@U_Grp_t@?$_Tgt_state_t@V?$_String_const_iterator@V?$_String_val@U?$_Simple_types@D@std@@@std@@@std@@@std@@U123@@?$_Default_allocator_traits@V?$allocator@U_Grp_t@?$_Tgt_state_t@V?$_String_const_iterator@V?$_String_val@U?$_Simple_types@D@std@@@std@@@std@@@std@@@std@@@std@@SAXAAV?$allocator@U_Grp_t@?$_Tgt_state_t@V?$_String_const_iterator@V?$_String_val@U?$_Simple_types@D@std@@@std@@@std@@@std@@@1@QAU_Grp_t@?$_Tgt_state_t@V?$_String_const_iterator@V?$_String_val@U?$_Simple_types@D@std@@@std@@@std@@@1@$$QAU341@@Z
	??$construct@U_Loop_vals_t@std@@$$V@?$_Default_allocator_traits@V?$allocator@U_Loop_vals_t@std@@@std@@@std@@SAXAAV?$allocator@U_Loop_vals_t@std@@@1@QAU_Loop_vals_t@1@@Z
	??$construct@U_Loop_vals_t@std@@U12@@?$_Default_allocator_traits@V?$allocator@U_Loop_vals_t@std@@@std@@@std@@SAXAAV?$allocator@U_Loop_vals_t@std@@@1@QAU_Loop_vals_t@1@$$QAU31@@Z
	??$construct@Uvad_segment_info@whisper_state@@ABU12@@?$_Default_allocator_traits@V?$allocator@Uvad_segment_info@whisper_state@@@std@@@std@@SAXAAV?$allocator@Uvad_segment_info@whisper_state@@@1@QAUvad_segment_info@whisper_state@@ABU34@@Z
	??$construct@Uvad_segment_info@whisper_state@@U12@@?$_Default_allocator_traits@V?$allocator@Uvad_segment_info@whisper_state@@@std@@@std@@SAXAAV?$allocator@Uvad_segment_info@whisper_state@@@1@QAUvad_segment_info@whisper_state@@$$QAU34@@Z
	??$construct@Uvad_time_mapping@@ABU1@@?$_Default_allocator_traits@V?$allocator@Uvad_time_mapping@@@std@@@std@@SAXAAV?$allocator@Uvad_time_mapping@@@1@QAUvad_time_mapping@@ABU3@@Z
	??$construct@Uvad_time_mapping@@U1@@?$_Default_allocator_traits@V?$allocator@Uvad_time_mapping@@@std@@@std@@SAXAAV?$allocator@Uvad_time_mapping@@@1@QAUvad_time_mapping@@$$QAU3@@Z
	??$construct@Uwhisper_grammar_candidate@@ABU1@@?$_Default_allocator_traits@V?$allocator@Uwhisper_grammar_candidate@@@std@@@std@@SAXAAV?$allocator@Uwhisper_grammar_candidate@@@1@QAUwhisper_grammar_candidate@@ABU3@@Z
	??$construct@Uwhisper_grammar_candidate@@U1@@?$_Default_allocator_traits@V?$allocator@Uwhisper_grammar_candidate@@@std@@@std@@SAXAAV?$allocator@Uwhisper_grammar_candidate@@@1@QAUwhisper_grammar_candidate@@$$QAU3@@Z
	??$construct@Uwhisper_grammar_element@@AAU1@@?$_Default_allocator_traits@V?$allocator@Uwhisper_grammar_element@@@std@@@std@@SAXAAV?$allocator@Uwhisper_grammar_element@@@1@QAUwhisper_grammar_element@@AAU3@@Z
	??$construct@Uwhisper_grammar_element@@ABU1@@?$_Default_allocator_traits@V?$allocator@Uwhisper_grammar_element@@@std@@@std@@SAXAAV?$allocator@Uwhisper_grammar_element@@@1@QAUwhisper_grammar_element@@ABU3@@Z
	??$construct@Uwhisper_grammar_element@@U1@@?$_Default_allocator_traits@V?$allocator@Uwhisper_grammar_element@@@std@@@std@@SAXAAV?$allocator@Uwhisper_grammar_element@@@1@QAUwhisper_grammar_element@@$$QAU3@@Z
	??$construct@Uwhisper_kv_cell@@$$V@?$_Default_allocator_traits@V?$allocator@Uwhisper_kv_cell@@@std@@@std@@SAXAAV?$allocator@Uwhisper_kv_cell@@@1@QAUwhisper_kv_cell@@@Z
	??$construct@Uwhisper_kv_cell@@AAU1@@?$_Default_allocator_traits@V?$allocator@Uwhisper_kv_cell@@@std@@@std@@SAXAAV?$allocator@Uwhisper_kv_cell@@@1@QAUwhisper_kv_cell@@AAU3@@Z
	??$construct@Uwhisper_layer_decoder@@$$V@?$_Default_allocator_traits@V?$allocator@Uwhisper_layer_decoder@@@std@@@std@@SAXAAV?$allocator@Uwhisper_layer_decoder@@@1@QAUwhisper_layer_decoder@@@Z
	??$construct@Uwhisper_layer_decoder@@U1@@?$_Default_allocator_traits@V?$allocator@Uwhisper_layer_decoder@@@std@@@std@@SAXAAV?$allocator@Uwhisper_layer_decoder@@@1@QAUwhisper_layer_decoder@@$$QAU3@@Z
	??$construct@Uwhisper_layer_encoder@@$$V@?$_Default_allocator_traits@V?$allocator@Uwhisper_layer_encoder@@@std@@@std@@SAXAAV?$allocator@Uwhisper_layer_encoder@@@1@QAUwhisper_layer_encoder@@@Z
	??$construct@Uwhisper_layer_encoder@@U1@@?$_Default_allocator_traits@V?$allocator@Uwhisper_layer_encoder@@@std@@@std@@SAXAAV?$allocator@Uwhisper_layer_encoder@@@1@QAUwhisper_layer_encoder@@$$QAU3@@Z
	??$construct@Uwhisper_segment@@U1@@?$_Default_allocator_traits@V?$allocator@Uwhisper_segment@@@std@@@std@@SAXAAV?$allocator@Uwhisper_segment@@@1@QAUwhisper_segment@@$$QAU3@@Z
	??$construct@Uwhisper_token_data@@$$V@?$_Default_allocator_traits@V?$allocator@Uwhisper_token_data@@@std@@@std@@SAXAAV?$allocator@Uwhisper_token_data@@@1@QAUwhisper_token_data@@@Z
	??$construct@Uwhisper_token_data@@AAU1@@?$_Default_allocator_traits@V?$allocator@Uwhisper_token_data@@@std@@@std@@SAXAAV?$allocator@Uwhisper_token_data@@@1@QAUwhisper_token_data@@AAU3@@Z
	??$construct@Uwhisper_token_data@@ABU1@@?$_Default_allocator_traits@V?$allocator@Uwhisper_token_data@@@std@@@std@@SAXAAV?$allocator@Uwhisper_token_data@@@1@QAUwhisper_token_data@@ABU3@@Z
	??$construct@Uwhisper_token_data@@U1@@?$_Default_allocator_traits@V?$allocator@Uwhisper_token_data@@@std@@@std@@SAXAAV?$allocator@Uwhisper_token_data@@@1@QAUwhisper_token_data@@$$QAU3@@Z
	??$construct@Uwhisper_vad_segment@@$$V@?$_Default_allocator_traits@V?$allocator@Uwhisper_vad_segment@@@std@@@std@@SAXAAV?$allocator@Uwhisper_vad_segment@@@1@QAUwhisper_vad_segment@@@Z
	??$construct@Uwhisper_vad_segment@@U1@@?$_Default_allocator_traits@V?$allocator@Uwhisper_vad_segment@@@std@@@std@@SAXAAV?$allocator@Uwhisper_vad_segment@@@1@QAUwhisper_vad_segment@@$$QAU3@@Z
	??$construct@V?$basic_string@DU?$char_traits@D@std@@V?$allocator@D@2@@std@@ABV12@@?$_Default_allocator_traits@V?$allocator@V?$basic_string@DU?$char_traits@D@std@@V?$allocator@D@2@@std@@@std@@@std@@SAXAAV?$allocator@V?$basic_string@DU?$char_traits@D@std@@V?$allocator@D@2@@std@@@1@QAV?$basic_string@DU?$char_traits@D@std@@V?$allocator@D@2@@1@ABV31@@Z
	??$construct@V?$basic_string@DU?$char_traits@D@std@@V?$allocator@D@2@@std@@V12@@?$_Default_allocator_traits@V?$allocator@V?$basic_string@DU?$char_traits@D@std@@V?$allocator@D@2@@std@@@std@@@std@@SAXAAV?$allocator@V?$basic_string@DU?$char_traits@D@std@@V?$allocator@D@2@@std@@@1@QAV?$basic_string@DU?$char_traits@D@std@@V?$allocator@D@2@@1@$$QAV31@@Z
	??$construct@V?$sub_match@PBD@std@@$$V@?$_Default_allocator_traits@V?$allocator@V?$sub_match@PBD@std@@@std@@@std@@SAXAAV?$allocator@V?$sub_match@PBD@std@@@1@QAV?$sub_match@PBD@1@@Z
	??$construct@V?$sub_match@PBD@std@@V12@@?$_Default_allocator_traits@V?$allocator@V?$sub_match@PBD@std@@@std@@@std@@SAXAAV?$allocator@V?$sub_match@PBD@std@@@1@QAV?$sub_match@PBD@1@$$QAV31@@Z
	??$construct@V?$sub_match@V?$_String_const_iterator@V?$_String_val@U?$_Simple_types@D@std@@@std@@@std@@@std@@$$V@?$_Default_allocator_traits@V?$allocator@V?$sub_match@V?$_String_const_iterator@V?$_String_val@U?$_Simple_types@D@std@@@std@@@std@@@std@@@std@@@std@@SAXAAV?$allocator@V?$sub_match@V?$_String_const_iterator@V?$_String_val@U?$_Simple_types@D@std@@@std@@@std@@@std@@@1@QAV?$sub_match@V?$_String_const_iterator@V?$_String_val@U?$_Simple_types@D@std@@@std@@@std@@@1@@Z
	??$construct@V?$sub_match@V?$_String_const_iterator@V?$_String_val@U?$_Simple_types@D@std@@@std@@@std@@@std@@V12@@?$_Default_allocator_traits@V?$allocator@V?$sub_match@V?$_String_const_iterator@V?$_String_val@U?$_Simple_types@D@std@@@std@@@std@@@std@@@std@@@std@@SAXAAV?$allocator@V?$sub_match@V?$_String_const_iterator@V?$_String_val@U?$_Simple_types@D@std@@@std@@@std@@@std@@@1@QAV?$sub_match@V?$_String_const_iterator@V?$_String_val@U?$_Simple_types@D@std@@@std@@@std@@@1@$$QAV31@@Z
	??$construct@V?$vector@PBUwhisper_grammar_element@@V?$allocator@PBUwhisper_grammar_element@@@std@@@std@@$$V@?$_Default_allocator_traits@V?$allocator@V?$vector@PBUwhisper_grammar_element@@V?$allocator@PBUwhisper_grammar_element@@@std@@@std@@@std@@@std@@SAXAAV?$allocator@V?$vector@PBUwhisper_grammar_element@@V?$allocator@PBUwhisper_grammar_element@@@std@@@std@@@1@QAV?$vector@PBUwhisper_grammar_element@@V?$allocator@PBUwhisper_grammar_element@@@std@@@1@@Z
	??$construct@V?$vector@PBUwhisper_grammar_element@@V?$allocator@PBUwhisper_grammar_element@@@std@@@std@@AAV12@@?$_Default_allocator_traits@V?$allocator@V?$vector@PBUwhisper_grammar_element@@V?$allocator@PBUwhisper_grammar_element@@@std@@@std@@@std@@@std@@SAXAAV?$allocator@V?$vector@PBUwhisper_grammar_element@@V?$allocator@PBUwhisper_grammar_element@@@std@@@std@@@1@QAV?$vector@PBUwhisper_grammar_element@@V?$allocator@PBUwhisper_grammar_element@@@std@@@1@AAV31@@Z
	??$construct@V?$vector@PBUwhisper_grammar_element@@V?$allocator@PBUwhisper_grammar_element@@@std@@@std@@ABV12@@?$_Default_allocator_traits@V?$allocator@V?$vector@PBUwhisper_grammar_element@@V?$allocator@PBUwhisper_grammar_element@@@std@@@std@@@std@@@std@@SAXAAV?$allocator@V?$vector@PBUwhisper_grammar_element@@V?$allocator@PBUwhisper_grammar_element@@@std@@@std@@@1@QAV?$vector@PBUwhisper_grammar_element@@V?$allocator@PBUwhisper_grammar_element@@@std@@@1@ABV31@@Z
	??$construct@V?$vector@PBUwhisper_grammar_element@@V?$allocator@PBUwhisper_grammar_element@@@std@@@std@@V12@@?$_Default_allocator_traits@V?$allocator@V?$vector@PBUwhisper_grammar_element@@V?$allocator@PBUwhisper_grammar_element@@@std@@@std@@@std@@@std@@SAXAAV?$allocator@V?$vector@PBUwhisper_grammar_element@@V?$allocator@PBUwhisper_grammar_element@@@std@@@std@@@1@QAV?$vector@PBUwhisper_grammar_element@@V?$allocator@PBUwhisper_grammar_element@@@std@@@1@$$QAV31@@Z
	??$construct@V?$vector@Uwhisper_grammar_element@@V?$allocator@Uwhisper_grammar_element@@@std@@@std@@$$V@?$_Default_allocator_traits@V?$allocator@V?$vector@Uwhisper_grammar_element@@V?$allocator@Uwhisper_grammar_element@@@std@@@std@@@std@@@std@@SAXAAV?$allocator@V?$vector@Uwhisper_grammar_element@@V?$allocator@Uwhisper_grammar_element@@@std@@@std@@@1@QAV?$vector@Uwhisper_grammar_element@@V?$allocator@Uwhisper_grammar_element@@@std@@@1@@Z
	??$construct@V?$vector@Uwhisper_grammar_element@@V?$allocator@Uwhisper_grammar_element@@@std@@@std@@AAV12@@?$_Default_allocator_traits@V?$allocator@V?$vector@Uwhisper_grammar_element@@V?$allocator@Uwhisper_grammar_element@@@std@@@std@@@std@@@std@@SAXAAV?$allocator@V?$vector@Uwhisper_grammar_element@@V?$allocator@Uwhisper_grammar_element@@@std@@@std@@@1@QAV?$vector@Uwhisper_grammar_element@@V?$allocator@Uwhisper_grammar_element@@@std@@@1@AAV31@@Z
	??$construct@Vthread@std@@$$V@?$_Default_allocator_traits@V?$allocator@Vthread@std@@@std@@@std@@SAXAAV?$allocator@Vthread@std@@@1@QAVthread@1@@Z
	??$construct_at@D$$VX@std@@YAPADQAD@Z
	??$construct_at@DAADX@std@@YAPADQADAAD@Z
	??$construct_at@DABDX@std@@YAPADQADABD@Z
	??$construct_at@DDX@std@@YAPADQAD$$QAD@Z
	??$construct_at@E$$VX@std@@YAPAEQAE@Z
	??$construct_at@EEX@std@@YAPAEQAE$$QAE@Z
	??$construct_at@H$$VX@std@@YAPAHQAH@Z
	??$construct_at@HAAHX@std@@YAPAHQAHAAH@Z
	??$construct_at@HABHX@std@@YAPAHQAHABH@Z
	??$construct_at@HHX@std@@YAPAHQAH$$QAH@Z
	??$construct_at@IAAIX@std@@YAPAIQAIAAI@Z
	??$construct_at@IABIX@std@@YAPAIQAIABI@Z
	??$construct_at@IIX@std@@YAPAIQAI$$QAI@Z
	??$construct_at@M$$VX@std@@YAPAMQAM@Z
	??$construct_at@MABMX@std@@YAPAMQAMABM@Z
	??$construct_at@MMX@std@@YAPAMQAM$$QAM@Z
	??$construct_at@NABMX@std@@YAPANQANABM@Z
	??$construct_at@NABNX@std@@YAPANQANABN@Z
	??$construct_at@NNX@std@@YAPANQAN$$QAN@Z
	??$construct_at@PADAAPADX@std@@YAPAPADQAPADAAPAD@Z
	??$construct_at@PADABQADX@std@@YAPAPADQAPADABQAD@Z
	??$construct_at@PAU?$_Tree_node@HPAX@std@@AAPAU12@X@std@@YAPAPAU?$_Tree_node@HPAX@0@QAPAU10@AAPAU10@@Z
	??$construct_at@PAU?$_Tree_node@HPAX@std@@ABQAU12@X@std@@YAPAPAU?$_Tree_node@HPAX@0@QAPAU10@ABQAU10@@Z
	??$construct_at@PAU?$_Tree_node@U?$pair@$$CBHH@std@@PAX@std@@AAPAU12@X@std@@YAPAPAU?$_Tree_node@U?$pair@$$CBHH@std@@PAX@0@QAPAU10@AAPAU10@@Z
	??$construct_at@PAU?$_Tree_node@U?$pair@$$CBHH@std@@PAX@std@@ABQAU12@X@std@@YAPAPAU?$_Tree_node@U?$pair@$$CBHH@std@@PAX@0@QAPAU10@ABQAU10@@Z
	??$construct_at@PAU?$_Tree_node@U?$pair@$$CBHV?$basic_string@DU?$char_traits@D@std@@V?$allocator@D@2@@std@@@std@@PAX@std@@AAPAU12@X@std@@YAPAPAU?$_Tree_node@U?$pair@$$CBHV?$basic_string@DU?$char_traits@D@std@@V?$allocator@D@2@@std@@@std@@PAX@0@QAPAU10@AAPAU10@@Z
	??$construct_at@PAU?$_Tree_node@U?$pair@$$CBHV?$basic_string@DU?$char_traits@D@std@@V?$allocator@D@2@@std@@@std@@PAX@std@@ABQAU12@X@std@@YAPAPAU?$_Tree_node@U?$pair@$$CBHV?$basic_string@DU?$char_traits@D@std@@V?$allocator@D@2@@std@@@std@@PAX@0@QAPAU10@ABQAU10@@Z
	??$construct_at@PAU?$_Tree_node@U?$pair@$$CBV?$basic_string@DU?$char_traits@D@std@@V?$allocator@D@2@@std@@H@std@@PAX@std@@AAPAU12@X@std@@YAPAPAU?$_Tree_node@U?$pair@$$CBV?$basic_string@DU?$char_traits@D@std@@V?$allocator@D@2@@std@@H@std@@PAX@0@QAPAU10@AAPAU10@@Z
	??$construct_at@PAU?$_Tree_node@U?$pair@$$CBV?$basic_string@DU?$char_traits@D@std@@V?$allocator@D@2@@std@@H@std@@PAX@std@@ABQAU12@X@std@@YAPAPAU?$_Tree_node@U?$pair@$$CBV?$basic_string@DU?$char_traits@D@std@@V?$allocator@D@2@@std@@H@std@@PAX@0@QAPAU10@ABQAU10@@Z
	??$construct_at@PAU?$_Tree_node@U?$pair@$$CBV?$basic_string@DU?$char_traits@D@std@@V?$allocator@D@2@@std@@PAUggml_tensor@@@std@@PAX@std@@AAPAU12@X@std@@YAPAPAU?$_Tree_node@U?$pair@$$CBV?$basic_string@DU?$char_traits@D@std@@V?$allocator@D@2@@std@@PAUggml_tensor@@@std@@PAX@0@QAPAU10@AAPAU10@@Z
	??$construct_at@PAU?$_Tree_node@U?$pair@$$CBV?$basic_string@DU?$char_traits@D@std@@V?$allocator@D@2@@std@@PAUggml_tensor@@@std@@PAX@std@@ABQAU12@X@std@@YAPAPAU?$_Tree_node@U?$pair@$$CBV?$basic_string@DU?$char_traits@D@std@@V?$allocator@D@2@@std@@PAUggml_tensor@@@std@@PAX@0@QAPAU10@ABQAU10@@Z
	??$construct_at@PAU?$_Tree_node@U?$pair@$$CBV?$basic_string@DU?$char_traits@D@std@@V?$allocator@D@2@@std@@U?$pair@HV?$basic_string@DU?$char_traits@D@std@@V?$allocator@D@2@@std@@@2@@std@@PAX@std@@AAPAU12@X@std@@YAPAPAU?$_Tree_node@U?$pair@$$CBV?$basic_string@DU?$char_traits@D@std@@V?$allocator@D@2@@std@@U?$pair@HV?$basic_string@DU?$char_traits@D@std@@V?$allocator@D@2@@std@@@2@@std@@PAX@0@QAPAU10@AAPAU10@@Z
	??$construct_at@PAU?$_Tree_node@U?$pair@$$CBV?$basic_string@DU?$char_traits@D@std@@V?$allocator@D@2@@std@@U?$pair@HV?$basic_string@DU?$char_traits@D@std@@V?$allocator@D@2@@std@@@2@@std@@PAX@std@@ABQAU12@X@std@@YAPAPAU?$_Tree_node@U?$pair@$$CBV?$basic_string@DU?$char_traits@D@std@@V?$allocator@D@2@@std@@U?$pair@HV?$basic_string@DU?$char_traits@D@std@@V?$allocator@D@2@@std@@@2@@std@@PAX@0@QAPAU10@ABQAU10@@Z
	??$construct_at@PAU?$_Tree_node@U?$pair@$$CBW4asr_system@@V?$map@W4asr_tensor@@PBDU?$less@W4asr_tensor@@@std@@V?$allocator@U?$pair@$$CBW4asr_tensor@@PBD@std@@@3@@std@@@std@@PAX@std@@AAPAU12@X@std@@YAPAPAU?$_Tree_node@U?$pair@$$CBW4asr_system@@V?$map@W4asr_tensor@@PBDU?$less@W4asr_tensor@@@std@@V?$allocator@U?$pair@$$CBW4asr_tensor@@PBD@std@@@3@@std@@@std@@PAX@0@QAPAU10@AAPAU10@@Z
	??$construct_at@PAU?$_Tree_node@U?$pair@$$CBW4asr_system@@V?$map@W4asr_tensor@@PBDU?$less@W4asr_tensor@@@std@@V?$allocator@U?$pair@$$CBW4asr_tensor@@PBD@std@@@3@@std@@@std@@PAX@std@@ABQAU12@X@std@@YAPAPAU?$_Tree_node@U?$pair@$$CBW4asr_system@@V?$map@W4asr_tensor@@PBDU?$less@W4asr_tensor@@@std@@V?$allocator@U?$pair@$$CBW4asr_tensor@@PBD@std@@@3@@std@@@std@@PAX@0@QAPAU10@ABQAU10@@Z
	??$construct_at@PAU?$_Tree_node@U?$pair@$$CBW4asr_tensor@@PBD@std@@PAX@std@@AAPAU12@X@std@@YAPAPAU?$_Tree_node@U?$pair@$$CBW4asr_tensor@@PBD@std@@PAX@0@QAPAU10@AAPAU10@@Z
	??$construct_at@PAU?$_Tree_node@U?$pair@$$CBW4asr_tensor@@PBD@std@@PAX@std@@ABQAU12@X@std@@YAPAPAU?$_Tree_node@U?$pair@$$CBW4asr_tensor@@PBD@std@@PAX@0@QAPAU10@ABQAU10@@Z
	??$construct_at@PAU?$_Tree_node@U?$pair@$$CBW4asr_tensor@@W4ggml_op@@@std@@PAX@std@@AAPAU12@X@std@@YAPAPAU?$_Tree_node@U?$pair@$$CBW4asr_tensor@@W4ggml_op@@@std@@PAX@0@QAPAU10@AAPAU10@@Z
	??$construct_at@PAU?$_Tree_node@U?$pair@$$CBW4asr_tensor@@W4ggml_op@@@std@@PAX@std@@ABQAU12@X@std@@YAPAPAU?$_Tree_node@U?$pair@$$CBW4asr_tensor@@W4ggml_op@@@std@@PAX@0@QAPAU10@ABQAU10@@Z
	??$construct_at@PAU?$_Tree_node@U?$pair@$$CBW4e_model@@V?$basic_string@DU?$char_traits@D@std@@V?$allocator@D@2@@std@@@std@@PAX@std@@AAPAU12@X@std@@YAPAPAU?$_Tree_node@U?$pair@$$CBW4e_model@@V?$basic_string@DU?$char_traits@D@std@@V?$allocator@D@2@@std@@@std@@PAX@0@QAPAU10@AAPAU10@@Z
	??$construct_at@PAU?$_Tree_node@U?$pair@$$CBW4e_model@@V?$basic_string@DU?$char_traits@D@std@@V?$allocator@D@2@@std@@@std@@PAX@std@@ABQAU12@X@std@@YAPAPAU?$_Tree_node@U?$pair@$$CBW4e_model@@V?$basic_string@DU?$char_traits@D@std@@V?$allocator@D@2@@std@@@std@@PAX@0@QAPAU10@ABQAU10@@Z
	??$construct_at@PAU?$_Tree_node@U?$pair@$$CBW4vad_tensor@@PBD@std@@PAX@std@@AAPAU12@X@std@@YAPAPAU?$_Tree_node@U?$pair@$$CBW4vad_tensor@@PBD@std@@PAX@0@QAPAU10@AAPAU10@@Z
	??$construct_at@PAU?$_Tree_node@U?$pair@$$CBW4vad_tensor@@PBD@std@@PAX@std@@ABQAU12@X@std@@YAPAPAU?$_Tree_node@U?$pair@$$CBW4vad_tensor@@PBD@std@@PAX@0@QAPAU10@ABQAU10@@Z
	??$construct_at@PAU?$_Tree_node@U?$pair@$$CBW4vad_tensor@@W4ggml_op@@@std@@PAX@std@@AAPAU12@X@std@@YAPAPAU?$_Tree_node@U?$pair@$$CBW4vad_tensor@@W4ggml_op@@@std@@PAX@0@QAPAU10@AAPAU10@@Z
	??$construct_at@PAU?$_Tree_node@U?$pair@$$CBW4vad_tensor@@W4ggml_op@@@std@@PAX@std@@ABQAU12@X@std@@YAPAPAU?$_Tree_node@U?$pair@$$CBW4vad_tensor@@W4ggml_op@@@std@@PAX@0@QAPAU10@ABQAU10@@Z
	??$construct_at@PAU?$_Tree_node@U?$pair@$$CBW4whisper_alignment_heads_preset@@Uwhisper_aheads@@@std@@PAX@std@@AAPAU12@X@std@@YAPAPAU?$_Tree_node@U?$pair@$$CBW4whisper_alignment_heads_preset@@Uwhisper_aheads@@@std@@PAX@0@QAPAU10@AAPAU10@@Z
	??$construct_at@PAU?$_Tree_node@U?$pair@$$CBW4whisper_alignment_heads_preset@@Uwhisper_aheads@@@std@@PAX@std@@ABQAU12@X@std@@YAPAPAU?$_Tree_node@U?$pair@$$CBW4whisper_alignment_heads_preset@@Uwhisper_aheads@@@std@@PAX@0@QAPAU10@ABQAU10@@Z
	??$construct_at@PAU?$_Tree_node@U?$pair@QAUggml_backend_buffer_type@@PAUggml_context@@@std@@PAX@std@@AAPAU12@X@std@@YAPAPAU?$_Tree_node@U?$pair@QAUggml_backend_buffer_type@@PAUggml_context@@@std@@PAX@0@QAPAU10@AAPAU10@@Z
	??$construct_at@PAU?$_Tree_node@U?$pair@QAUggml_backend_buffer_type@@PAUggml_context@@@std@@PAX@std@@ABQAU12@X@std@@YAPAPAU?$_Tree_node@U?$pair@QAUggml_backend_buffer_type@@PAUggml_context@@@std@@PAX@0@QAPAU10@ABQAU10@@Z
	??$construct_at@PAUggml_backend@@AAPAU1@X@std@@YAPAPAUggml_backend@@QAPAU1@AAPAU1@@Z
	??$construct_at@PAUggml_backend@@ABQAU1@X@std@@YAPAPAUggml_backend@@QAPAU1@ABQAU1@@Z
	??$construct_at@PAUggml_backend@@PAU1@X@std@@YAPAPAUggml_backend@@QAPAU1@$$QAPAU1@@Z
	??$construct_at@PAUggml_backend_buffer@@AAPAU1@X@std@@YAPAPAUggml_backend_buffer@@QAPAU1@AAPAU1@@Z
	??$construct_at@PAUggml_backend_buffer@@PAU1@X@std@@YAPAPAUggml_backend_buffer@@QAPAU1@$$QAPAU1@@Z
	??$construct_at@PAUggml_context@@AAPAU1@X@std@@YAPAPAUggml_context@@QAPAU1@AAPAU1@@Z
	??$construct_at@PAUggml_context@@PAU1@X@std@@YAPAPAUggml_context@@QAPAU1@$$QAPAU1@@Z
	??$construct_at@PAUggml_tensor@@PAU1@X@std@@YAPAPAUggml_tensor@@QAPAU1@$$QAPAU1@@Z
	??$construct_at@PAUwhisper_state@@PAU1@X@std@@YAPAPAUwhisper_state@@QAPAU1@$$QAPAU1@@Z
	??$construct_at@PA_WAAPA_WX@std@@YAPAPA_WQAPA_WAAPA_W@Z
	??$construct_at@PA_WABQA_WX@std@@YAPAPA_WQAPA_WABQA_W@Z
	??$construct_at@PBUwhisper_grammar_element@@AAPBU1@X@std@@YAPAPBUwhisper_grammar_element@@QAPBU1@AAPBU1@@Z
	??$construct_at@PBUwhisper_grammar_element@@ABQBU1@X@std@@YAPAPBUwhisper_grammar_element@@QAPBU1@ABQBU1@@Z
	??$construct_at@PBUwhisper_grammar_element@@PBU1@X@std@@YAPAPBUwhisper_grammar_element@@QAPBU1@$$QAPBU1@@Z
	??$construct_at@U?$pair@$$CBHH@std@@ABUpiecewise_construct_t@2@V?$tuple@ABH@2@V?$tuple@$$V@2@X@std@@YAPAU?$pair@$$CBHH@0@QAU10@ABUpiecewise_construct_t@0@$$QAV?$tuple@ABH@0@$$QAV?$tuple@$$V@0@@Z
	??$construct_at@U?$pair@$$CBHV?$basic_string@DU?$char_traits@D@std@@V?$allocator@D@2@@std@@@std@@ABUpiecewise_construct_t@2@V?$tuple@ABH@2@V?$tuple@$$V@2@X@std@@YAPAU?$pair@$$CBHV?$basic_string@DU?$char_traits@D@std@@V?$allocator@D@2@@std@@@0@QAU10@ABUpiecewise_construct_t@0@$$QAV?$tuple@ABH@0@$$QAV?$tuple@$$V@0@@Z
	??$construct_at@U?$pair@$$CBV?$basic_string@DU?$char_traits@D@std@@V?$allocator@D@2@@std@@H@std@@ABUpiecewise_construct_t@2@V?$tuple@ABV?$basic_string@DU?$char_traits@D@std@@V?$allocator@D@2@@std@@@2@V?$tuple@$$V@2@X@std@@YAPAU?$pair@$$CBV?$basic_string@DU?$char_traits@D@std@@V?$allocator@D@2@@std@@H@0@QAU10@ABUpiecewise_construct_t@0@$$QAV?$tuple@ABV?$basic_string@DU?$char_traits@D@std@@V?$allocator@D@2@@std@@@0@$$QAV?$tuple@$$V@0@@Z
	??$construct_at@U?$pair@$$CBV?$basic_string@DU?$char_traits@D@std@@V?$allocator@D@2@@std@@PAUggml_tensor@@@std@@ABUpiecewise_construct_t@2@V?$tuple@$$QAV?$basic_string@DU?$char_traits@D@std@@V?$allocator@D@2@@std@@@2@V?$tuple@$$V@2@X@std@@YAPAU?$pair@$$CBV?$basic_string@DU?$char_traits@D@std@@V?$allocator@D@2@@std@@PAUggml_tensor@@@0@QAU10@ABUpiecewise_construct_t@0@$$QAV?$tuple@$$QAV?$basic_string@DU?$char_traits@D@std@@V?$allocator@D@2@@std@@@0@$$QAV?$tuple@$$V@0@@Z
	??$construct_at@U?$pair@$$CBV?$basic_string@DU?$char_traits@D@std@@V?$allocator@D@2@@std@@U?$pair@HV?$basic_string@DU?$char_traits@D@std@@V?$allocator@D@2@@std@@@2@@std@@ABU12@X@std@@YAPAU?$pair@$$CBV?$basic_string@DU?$char_traits@D@std@@V?$allocator@D@2@@std@@U?$pair@HV?$basic_string@DU?$char_traits@D@std@@V?$allocator@D@2@@std@@@2@@0@QAU10@ABU10@@Z
	??$construct_at@U?$pair@$$CBW4asr_system@@V?$map@W4asr_tensor@@PBDU?$less@W4asr_tensor@@@std@@V?$allocator@U?$pair@$$CBW4asr_tensor@@PBD@std@@@3@@std@@@std@@ABU12@X@std@@YAPAU?$pair@$$CBW4asr_system@@V?$map@W4asr_tensor@@PBDU?$less@W4asr_tensor@@@std@@V?$allocator@U?$pair@$$CBW4asr_tensor@@PBD@std@@@3@@std@@@0@QAU10@ABU10@@Z
	??$construct_at@U?$pair@$$CBW4asr_tensor@@PBD@std@@AAU12@X@std@@YAPAU?$pair@$$CBW4asr_tensor@@PBD@0@QAU10@AAU10@@Z
	??$construct_at@U?$pair@$$CBW4asr_tensor@@PBD@std@@ABU12@X@std@@YAPAU?$pair@$$CBW4asr_tensor@@PBD@0@QAU10@ABU10@@Z
	??$construct_at@U?$pair@$$CBW4asr_tensor@@W4ggml_op@@@std@@ABU12@X@std@@YAPAU?$pair@$$CBW4asr_tensor@@W4ggml_op@@@0@QAU10@ABU10@@Z
	??$construct_at@U?$pair@$$CBW4e_model@@V?$basic_string@DU?$char_traits@D@std@@V?$allocator@D@2@@std@@@std@@ABU12@X@std@@YAPAU?$pair@$$CBW4e_model@@V?$basic_string@DU?$char_traits@D@std@@V?$allocator@D@2@@std@@@0@QAU10@ABU10@@Z
	??$construct_at@U?$pair@$$CBW4vad_tensor@@PBD@std@@ABU12@X@std@@YAPAU?$pair@$$CBW4vad_tensor@@PBD@0@QAU10@ABU10@@Z
	??$construct_at@U?$pair@$$CBW4vad_tensor@@W4ggml_op@@@std@@ABU12@X@std@@YAPAU?$pair@$$CBW4vad_tensor@@W4ggml_op@@@0@QAU10@ABU10@@Z
	??$construct_at@U?$pair@$$CBW4whisper_alignment_heads_preset@@Uwhisper_aheads@@@std@@ABU12@X@std@@YAPAU?$pair@$$CBW4whisper_alignment_heads_preset@@Uwhisper_aheads@@@0@QAU10@ABU10@@Z
	??$construct_at@U?$pair@PAUggml_backend_device@@PAUggml_backend_buffer_type@@@std@@AAPAUggml_backend_device@@AAPAUggml_backend_buffer_type@@X@std@@YAPAU?$pair@PAUggml_backend_device@@PAUggml_backend_buffer_type@@@0@QAU10@AAPAUggml_backend_device@@AAPAUggml_backend_buffer_type@@@Z
	??$construct_at@U?$pair@PAUggml_backend_device@@PAUggml_backend_buffer_type@@@std@@AAPAUggml_backend_device@@PAUggml_backend_buffer_type@@X@std@@YAPAU?$pair@PAUggml_backend_device@@PAUggml_backend_buffer_type@@@0@QAU10@AAPAUggml_backend_device@@$$QAPAUggml_backend_buffer_type@@@Z
	??$construct_at@U?$pair@PAUggml_backend_device@@PAUggml_backend_buffer_type@@@std@@AAU12@X@std@@YAPAU?$pair@PAUggml_backend_device@@PAUggml_backend_buffer_type@@@0@QAU10@AAU10@@Z
	??$construct_at@U?$pair@PAUggml_backend_device@@PAUggml_backend_buffer_type@@@std@@U12@X@std@@YAPAU?$pair@PAUggml_backend_device@@PAUggml_backend_buffer_type@@@0@QAU10@$$QAU10@@Z
	??$construct_at@U?$pair@QAUggml_backend_buffer_type@@PAUggml_context@@@std@@ABUpiecewise_construct_t@2@V?$tuple@ABQAUggml_backend_buffer_type@@@2@V?$tuple@$$V@2@X@std@@YAPAU?$pair@QAUggml_backend_buffer_type@@PAUggml_context@@@0@QAU10@ABUpiecewise_construct_t@0@$$QAV?$tuple@ABQAUggml_backend_buffer_type@@@0@$$QAV?$tuple@$$V@0@@Z
	??$construct_at@U?$pair@V?$vector@IV?$allocator@I@std@@@std@@Uwhisper_partial_utf8@@@std@@U12@X@std@@YAPAU?$pair@V?$vector@IV?$allocator@I@std@@@std@@Uwhisper_partial_utf8@@@0@QAU10@$$QAU10@@Z
	??$construct_at@U?$whisper_pair@NH@@$$VX@std@@YAPAU?$whisper_pair@NH@@QAU1@@Z
	??$construct_at@U?$whisper_pair@NH@@AAMABHX@std@@YAPAU?$whisper_pair@NH@@QAU1@AAMABH@Z
	??$construct_at@U?$whisper_pair@NH@@U1@X@std@@YAPAU?$whisper_pair@NH@@QAU1@$$QAU1@@Z
	??$construct_at@U_Container_proxy@std@@PAU_Container_base12@2@X@std@@YAPAU_Container_proxy@0@QAU10@$$QAPAU_Container_base12@0@@Z
	??$construct_at@U_Grp_t@?$_Tgt_state_t@PBD@std@@$$VX@std@@YAPAU_Grp_t@?$_Tgt_state_t@PBD@0@QAU120@@Z
	??$construct_at@U_Grp_t@?$_Tgt_state_t@PBD@std@@AAU123@X@std@@YAPAU_Grp_t@?$_Tgt_state_t@PBD@0@QAU120@AAU120@@Z
	??$construct_at@U_Grp_t@?$_Tgt_state_t@PBD@std@@U123@X@std@@YAPAU_Grp_t@?$_Tgt_state_t@PBD@0@QAU120@$$QAU120@@Z
	??$construct_at@U_Grp_t@?$_Tgt_state_t@V?$_String_const_iterator@V?$_String_val@U?$_Simple_types@D@std@@@std@@@std@@@std@@$$VX@std@@YAPAU_Grp_t@?$_Tgt_state_t@V?$_String_const_iterator@V?$_String_val@U?$_Simple_types@D@std@@@std@@@std@@@0@QAU120@@Z
	??$construct_at@U_Grp_t@?$_Tgt_state_t@V?$_String_const_iterator@V?$_String_val@U?$_Simple_types@D@std@@@std@@@std@@@std@@AAU123@X@std@@YAPAU_Grp_t@?$_Tgt_state_t@V?$_String_const_iterator@V?$_String_val@U?$_Simple_types@D@std@@@std@@@std@@@0@QAU120@AAU120@@Z
	??$construct_at@U_Grp_t@?$_Tgt_state_t@V?$_String_const_iterator@V?$_String_val@U?$_Simple_types@D@std@@@std@@@std@@@std@@U123@X@std@@YAPAU_Grp_t@?$_Tgt_state_t@V?$_String_const_iterator@V?$_String_val@U?$_Simple_types@D@std@@@std@@@std@@@0@QAU120@$$QAU120@@Z
	??$construct_at@U_Loop_vals_t@std@@$$VX@std@@YAPAU_Loop_vals_t@0@QAU10@@Z
	??$construct_at@U_Loop_vals_t@std@@U12@X@std@@YAPAU_Loop_vals_t@0@QAU10@$$QAU10@@Z
	??$construct_at@Uvad_segment_info@whisper_state@@ABU12@X@std@@YAPAUvad_segment_info@whisper_state@@QAU12@ABU12@@Z
	??$construct_at@Uvad_segment_info@whisper_state@@U12@X@std@@YAPAUvad_segment_info@whisper_state@@QAU12@$$QAU12@@Z
	??$construct_at@Uvad_time_mapping@@ABU1@X@std@@YAPAUvad_time_mapping@@QAU1@ABU1@@Z
	??$construct_at@Uvad_time_mapping@@U1@X@std@@YAPAUvad_time_mapping@@QAU1@$$QAU1@@Z
	??$construct_at@Uwhisper_grammar_candidate@@ABU1@X@std@@YAPAUwhisper_grammar_candidate@@QAU1@ABU1@@Z
	??$construct_at@Uwhisper_grammar_candidate@@U1@X@std@@YAPAUwhisper_grammar_candidate@@QAU1@$$QAU1@@Z
	??$construct_at@Uwhisper_grammar_element@@AAU1@X@std@@YAPAUwhisper_grammar_element@@QAU1@AAU1@@Z
	??$construct_at@Uwhisper_grammar_element@@ABU1@X@std@@YAPAUwhisper_grammar_element@@QAU1@ABU1@@Z
	??$construct_at@Uwhisper_grammar_element@@U1@X@std@@YAPAUwhisper_grammar_element@@QAU1@$$QAU1@@Z
	??$construct_at@Uwhisper_kv_cell@@$$VX@std@@YAPAUwhisper_kv_cell@@QAU1@@Z
	??$construct_at@Uwhisper_kv_cell@@AAU1@X@std@@YAPAUwhisper_kv_cell@@QAU1@AAU1@@Z
	??$construct_at@Uwhisper_layer_decoder@@$$VX@std@@YAPAUwhisper_layer_decoder@@QAU1@@Z
	??$construct_at@Uwhisper_layer_decoder@@U1@X@std@@YAPAUwhisper_layer_decoder@@QAU1@$$QAU1@@Z
	??$construct_at@Uwhisper_layer_encoder@@$$VX@std@@YAPAUwhisper_layer_encoder@@QAU1@@Z
	??$construct_at@Uwhisper_layer_encoder@@U1@X@std@@YAPAUwhisper_layer_encoder@@QAU1@$$QAU1@@Z
	??$construct_at@Uwhisper_segment@@U1@X@std@@YAPAUwhisper_segment@@QAU1@$$QAU1@@Z
	??$construct_at@Uwhisper_token_data@@$$VX@std@@YAPAUwhisper_token_data@@QAU1@@Z
	??$construct_at@Uwhisper_token_data@@AAU1@X@std@@YAPAUwhisper_token_data@@QAU1@AAU1@@Z
	??$construct_at@Uwhisper_token_data@@ABU1@X@std@@YAPAUwhisper_token_data@@QAU1@ABU1@@Z
	??$construct_at@Uwhisper_token_data@@U1@X@std@@YAPAUwhisper_token_data@@QAU1@$$QAU1@@Z
	??$construct_at@Uwhisper_vad_segment@@$$VX@std@@YAPAUwhisper_vad_segment@@QAU1@@Z
	??$construct_at@Uwhisper_vad_segment@@U1@X@std@@YAPAUwhisper_vad_segment@@QAU1@$$QAU1@@Z
	??$construct_at@V?$basic_string@DU?$char_traits@D@std@@V?$allocator@D@2@@std@@ABV12@X@std@@YAPAV?$basic_string@DU?$char_traits@D@std@@V?$allocator@D@2@@0@QAV10@ABV10@@Z
	??$construct_at@V?$basic_string@DU?$char_traits@D@std@@V?$allocator@D@2@@std@@V12@X@std@@YAPAV?$basic_string@DU?$char_traits@D@std@@V?$allocator@D@2@@0@QAV10@$$QAV10@@Z
	??$construct_at@V?$sub_match@PBD@std@@$$VX@std@@YAPAV?$sub_match@PBD@0@QAV10@@Z
	??$construct_at@V?$sub_match@PBD@std@@V12@X@std@@YAPAV?$sub_match@PBD@0@QAV10@$$QAV10@@Z
	??$construct_at@V?$sub_match@V?$_String_const_iterator@V?$_String_val@U?$_Simple_types@D@std@@@std@@@std@@@std@@$$VX@std@@YAPAV?$sub_match@V?$_String_const_iterator@V?$_String_val@U?$_Simple_types@D@std@@@std@@@std@@@0@QAV10@@Z
	??$construct_at@V?$sub_match@V?$_String_const_iterator@V?$_String_val@U?$_Simple_types@D@std@@@std@@@std@@@std@@V12@X@std@@YAPAV?$sub_match@V?$_String_const_iterator@V?$_String_val@U?$_Simple_types@D@std@@@std@@@std@@@0@QAV10@$$QAV10@@Z
	??$construct_at@V?$vector@PBUwhisper_grammar_element@@V?$allocator@PBUwhisper_grammar_element@@@std@@@std@@$$VX@std@@YAPAV?$vector@PBUwhisper_grammar_element@@V?$allocator@PBUwhisper_grammar_element@@@std@@@0@QAV10@@Z
	??$construct_at@V?$vector@PBUwhisper_grammar_element@@V?$allocator@PBUwhisper_grammar_element@@@std@@@std@@AAV12@X@std@@YAPAV?$vector@PBUwhisper_grammar_element@@V?$allocator@PBUwhisper_grammar_element@@@std@@@0@QAV10@AAV10@@Z
	??$construct_at@V?$vector@PBUwhisper_grammar_element@@V?$allocator@PBUwhisper_grammar_element@@@std@@@std@@ABV12@X@std@@YAPAV?$vector@PBUwhisper_grammar_element@@V?$allocator@PBUwhisper_grammar_element@@@std@@@0@QAV10@ABV10@@Z
	??$construct_at@V?$vector@PBUwhisper_grammar_element@@V?$allocator@PBUwhisper_grammar_element@@@std@@@std@@V12@X@std@@YAPAV?$vector@PBUwhisper_grammar_element@@V?$allocator@PBUwhisper_grammar_element@@@std@@@0@QAV10@$$QAV10@@Z
	??$construct_at@V?$vector@Uwhisper_grammar_element@@V?$allocator@Uwhisper_grammar_element@@@std@@@std@@$$VX@std@@YAPAV?$vector@Uwhisper_grammar_element@@V?$allocator@Uwhisper_grammar_element@@@std@@@0@QAV10@@Z
	??$construct_at@V?$vector@Uwhisper_grammar_element@@V?$allocator@Uwhisper_grammar_element@@@std@@@std@@AAV12@X@std@@YAPAV?$vector@Uwhisper_grammar_element@@V?$allocator@Uwhisper_grammar_element@@@std@@@0@QAV10@AAV10@@Z
	??$construct_at@Vthread@std@@$$VX@std@@YAPAVthread@0@QAV10@@Z
	??$construct_at@_WAB_WX@std@@YAPA_WQA_WAB_W@Z
	??$copy@PBMV?$_Vector_iterator@V?$_Vector_val@U?$_Simple_types@M@std@@@std@@@std@@@std@@YA?AV?$_Vector_iterator@V?$_Vector_val@U?$_Simple_types@M@std@@@std@@@0@PBM0V10@@Z
	??$copy@V?$_Vb_iterator@U?$_Wrap_alloc@V?$allocator@I@std@@@std@@@std@@V12@@std@@YA?AV?$_Vb_iterator@U?$_Wrap_alloc@V?$allocator@I@std@@@std@@@0@V10@00@Z
	??$copy@V?$_Vector_iterator@V?$_Vector_val@U?$_Simple_types@M@std@@@std@@@std@@V12@@std@@YA?AV?$_Vector_iterator@V?$_Vector_val@U?$_Simple_types@M@std@@@std@@@0@V10@00@Z
	??$copy_backward@V?$_Vb_iterator@U?$_Wrap_alloc@V?$allocator@I@std@@@std@@@std@@V12@@std@@YA?AV?$_Vb_iterator@U?$_Wrap_alloc@V?$allocator@I@std@@@std@@@0@V10@00@Z
	??$cref@Uwhisper_filters@@@std@@YA?AV?$reference_wrapper@$$CBUwhisper_filters@@@0@ABUwhisper_filters@@@Z
	??$cref@V?$vector@MV?$allocator@M@std@@@std@@@std@@YA?AV?$reference_wrapper@$$CBV?$vector@MV?$allocator@M@std@@@std@@@0@ABV?$vector@MV?$allocator@M@std@@@0@@Z
	??$destroy@H@?$_Default_allocator_traits@V?$allocator@U?$_Tree_node@HPAX@std@@@std@@@std@@SAXAAV?$allocator@U?$_Tree_node@HPAX@std@@@1@QAH@Z
	??$destroy@U?$pair@$$CBHH@std@@@?$_Default_allocator_traits@V?$allocator@U?$_Tree_node@U?$pair@$$CBHH@std@@PAX@std@@@std@@@std@@SAXAAV?$allocator@U?$_Tree_node@U?$pair@$$CBHH@std@@PAX@std@@@1@QAU?$pair@$$CBHH@1@@Z
	??$destroy@U?$pair@$$CBHV?$basic_string@DU?$char_traits@D@std@@V?$allocator@D@2@@std@@@std@@@?$_Default_allocator_traits@V?$allocator@U?$_Tree_node@U?$pair@$$CBHV?$basic_string@DU?$char_traits@D@std@@V?$allocator@D@2@@std@@@std@@PAX@std@@@std@@@std@@SAXAAV?$allocator@U?$_Tree_node@U?$pair@$$CBHV?$basic_string@DU?$char_traits@D@std@@V?$allocator@D@2@@std@@@std@@PAX@std@@@1@QAU?$pair@$$CBHV?$basic_string@DU?$char_traits@D@std@@V?$allocator@D@2@@std@@@1@@Z
	??$destroy@U?$pair@$$CBV?$basic_string@DU?$char_traits@D@std@@V?$allocator@D@2@@std@@H@std@@@?$_Default_allocator_traits@V?$allocator@U?$_Tree_node@U?$pair@$$CBV?$basic_string@DU?$char_traits@D@std@@V?$allocator@D@2@@std@@H@std@@PAX@std@@@std@@@std@@SAXAAV?$allocator@U?$_Tree_node@U?$pair@$$CBV?$basic_string@DU?$char_traits@D@std@@V?$allocator@D@2@@std@@H@std@@PAX@std@@@1@QAU?$pair@$$CBV?$basic_string@DU?$char_traits@D@std@@V?$allocator@D@2@@std@@H@1@@Z
	??$destroy@U?$pair@$$CBV?$basic_string@DU?$char_traits@D@std@@V?$allocator@D@2@@std@@PAUggml_tensor@@@std@@@?$_Default_allocator_traits@V?$allocator@U?$_Tree_node@U?$pair@$$CBV?$basic_string@DU?$char_traits@D@std@@V?$allocator@D@2@@std@@PAUggml_tensor@@@std@@PAX@std@@@std@@@std@@SAXAAV?$allocator@U?$_Tree_node@U?$pair@$$CBV?$basic_string@DU?$char_traits@D@std@@V?$allocator@D@2@@std@@PAUggml_tensor@@@std@@PAX@std@@@1@QAU?$pair@$$CBV?$basic_string@DU?$char_traits@D@std@@V?$allocator@D@2@@std@@PAUggml_tensor@@@1@@Z
	??$destroy@U?$pair@$$CBV?$basic_string@DU?$char_traits@D@std@@V?$allocator@D@2@@std@@U?$pair@HV?$basic_string@DU?$char_traits@D@std@@V?$allocator@D@2@@std@@@2@@std@@@?$_Default_allocator_traits@V?$allocator@U?$_Tree_node@U?$pair@$$CBV?$basic_string@DU?$char_traits@D@std@@V?$allocator@D@2@@std@@U?$pair@HV?$basic_string@DU?$char_traits@D@std@@V?$allocator@D@2@@std@@@2@@std@@PAX@std@@@std@@@std@@SAXAAV?$allocator@U?$_Tree_node@U?$pair@$$CBV?$basic_string@DU?$char_traits@D@std@@V?$allocator@D@2@@std@@U?$pair@HV?$basic_string@DU?$char_traits@D@std@@V?$allocator@D@2@@std@@@2@@std@@PAX@std@@@1@QAU?$pair@$$CBV?$basic_string@DU?$char_traits@D@std@@V?$allocator@D@2@@std@@U?$pair@HV?$basic_string@DU?$char_traits@D@std@@V?$allocator@D@2@@std@@@2@@1@@Z
	??$destroy@U?$pair@$$CBW4asr_system@@V?$map@W4asr_tensor@@PBDU?$less@W4asr_tensor@@@std@@V?$allocator@U?$pair@$$CBW4asr_tensor@@PBD@std@@@3@@std@@@std@@@?$_Default_allocator_traits@V?$allocator@U?$_Tree_node@U?$pair@$$CBW4asr_system@@V?$map@W4asr_tensor@@PBDU?$less@W4asr_tensor@@@std@@V?$allocator@U?$pair@$$CBW4asr_tensor@@PBD@std@@@3@@std@@@std@@PAX@std@@@std@@@std@@SAXAAV?$allocator@U?$_Tree_node@U?$pair@$$CBW4asr_system@@V?$map@W4asr_tensor@@PBDU?$less@W4asr_tensor@@@std@@V?$allocator@U?$pair@$$CBW4asr_tensor@@PBD@std@@@3@@std@@@std@@PAX@std@@@1@QAU?$pair@$$CBW4asr_system@@V?$map@W4asr_tensor@@PBDU?$less@W4asr_tensor@@@std@@V?$allocator@U?$pair@$$CBW4asr_tensor@@PBD@std@@@3@@std@@@1@@Z
	??$destroy@U?$pair@$$CBW4asr_tensor@@PBD@std@@@?$_Default_allocator_traits@V?$allocator@U?$_Tree_node@U?$pair@$$CBW4asr_tensor@@PBD@std@@PAX@std@@@std@@@std@@SAXAAV?$allocator@U?$_Tree_node@U?$pair@$$CBW4asr_tensor@@PBD@std@@PAX@std@@@1@QAU?$pair@$$CBW4asr_tensor@@PBD@1@@Z
	??$destroy@U?$pair@$$CBW4asr_tensor@@W4ggml_op@@@std@@@?$_Default_allocator_traits@V?$allocator@U?$_Tree_node@U?$pair@$$CBW4asr_tensor@@W4ggml_op@@@std@@PAX@std@@@std@@@std@@SAXAAV?$allocator@U?$_Tree_node@U?$pair@$$CBW4asr_tensor@@W4ggml_op@@@std@@PAX@std@@@1@QAU?$pair@$$CBW4asr_tensor@@W4ggml_op@@@1@@Z
	??$destroy@U?$pair@$$CBW4e_model@@V?$basic_string@DU?$char_traits@D@std@@V?$allocator@D@2@@std@@@std@@@?$_Default_allocator_traits@V?$allocator@U?$_Tree_node@U?$pair@$$CBW4e_model@@V?$basic_string@DU?$char_traits@D@std@@V?$allocator@D@2@@std@@@std@@PAX@std@@@std@@@std@@SAXAAV?$allocator@U?$_Tree_node@U?$pair@$$CBW4e_model@@V?$basic_string@DU?$char_traits@D@std@@V?$allocator@D@2@@std@@@std@@PAX@std@@@1@QAU?$pair@$$CBW4e_model@@V?$basic_string@DU?$char_traits@D@std@@V?$allocator@D@2@@std@@@1@@Z
	??$destroy@U?$pair@$$CBW4vad_tensor@@PBD@std@@@?$_Default_allocator_traits@V?$allocator@U?$_Tree_node@U?$pair@$$CBW4vad_tensor@@PBD@std@@PAX@std@@@std@@@std@@SAXAAV?$allocator@U?$_Tree_node@U?$pair@$$CBW4vad_tensor@@PBD@std@@PAX@std@@@1@QAU?$pair@$$CBW4vad_tensor@@PBD@1@@Z
	??$destroy@U?$pair@$$CBW4vad_tensor@@W4ggml_op@@@std@@@?$_Default_allocator_traits@V?$allocator@U?$_Tree_node@U?$pair@$$CBW4vad_tensor@@W4ggml_op@@@std@@PAX@std@@@std@@@std@@SAXAAV?$allocator@U?$_Tree_node@U?$pair@$$CBW4vad_tensor@@W4ggml_op@@@std@@PAX@std@@@1@QAU?$pair@$$CBW4vad_tensor@@W4ggml_op@@@1@@Z
	??$destroy@U?$pair@$$CBW4whisper_alignment_heads_preset@@Uwhisper_aheads@@@std@@@?$_Default_allocator_traits@V?$allocator@U?$_Tree_node@U?$pair@$$CBW4whisper_alignment_heads_preset@@Uwhisper_aheads@@@std@@PAX@std@@@std@@@std@@SAXAAV?$allocator@U?$_Tree_node@U?$pair@$$CBW4whisper_alignment_heads_preset@@Uwhisper_aheads@@@std@@PAX@std@@@1@QAU?$pair@$$CBW4whisper_alignment_heads_preset@@Uwhisper_aheads@@@1@@Z
	??$destroy@U?$pair@QAUggml_backend_buffer_type@@PAUggml_context@@@std@@@?$_Default_allocator_traits@V?$allocator@U?$_Tree_node@U?$pair@QAUggml_backend_buffer_type@@PAUggml_context@@@std@@PAX@std@@@std@@@std@@SAXAAV?$allocator@U?$_Tree_node@U?$pair@QAUggml_backend_buffer_type@@PAUggml_context@@@std@@PAX@std@@@1@QAU?$pair@QAUggml_backend_buffer_type@@PAUggml_context@@@1@@Z
	??$destroy@U?$pair@V?$vector@IV?$allocator@I@std@@@std@@Uwhisper_partial_utf8@@@std@@@?$_Default_allocator_traits@V?$allocator@U?$pair@V?$vector@IV?$allocator@I@std@@@std@@Uwhisper_partial_utf8@@@std@@@std@@@std@@SAXAAV?$allocator@U?$pair@V?$vector@IV?$allocator@I@std@@@std@@Uwhisper_partial_utf8@@@std@@@1@QAU?$pair@V?$vector@IV?$allocator@I@std@@@std@@Uwhisper_partial_utf8@@@1@@Z
	??$destroy@U_Grp_t@?$_Tgt_state_t@V?$_String_const_iterator@V?$_String_val@U?$_Simple_types@D@std@@@std@@@std@@@std@@@?$_Default_allocator_traits@V?$allocator@U_Grp_t@?$_Tgt_state_t@V?$_String_const_iterator@V?$_String_val@U?$_Simple_types@D@std@@@std@@@std@@@std@@@std@@@std@@SAXAAV?$allocator@U_Grp_t@?$_Tgt_state_t@V?$_String_const_iterator@V?$_String_val@U?$_Simple_types@D@std@@@std@@@std@@@std@@@1@QAU_Grp_t@?$_Tgt_state_t@V?$_String_const_iterator@V?$_String_val@U?$_Simple_types@D@std@@@std@@@std@@@1@@Z
	??$destroy@Uwhisper_kv_cell@@@?$_Default_allocator_traits@V?$allocator@Uwhisper_kv_cell@@@std@@@std@@SAXAAV?$allocator@Uwhisper_kv_cell@@@1@QAUwhisper_kv_cell@@@Z
	??$destroy@Uwhisper_segment@@@?$_Default_allocator_traits@V?$allocator@Uwhisper_segment@@@std@@@std@@SAXAAV?$allocator@Uwhisper_segment@@@1@QAUwhisper_segment@@@Z
	??$destroy@V?$basic_string@DU?$char_traits@D@std@@V?$allocator@D@2@@std@@@?$_Default_allocator_traits@V?$allocator@V?$basic_string@DU?$char_traits@D@std@@V?$allocator@D@2@@std@@@std@@@std@@SAXAAV?$allocator@V?$basic_string@DU?$char_traits@D@std@@V?$allocator@D@2@@std@@@1@QAV?$basic_string@DU?$char_traits@D@std@@V?$allocator@D@2@@1@@Z
	??$destroy@V?$sub_match@V?$_String_const_iterator@V?$_String_val@U?$_Simple_types@D@std@@@std@@@std@@@std@@@?$_Default_allocator_traits@V?$allocator@V?$sub_match@V?$_String_const_iterator@V?$_String_val@U?$_Simple_types@D@std@@@std@@@std@@@std@@@std@@@std@@SAXAAV?$allocator@V?$sub_match@V?$_String_const_iterator@V?$_String_val@U?$_Simple_types@D@std@@@std@@@std@@@std@@@1@QAV?$sub_match@V?$_String_const_iterator@V?$_String_val@U?$_Simple_types@D@std@@@std@@@std@@@1@@Z
	??$destroy@V?$vector@PBUwhisper_grammar_element@@V?$allocator@PBUwhisper_grammar_element@@@std@@@std@@@?$_Default_allocator_traits@V?$allocator@V?$vector@PBUwhisper_grammar_element@@V?$allocator@PBUwhisper_grammar_element@@@std@@@std@@@std@@@std@@SAXAAV?$allocator@V?$vector@PBUwhisper_grammar_element@@V?$allocator@PBUwhisper_grammar_element@@@std@@@std@@@1@QAV?$vector@PBUwhisper_grammar_element@@V?$allocator@PBUwhisper_grammar_element@@@std@@@1@@Z
	??$destroy@V?$vector@Uwhisper_grammar_element@@V?$allocator@Uwhisper_grammar_element@@@std@@@std@@@?$_Default_allocator_traits@V?$allocator@V?$vector@Uwhisper_grammar_element@@V?$allocator@Uwhisper_grammar_element@@@std@@@std@@@std@@@std@@SAXAAV?$allocator@V?$vector@Uwhisper_grammar_element@@V?$allocator@Uwhisper_grammar_element@@@std@@@std@@@1@QAV?$vector@Uwhisper_grammar_element@@V?$allocator@Uwhisper_grammar_element@@@std@@@1@@Z
	??$destroy@Vthread@std@@@?$_Default_allocator_traits@V?$allocator@Vthread@std@@@std@@@std@@SAXAAV?$allocator@Vthread@std@@@1@QAVthread@1@@Z
	??$destroy_at@H@std@@YAXQAH@Z
	??$destroy_at@U?$pair@$$CBHH@std@@@std@@YAXQAU?$pair@$$CBHH@0@@Z
	??$destroy_at@U?$pair@$$CBHV?$basic_string@DU?$char_traits@D@std@@V?$allocator@D@2@@std@@@std@@@std@@YAXQAU?$pair@$$CBHV?$basic_string@DU?$char_traits@D@std@@V?$allocator@D@2@@std@@@0@@Z
	??$destroy_at@U?$pair@$$CBV?$basic_string@DU?$char_traits@D@std@@V?$allocator@D@2@@std@@H@std@@@std@@YAXQAU?$pair@$$CBV?$basic_string@DU?$char_traits@D@std@@V?$allocator@D@2@@std@@H@0@@Z
	??$destroy_at@U?$pair@$$CBV?$basic_string@DU?$char_traits@D@std@@V?$allocator@D@2@@std@@PAUggml_tensor@@@std@@@std@@YAXQAU?$pair@$$CBV?$basic_string@DU?$char_traits@D@std@@V?$allocator@D@2@@std@@PAUggml_tensor@@@0@@Z
	??$destroy_at@U?$pair@$$CBV?$basic_string@DU?$char_traits@D@std@@V?$allocator@D@2@@std@@U?$pair@HV?$basic_string@DU?$char_traits@D@std@@V?$allocator@D@2@@std@@@2@@std@@@std@@YAXQAU?$pair@$$CBV?$basic_string@DU?$char_traits@D@std@@V?$allocator@D@2@@std@@U?$pair@HV?$basic_string@DU?$char_traits@D@std@@V?$allocator@D@2@@std@@@2@@0@@Z
	??$destroy_at@U?$pair@$$CBW4asr_system@@V?$map@W4asr_tensor@@PBDU?$less@W4asr_tensor@@@std@@V?$allocator@U?$pair@$$CBW4asr_tensor@@PBD@std@@@3@@std@@@std@@@std@@YAXQAU?$pair@$$CBW4asr_system@@V?$map@W4asr_tensor@@PBDU?$less@W4asr_tensor@@@std@@V?$allocator@U?$pair@$$CBW4asr_tensor@@PBD@std@@@3@@std@@@0@@Z
	??$destroy_at@U?$pair@$$CBW4asr_tensor@@PBD@std@@@std@@YAXQAU?$pair@$$CBW4asr_tensor@@PBD@0@@Z
	??$destroy_at@U?$pair@$$CBW4asr_tensor@@W4ggml_op@@@std@@@std@@YAXQAU?$pair@$$CBW4asr_tensor@@W4ggml_op@@@0@@Z
	??$destroy_at@U?$pair@$$CBW4e_model@@V?$basic_string@DU?$char_traits@D@std@@V?$allocator@D@2@@std@@@std@@@std@@YAXQAU?$pair@$$CBW4e_model@@V?$basic_string@DU?$char_traits@D@std@@V?$allocator@D@2@@std@@@0@@Z
	??$destroy_at@U?$pair@$$CBW4vad_tensor@@PBD@std@@@std@@YAXQAU?$pair@$$CBW4vad_tensor@@PBD@0@@Z
	??$destroy_at@U?$pair@$$CBW4vad_tensor@@W4ggml_op@@@std@@@std@@YAXQAU?$pair@$$CBW4vad_tensor@@W4ggml_op@@@0@@Z
	??$destroy_at@U?$pair@$$CBW4whisper_alignment_heads_preset@@Uwhisper_aheads@@@std@@@std@@YAXQAU?$pair@$$CBW4whisper_alignment_heads_preset@@Uwhisper_aheads@@@0@@Z
	??$destroy_at@U?$pair@QAUggml_backend_buffer_type@@PAUggml_context@@@std@@@std@@YAXQAU?$pair@QAUggml_backend_buffer_type@@PAUggml_context@@@0@@Z
	??$destroy_at@U?$pair@V?$vector@IV?$allocator@I@std@@@std@@Uwhisper_partial_utf8@@@std@@@std@@YAXQAU?$pair@V?$vector@IV?$allocator@I@std@@@std@@Uwhisper_partial_utf8@@@0@@Z
	??$destroy_at@U_Grp_t@?$_Tgt_state_t@V?$_String_const_iterator@V?$_String_val@U?$_Simple_types@D@std@@@std@@@std@@@std@@@std@@YAXQAU_Grp_t@?$_Tgt_state_t@V?$_String_const_iterator@V?$_String_val@U?$_Simple_types@D@std@@@std@@@std@@@0@@Z
	??$destroy_at@Uwhisper_kv_cell@@@std@@YAXQAUwhisper_kv_cell@@@Z
	??$destroy_at@Uwhisper_segment@@@std@@YAXQAUwhisper_segment@@@Z
	??$destroy_at@V?$basic_string@DU?$char_traits@D@std@@V?$allocator@D@2@@std@@@std@@YAXQAV?$basic_string@DU?$char_traits@D@std@@V?$allocator@D@2@@0@@Z
	??$destroy_at@V?$sub_match@V?$_String_const_iterator@V?$_String_val@U?$_Simple_types@D@std@@@std@@@std@@@std@@@std@@YAXQAV?$sub_match@V?$_String_const_iterator@V?$_String_val@U?$_Simple_types@D@std@@@std@@@std@@@0@@Z
	??$destroy_at@V?$vector@PBUwhisper_grammar_element@@V?$allocator@PBUwhisper_grammar_element@@@std@@@std@@@std@@YAXQAV?$vector@PBUwhisper_grammar_element@@V?$allocator@PBUwhisper_grammar_element@@@std@@@0@@Z
	??$destroy_at@V?$vector@Uwhisper_grammar_element@@V?$allocator@Uwhisper_grammar_element@@@std@@@std@@@std@@YAXQAV?$vector@Uwhisper_grammar_element@@V?$allocator@Uwhisper_grammar_element@@@std@@@0@@Z
	??$destroy_at@Vthread@std@@@std@@YAXQAVthread@0@@Z
	??$distance@PAD@std@@YAHPAD0@Z
	??$distance@PAH@std@@YAHPAH0@Z
	??$distance@PAI@std@@YAHPAI0@Z
	??$distance@PAPBUwhisper_grammar_element@@@std@@YAHPAPBUwhisper_grammar_element@@0@Z
	??$distance@PAU_Grp_t@?$_Tgt_state_t@PBD@std@@@std@@YAHPAU_Grp_t@?$_Tgt_state_t@PBD@0@0@Z
	??$distance@PAU_Grp_t@?$_Tgt_state_t@V?$_String_const_iterator@V?$_String_val@U?$_Simple_types@D@std@@@std@@@std@@@std@@@std@@YAHPAU_Grp_t@?$_Tgt_state_t@V?$_String_const_iterator@V?$_String_val@U?$_Simple_types@D@std@@@std@@@std@@@0@0@Z
	??$distance@PAUwhisper_grammar_element@@@std@@YAHPAUwhisper_grammar_element@@0@Z
	??$distance@PAUwhisper_token_data@@@std@@YAHPAUwhisper_token_data@@0@Z
	??$distance@PAV?$vector@PBUwhisper_grammar_element@@V?$allocator@PBUwhisper_grammar_element@@@std@@@std@@@std@@YAHPAV?$vector@PBUwhisper_grammar_element@@V?$allocator@PBUwhisper_grammar_element@@@std@@@0@0@Z
	??$distance@PAV?$vector@Uwhisper_grammar_element@@V?$allocator@Uwhisper_grammar_element@@@std@@@std@@@std@@YAHPAV?$vector@Uwhisper_grammar_element@@V?$allocator@Uwhisper_grammar_element@@@std@@@0@0@Z
	??$distance@PBD@std@@YAHPBD0@Z
	??$distance@PBH@std@@YAHPBH0@Z
	??$distance@PBI@std@@YAHPBI0@Z
	??$distance@PBM@std@@YAHPBM0@Z
	??$distance@PBN@std@@YAHPBN0@Z
	??$distance@PBQBUwhisper_grammar_element@@@std@@YAHPBQBUwhisper_grammar_element@@0@Z
	??$distance@PBUvad_time_mapping@@@std@@YAHPBUvad_time_mapping@@0@Z
	??$distance@PBV?$basic_string@DU?$char_traits@D@std@@V?$allocator@D@2@@std@@@std@@YAHPBV?$basic_string@DU?$char_traits@D@std@@V?$allocator@D@2@@0@0@Z
	??$distance@V?$_String_const_iterator@V?$_String_val@U?$_Simple_types@D@std@@@std@@@std@@@std@@YAHV?$_String_const_iterator@V?$_String_val@U?$_Simple_types@D@std@@@std@@@0@0@Z
	??$distance@V?$_Tree_unchecked_const_iterator@V?$_Tree_val@U?$_Tree_simple_types@H@std@@@std@@U_Iterator_base0@2@@std@@@std@@YAHV?$_Tree_unchecked_const_iterator@V?$_Tree_val@U?$_Tree_simple_types@H@std@@@std@@U_Iterator_base0@2@@0@0@Z
	??$emplace_back@$$V@?$vector@V?$vector@PBUwhisper_grammar_element@@V?$allocator@PBUwhisper_grammar_element@@@std@@@std@@V?$allocator@V?$vector@PBUwhisper_grammar_element@@V?$allocator@PBUwhisper_grammar_element@@@std@@@std@@@2@@std@@QAE?A_TXZ
	??$emplace_back@AAMABH@?$vector@U?$whisper_pair@NH@@V?$allocator@U?$whisper_pair@NH@@@std@@@std@@QAE?A_TAAMABH@Z
	??$emplace_back@AAPAUggml_backend_buffer@@@?$vector@PAUggml_backend_buffer@@V?$allocator@PAUggml_backend_buffer@@@std@@@std@@QAE?A_TAAPAUggml_backend_buffer@@@Z
	??$emplace_back@AAPAUggml_backend_device@@AAPAUggml_backend_buffer_type@@@?$vector@U?$pair@PAUggml_backend_device@@PAUggml_backend_buffer_type@@@std@@V?$allocator@U?$pair@PAUggml_backend_device@@PAUggml_backend_buffer_type@@@std@@@2@@std@@QAE?A_TAAPAUggml_backend_device@@AAPAUggml_backend_buffer_type@@@Z
	??$emplace_back@AAPAUggml_backend_device@@PAUggml_backend_buffer_type@@@?$vector@U?$pair@PAUggml_backend_device@@PAUggml_backend_buffer_type@@@std@@V?$allocator@U?$pair@PAUggml_backend_device@@PAUggml_backend_buffer_type@@@std@@@2@@std@@QAE?A_TAAPAUggml_backend_device@@$$QAPAUggml_backend_buffer_type@@@Z
	??$emplace_back@AAPAUggml_context@@@?$vector@PAUggml_context@@V?$allocator@PAUggml_context@@@std@@@std@@QAE?A_TAAPAUggml_context@@@Z
	??$emplace_back@ABH@?$vector@HV?$allocator@H@std@@@std@@QAE?A_TABH@Z
	??$emplace_back@ABI@?$vector@IV?$allocator@I@std@@@std@@QAE?A_TABI@Z
	??$emplace_back@ABM@?$vector@MV?$allocator@M@std@@@std@@QAE?A_TABM@Z
	??$emplace_back@ABQAUggml_backend@@@?$vector@PAUggml_backend@@V?$allocator@PAUggml_backend@@@std@@@std@@QAE?A_TABQAUggml_backend@@@Z
	??$emplace_back@ABQBUwhisper_grammar_element@@@?$vector@PBUwhisper_grammar_element@@V?$allocator@PBUwhisper_grammar_element@@@std@@@std@@QAE?A_TABQBUwhisper_grammar_element@@@Z
	??$emplace_back@ABUvad_segment_info@whisper_state@@@?$vector@Uvad_segment_info@whisper_state@@V?$allocator@Uvad_segment_info@whisper_state@@@std@@@std@@QAE?A_TABUvad_segment_info@whisper_state@@@Z
	??$emplace_back@ABUvad_time_mapping@@@?$vector@Uvad_time_mapping@@V?$allocator@Uvad_time_mapping@@@std@@@std@@QAE?A_TABUvad_time_mapping@@@Z
	??$emplace_back@ABUwhisper_grammar_candidate@@@?$vector@Uwhisper_grammar_candidate@@V?$allocator@Uwhisper_grammar_candidate@@@std@@@std@@QAE?A_TABUwhisper_grammar_candidate@@@Z
	??$emplace_back@ABUwhisper_grammar_element@@@?$vector@Uwhisper_grammar_element@@V?$allocator@Uwhisper_grammar_element@@@std@@@std@@QAE?A_TABUwhisper_grammar_element@@@Z
	??$emplace_back@ABUwhisper_token_data@@@?$vector@Uwhisper_token_data@@V?$allocator@Uwhisper_token_data@@@std@@@std@@QAE?A_TABUwhisper_token_data@@@Z
	??$emplace_back@ABV?$vector@PBUwhisper_grammar_element@@V?$allocator@PBUwhisper_grammar_element@@@std@@@std@@@?$vector@V?$vector@PBUwhisper_grammar_element@@V?$allocator@PBUwhisper_grammar_element@@@std@@@std@@V?$allocator@V?$vector@PBUwhisper_grammar_element@@V?$allocator@PBUwhisper_grammar_element@@@std@@@std@@@2@@std@@QAE?A_TABV?$vector@PBUwhisper_grammar_element@@V?$allocator@PBUwhisper_grammar_element@@@std@@@1@@Z
	??$emplace_back@H@?$vector@HV?$allocator@H@std@@@std@@QAE?A_T$$QAH@Z
	??$emplace_back@I@?$vector@IV?$allocator@I@std@@@std@@QAE?A_T$$QAI@Z
	??$emplace_back@M@?$vector@MV?$allocator@M@std@@@std@@QAE?A_T$$QAM@Z
	??$emplace_back@N@?$vector@NV?$allocator@N@std@@@std@@QAE?A_T$$QAN@Z
	??$emplace_back@PAUggml_tensor@@@?$vector@PAUggml_tensor@@V?$allocator@PAUggml_tensor@@@std@@@std@@QAE?A_T$$QAPAUggml_tensor@@@Z
	??$emplace_back@PAUwhisper_state@@@?$vector@PAUwhisper_state@@V?$allocator@PAUwhisper_state@@@std@@@std@@QAE?A_T$$QAPAUwhisper_state@@@Z
	??$emplace_back@PBUwhisper_grammar_element@@@?$vector@PBUwhisper_grammar_element@@V?$allocator@PBUwhisper_grammar_element@@@std@@@std@@QAE?A_T$$QAPBUwhisper_grammar_element@@@Z
	??$emplace_back@U?$pair@V?$vector@IV?$allocator@I@std@@@std@@Uwhisper_partial_utf8@@@std@@@?$vector@U?$pair@V?$vector@IV?$allocator@I@std@@@std@@Uwhisper_partial_utf8@@@std@@V?$allocator@U?$pair@V?$vector@IV?$allocator@I@std@@@std@@Uwhisper_partial_utf8@@@std@@@2@@std@@QAE?A_T$$QAU?$pair@V?$vector@IV?$allocator@I@std@@@std@@Uwhisper_partial_utf8@@@1@@Z
	??$emplace_back@Uvad_time_mapping@@@?$vector@Uvad_time_mapping@@V?$allocator@Uvad_time_mapping@@@std@@@std@@QAE?A_T$$QAUvad_time_mapping@@@Z
	??$emplace_back@Uwhisper_grammar_candidate@@@?$vector@Uwhisper_grammar_candidate@@V?$allocator@Uwhisper_grammar_candidate@@@std@@@std@@QAE?A_T$$QAUwhisper_grammar_candidate@@@Z
	??$emplace_back@Uwhisper_grammar_element@@@?$vector@Uwhisper_grammar_element@@V?$allocator@Uwhisper_grammar_element@@@std@@@std@@QAE?A_T$$QAUwhisper_grammar_element@@@Z
	??$emplace_back@Uwhisper_segment@@@?$vector@Uwhisper_segment@@V?$allocator@Uwhisper_segment@@@std@@@std@@QAE?A_T$$QAUwhisper_segment@@@Z
	??$emplace_back@Uwhisper_token_data@@@?$vector@Uwhisper_token_data@@V?$allocator@Uwhisper_token_data@@@std@@@std@@QAE?A_T$$QAUwhisper_token_data@@@Z
	??$emplace_back@V?$basic_string@DU?$char_traits@D@std@@V?$allocator@D@2@@std@@@?$vector@V?$basic_string@DU?$char_traits@D@std@@V?$allocator@D@2@@std@@V?$allocator@V?$basic_string@DU?$char_traits@D@std@@V?$allocator@D@2@@std@@@2@@std@@QAE?A_T$$QAV?$basic_string@DU?$char_traits@D@std@@V?$allocator@D@2@@1@@Z
	??$end@D$0BF@@std@@YAPADAAY0BF@D@Z
	??$equal@PBDPBDU?$_Cmp_icase@V?$_Regex_traits@D@std@@@std@@@std@@YA_NQBD000U?$_Cmp_icase@V?$_Regex_traits@D@std@@@0@@Z
	??$equal@PBDPBDU?$_Cmp_icase@V?$_Regex_traits@D@std@@@std@@@std@@YA_NQBD00U?$_Cmp_icase@V?$_Regex_traits@D@std@@@0@@Z
	??$exchange@PAH$$T@std@@YAPAHAAPAH$$QA$$T@Z
	??$exchange@PAI$$T@std@@YAPAIAAPAI$$QA$$T@Z
	??$exchange@PAM$$T@std@@YAPAMAAPAM$$QA$$T@Z
	??$exchange@PAPAUggml_backend@@$$T@std@@YAPAPAUggml_backend@@AAPAPAU1@$$QA$$T@Z
	??$exchange@PAPBUwhisper_grammar_element@@$$T@std@@YAPAPBUwhisper_grammar_element@@AAPAPBU1@$$QA$$T@Z
	??$exchange@PAU?$_Tree_node@HPAX@std@@$$T@std@@YAPAU?$_Tree_node@HPAX@0@AAPAU10@$$QA$$T@Z
	??$exchange@PAU?$_Tree_node@HPAX@std@@AAPAU12@@std@@YAPAU?$_Tree_node@HPAX@0@AAPAU10@0@Z
	??$exchange@PAU?$_Tree_node@U?$pair@$$CBHH@std@@PAX@std@@$$T@std@@YAPAU?$_Tree_node@U?$pair@$$CBHH@std@@PAX@0@AAPAU10@$$QA$$T@Z
	??$exchange@PAU?$_Tree_node@U?$pair@$$CBHH@std@@PAX@std@@AAPAU12@@std@@YAPAU?$_Tree_node@U?$pair@$$CBHH@std@@PAX@0@AAPAU10@0@Z
	??$exchange@PAU?$_Tree_node@U?$pair@$$CBHV?$basic_string@DU?$char_traits@D@std@@V?$allocator@D@2@@std@@@std@@PAX@std@@$$T@std@@YAPAU?$_Tree_node@U?$pair@$$CBHV?$basic_string@DU?$char_traits@D@std@@V?$allocator@D@2@@std@@@std@@PAX@0@AAPAU10@$$QA$$T@Z
	??$exchange@PAU?$_Tree_node@U?$pair@$$CBHV?$basic_string@DU?$char_traits@D@std@@V?$allocator@D@2@@std@@@std@@PAX@std@@AAPAU12@@std@@YAPAU?$_Tree_node@U?$pair@$$CBHV?$basic_string@DU?$char_traits@D@std@@V?$allocator@D@2@@std@@@std@@PAX@0@AAPAU10@0@Z
	??$exchange@PAU?$_Tree_node@U?$pair@$$CBV?$basic_string@DU?$char_traits@D@std@@V?$allocator@D@2@@std@@H@std@@PAX@std@@$$T@std@@YAPAU?$_Tree_node@U?$pair@$$CBV?$basic_string@DU?$char_traits@D@std@@V?$allocator@D@2@@std@@H@std@@PAX@0@AAPAU10@$$QA$$T@Z
	??$exchange@PAU?$_Tree_node@U?$pair@$$CBV?$basic_string@DU?$char_traits@D@std@@V?$allocator@D@2@@std@@H@std@@PAX@std@@AAPAU12@@std@@YAPAU?$_Tree_node@U?$pair@$$CBV?$basic_string@DU?$char_traits@D@std@@V?$allocator@D@2@@std@@H@std@@PAX@0@AAPAU10@0@Z
	??$exchange@PAU?$_Tree_node@U?$pair@$$CBV?$basic_string@DU?$char_traits@D@std@@V?$allocator@D@2@@std@@PAUggml_tensor@@@std@@PAX@std@@$$T@std@@YAPAU?$_Tree_node@U?$pair@$$CBV?$basic_string@DU?$char_traits@D@std@@V?$allocator@D@2@@std@@PAUggml_tensor@@@std@@PAX@0@AAPAU10@$$QA$$T@Z
	??$exchange@PAU?$_Tree_node@U?$pair@$$CBV?$basic_string@DU?$char_traits@D@std@@V?$allocator@D@2@@std@@PAUggml_tensor@@@std@@PAX@std@@AAPAU12@@std@@YAPAU?$_Tree_node@U?$pair@$$CBV?$basic_string@DU?$char_traits@D@std@@V?$allocator@D@2@@std@@PAUggml_tensor@@@std@@PAX@0@AAPAU10@0@Z
	??$exchange@PAU?$_Tree_node@U?$pair@$$CBV?$basic_string@DU?$char_traits@D@std@@V?$allocator@D@2@@std@@U?$pair@HV?$basic_string@DU?$char_traits@D@std@@V?$allocator@D@2@@std@@@2@@std@@PAX@std@@$$T@std@@YAPAU?$_Tree_node@U?$pair@$$CBV?$basic_string@DU?$char_traits@D@std@@V?$allocator@D@2@@std@@U?$pair@HV?$basic_string@DU?$char_traits@D@std@@V?$allocator@D@2@@std@@@2@@std@@PAX@0@AAPAU10@$$QA$$T@Z
	??$exchange@PAU?$_Tree_node@U?$pair@$$CBV?$basic_string@DU?$char_traits@D@std@@V?$allocator@D@2@@std@@U?$pair@HV?$basic_string@DU?$char_traits@D@std@@V?$allocator@D@2@@std@@@2@@std@@PAX@std@@AAPAU12@@std@@YAPAU?$_Tree_node@U?$pair@$$CBV?$basic_string@DU?$char_traits@D@std@@V?$allocator@D@2@@std@@U?$pair@HV?$basic_string@DU?$char_traits@D@std@@V?$allocator@D@2@@std@@@2@@std@@PAX@0@AAPAU10@0@Z
	??$exchange@PAU?$_Tree_node@U?$pair@$$CBW4asr_system@@V?$map@W4asr_tensor@@PBDU?$less@W4asr_tensor@@@std@@V?$allocator@U?$pair@$$CBW4asr_tensor@@PBD@std@@@3@@std@@@std@@PAX@std@@$$T@std@@YAPAU?$_Tree_node@U?$pair@$$CBW4asr_system@@V?$map@W4asr_tensor@@PBDU?$less@W4asr_tensor@@@std@@V?$allocator@U?$pair@$$CBW4asr_tensor@@PBD@std@@@3@@std@@@std@@PAX@0@AAPAU10@$$QA$$T@Z
	??$exchange@PAU?$_Tree_node@U?$pair@$$CBW4asr_system@@V?$map@W4asr_tensor@@PBDU?$less@W4asr_tensor@@@std@@V?$allocator@U?$pair@$$CBW4asr_tensor@@PBD@std@@@3@@std@@@std@@PAX@std@@AAPAU12@@std@@YAPAU?$_Tree_node@U?$pair@$$CBW4asr_system@@V?$map@W4asr_tensor@@PBDU?$less@W4asr_tensor@@@std@@V?$allocator@U?$pair@$$CBW4asr_tensor@@PBD@std@@@3@@std@@@std@@PAX@0@AAPAU10@0@Z
	??$exchange@PAU?$_Tree_node@U?$pair@$$CBW4asr_tensor@@PBD@std@@PAX@std@@$$T@std@@YAPAU?$_Tree_node@U?$pair@$$CBW4asr_tensor@@PBD@std@@PAX@0@AAPAU10@$$QA$$T@Z
	??$exchange@PAU?$_Tree_node@U?$pair@$$CBW4asr_tensor@@PBD@std@@PAX@std@@AAPAU12@@std@@YAPAU?$_Tree_node@U?$pair@$$CBW4asr_tensor@@PBD@std@@PAX@0@AAPAU10@0@Z
	??$exchange@PAU?$_Tree_node@U?$pair@$$CBW4asr_tensor@@W4ggml_op@@@std@@PAX@std@@$$T@std@@YAPAU?$_Tree_node@U?$pair@$$CBW4asr_tensor@@W4ggml_op@@@std@@PAX@0@AAPAU10@$$QA$$T@Z
	??$exchange@PAU?$_Tree_node@U?$pair@$$CBW4asr_tensor@@W4ggml_op@@@std@@PAX@std@@AAPAU12@@std@@YAPAU?$_Tree_node@U?$pair@$$CBW4asr_tensor@@W4ggml_op@@@std@@PAX@0@AAPAU10@0@Z
	??$exchange@PAU?$_Tree_node@U?$pair@$$CBW4e_model@@V?$basic_string@DU?$char_traits@D@std@@V?$allocator@D@2@@std@@@std@@PAX@std@@$$T@std@@YAPAU?$_Tree_node@U?$pair@$$CBW4e_model@@V?$basic_string@DU?$char_traits@D@std@@V?$allocator@D@2@@std@@@std@@PAX@0@AAPAU10@$$QA$$T@Z
	??$exchange@PAU?$_Tree_node@U?$pair@$$CBW4e_model@@V?$basic_string@DU?$char_traits@D@std@@V?$allocator@D@2@@std@@@std@@PAX@std@@AAPAU12@@std@@YAPAU?$_Tree_node@U?$pair@$$CBW4e_model@@V?$basic_string@DU?$char_traits@D@std@@V?$allocator@D@2@@std@@@std@@PAX@0@AAPAU10@0@Z
	??$exchange@PAU?$_Tree_node@U?$pair@$$CBW4vad_tensor@@PBD@std@@PAX@std@@$$T@std@@YAPAU?$_Tree_node@U?$pair@$$CBW4vad_tensor@@PBD@std@@PAX@0@AAPAU10@$$QA$$T@Z
	??$exchange@PAU?$_Tree_node@U?$pair@$$CBW4vad_tensor@@PBD@std@@PAX@std@@AAPAU12@@std@@YAPAU?$_Tree_node@U?$pair@$$CBW4vad_tensor@@PBD@std@@PAX@0@AAPAU10@0@Z
	??$exchange@PAU?$_Tree_node@U?$pair@$$CBW4vad_tensor@@W4ggml_op@@@std@@PAX@std@@$$T@std@@YAPAU?$_Tree_node@U?$pair@$$CBW4vad_tensor@@W4ggml_op@@@std@@PAX@0@AAPAU10@$$QA$$T@Z
	??$exchange@PAU?$_Tree_node@U?$pair@$$CBW4vad_tensor@@W4ggml_op@@@std@@PAX@std@@AAPAU12@@std@@YAPAU?$_Tree_node@U?$pair@$$CBW4vad_tensor@@W4ggml_op@@@std@@PAX@0@AAPAU10@0@Z
	??$exchange@PAU?$_Tree_node@U?$pair@$$CBW4whisper_alignment_heads_preset@@Uwhisper_aheads@@@std@@PAX@std@@$$T@std@@YAPAU?$_Tree_node@U?$pair@$$CBW4whisper_alignment_heads_preset@@Uwhisper_aheads@@@std@@PAX@0@AAPAU10@$$QA$$T@Z
	??$exchange@PAU?$_Tree_node@U?$pair@$$CBW4whisper_alignment_heads_preset@@Uwhisper_aheads@@@std@@PAX@std@@AAPAU12@@std@@YAPAU?$_Tree_node@U?$pair@$$CBW4whisper_alignment_heads_preset@@Uwhisper_aheads@@@std@@PAX@0@AAPAU10@0@Z
	??$exchange@PAU?$_Tree_node@U?$pair@QAUggml_backend_buffer_type@@PAUggml_context@@@std@@PAX@std@@$$T@std@@YAPAU?$_Tree_node@U?$pair@QAUggml_backend_buffer_type@@PAUggml_context@@@std@@PAX@0@AAPAU10@$$QA$$T@Z
	??$exchange@PAU?$_Tree_node@U?$pair@QAUggml_backend_buffer_type@@PAUggml_context@@@std@@PAX@std@@AAPAU12@@std@@YAPAU?$_Tree_node@U?$pair@QAUggml_backend_buffer_type@@PAUggml_context@@@std@@PAX@0@AAPAU10@0@Z
	??$exchange@PAU?$pair@PAUggml_backend_device@@PAUggml_backend_buffer_type@@@std@@$$T@std@@YAPAU?$pair@PAUggml_backend_device@@PAUggml_backend_buffer_type@@@0@AAPAU10@$$QA$$T@Z
	??$exchange@PAU_Container_proxy@std@@$$T@std@@YAPAU_Container_proxy@0@AAPAU10@$$QA$$T@Z
	??$exchange@PAUwhisper_grammar_candidate@@$$T@std@@YAPAUwhisper_grammar_candidate@@AAPAU1@$$QA$$T@Z
	??$exchange@PAUwhisper_token_data@@$$T@std@@YAPAUwhisper_token_data@@AAPAU1@$$QA$$T@Z
	??$exchange@PAV?$tuple@P6AHPAUwhisper_context@@PAUwhisper_state@@Uwhisper_full_params@@PBMH@ZPAU1@PAU2@U3@PBMH@std@@$$T@std@@YAPAV?$tuple@P6AHPAUwhisper_context@@PAUwhisper_state@@Uwhisper_full_params@@PBMH@ZPAU1@PAU2@U3@PBMH@0@AAPAV10@$$QA$$T@Z
	??$exchange@PAV?$tuple@P6AXHPBMABV?$vector@MV?$allocator@M@std@@@std@@HHHHABUwhisper_filters@@AAUwhisper_mel@@@ZHPBMV?$reference_wrapper@$$CBV?$vector@MV?$allocator@M@std@@@std@@@2@_JHHHV?$reference_wrapper@$$CBUwhisper_filters@@@2@V?$reference_wrapper@Uwhisper_mel@@@2@@std@@$$T@std@@YAPAV?$tuple@P6AXHPBMABV?$vector@MV?$allocator@M@std@@@std@@HHHHABUwhisper_filters@@AAUwhisper_mel@@@ZHPBMV?$reference_wrapper@$$CBV?$vector@MV?$allocator@M@std@@@std@@@2@_JHHHV?$reference_wrapper@$$CBUwhisper_filters@@@2@V?$reference_wrapper@Uwhisper_mel@@@2@@0@AAPAV10@$$QA$$T@Z
	??$exchange@PAV?$vector@PBUwhisper_grammar_element@@V?$allocator@PBUwhisper_grammar_element@@@std@@@std@@$$T@std@@YAPAV?$vector@PBUwhisper_grammar_element@@V?$allocator@PBUwhisper_grammar_element@@@std@@@0@AAPAV10@$$QA$$T@Z
	??$exchange@PAV?$vector@Uwhisper_grammar_element@@V?$allocator@Uwhisper_grammar_element@@@std@@@std@@$$T@std@@YAPAV?$vector@Uwhisper_grammar_element@@V?$allocator@Uwhisper_grammar_element@@@std@@@0@AAPAV10@$$QA$$T@Z
	??$exchange@PAV_Facet_base@std@@$$T@std@@YAPAV_Facet_base@0@AAPAV10@$$QA$$T@Z
	??$exchange@PAV_Node_assert@std@@$$T@std@@YAPAV_Node_assert@0@AAPAV10@$$QA$$T@Z
	??$exchange@U_Thrd_t@@U1@@std@@YA?AU_Thrd_t@@AAU1@$$QAU1@@Z
	??$fill@PANN@std@@YAXQAN0ABN@Z
	??$fill@V?$_Vb_iterator@U?$_Wrap_alloc@V?$allocator@I@std@@@std@@@std@@_N@std@@YAXV?$_Vb_iterator@U?$_Wrap_alloc@V?$allocator@I@std@@@std@@@0@0AB_N@Z
	??$fill@V?$_Vector_iterator@V?$_Vector_val@U?$_Simple_types@M@std@@@std@@@std@@H@std@@YAXV?$_Vector_iterator@V?$_Vector_val@U?$_Simple_types@M@std@@@std@@@0@0ABH@Z
	??$fill@V?$_Vector_iterator@V?$_Vector_val@U?$_Simple_types@M@std@@@std@@@std@@M@std@@YAXV?$_Vector_iterator@V?$_Vector_val@U?$_Simple_types@M@std@@@std@@@0@0ABM@Z
	??$fill@V?$_Vector_iterator@V?$_Vector_val@U?$_Simple_types@M@std@@@std@@@std@@N@std@@YAXV?$_Vector_iterator@V?$_Vector_val@U?$_Simple_types@M@std@@@std@@@0@0ABN@Z
	??$find@PBDE@std@@YAPBDPBDQBDABE@Z
	??$find@V?$_String_const_iterator@V?$_String_val@U?$_Simple_types@D@std@@@std@@@std@@W4_Meta_type@2@@std@@YA?AV?$_String_const_iterator@V?$_String_val@U?$_Simple_types@D@std@@@std@@@0@V10@V10@ABW4_Meta_type@0@@Z
	??$forward@A6AHPAUwhisper_context@@PAUwhisper_state@@Uwhisper_full_params@@PBMH@Z@std@@YAA6AHPAUwhisper_context@@PAUwhisper_state@@Uwhisper_full_params@@PBMH@ZA6AH0123H@Z@Z
	??$forward@A6AXHPBMABV?$vector@MV?$allocator@M@std@@@std@@HHHHABUwhisper_filters@@AAUwhisper_mel@@@Z@std@@YAA6AXHPBMABV?$vector@MV?$allocator@M@std@@@0@HHHHABUwhisper_filters@@AAUwhisper_mel@@@ZA6AXH01HHHH23@Z@Z
	??$forward@AAD@std@@YAAADAAD@Z
	??$forward@AAH@std@@YAAAHAAH@Z
	??$forward@AAI@std@@YAAAIAAI@Z
	??$forward@AAM@std@@YAAAMAAM@Z
	??$forward@AAPAD@std@@YAAAPADAAPAD@Z
	??$forward@AAPAM@std@@YAAAPAMAAPAM@Z
	??$forward@AAPAU?$_Tree_node@HPAX@std@@@std@@YAAAPAU?$_Tree_node@HPAX@0@AAPAU10@@Z
	??$forward@AAPAU?$_Tree_node@U?$pair@$$CBHH@std@@PAX@std@@@std@@YAAAPAU?$_Tree_node@U?$pair@$$CBHH@std@@PAX@0@AAPAU10@@Z
	??$forward@AAPAU?$_Tree_node@U?$pair@$$CBHV?$basic_string@DU?$char_traits@D@std@@V?$allocator@D@2@@std@@@std@@PAX@std@@@std@@YAAAPAU?$_Tree_node@U?$pair@$$CBHV?$basic_string@DU?$char_traits@D@std@@V?$allocator@D@2@@std@@@std@@PAX@0@AAPAU10@@Z
	??$forward@AAPAU?$_Tree_node@U?$pair@$$CBV?$basic_string@DU?$char_traits@D@std@@V?$allocator@D@2@@std@@H@std@@PAX@std@@@std@@YAAAPAU?$_Tree_node@U?$pair@$$CBV?$basic_string@DU?$char_traits@D@std@@V?$allocator@D@2@@std@@H@std@@PAX@0@AAPAU10@@Z
	??$forward@AAPAU?$_Tree_node@U?$pair@$$CBV?$basic_string@DU?$char_traits@D@std@@V?$allocator@D@2@@std@@PAUggml_tensor@@@std@@PAX@std@@@std@@YAAAPAU?$_Tree_node@U?$pair@$$CBV?$basic_string@DU?$char_traits@D@std@@V?$allocator@D@2@@std@@PAUggml_tensor@@@std@@PAX@0@AAPAU10@@Z
	??$forward@AAPAU?$_Tree_node@U?$pair@$$CBV?$basic_string@DU?$char_traits@D@std@@V?$allocator@D@2@@std@@U?$pair@HV?$basic_string@DU?$char_traits@D@std@@V?$allocator@D@2@@std@@@2@@std@@PAX@std@@@std@@YAAAPAU?$_Tree_node@U?$pair@$$CBV?$basic_string@DU?$char_traits@D@std@@V?$allocator@D@2@@std@@U?$pair@HV?$basic_string@DU?$char_traits@D@std@@V?$allocator@D@2@@std@@@2@@std@@PAX@0@AAPAU10@@Z
	??$forward@AAPAU?$_Tree_node@U?$pair@$$CBW4asr_system@@V?$map@W4asr_tensor@@PBDU?$less@W4asr_tensor@@@std@@V?$allocator@U?$pair@$$CBW4asr_tensor@@PBD@std@@@3@@std@@@std@@PAX@std@@@std@@YAAAPAU?$_Tree_node@U?$pair@$$CBW4asr_system@@V?$map@W4asr_tensor@@PBDU?$less@W4asr_tensor@@@std@@V?$allocator@U?$pair@$$CBW4asr_tensor@@PBD@std@@@3@@std@@@std@@PAX@0@AAPAU10@@Z
	??$forward@AAPAU?$_Tree_node@U?$pair@$$CBW4asr_tensor@@PBD@std@@PAX@std@@@std@@YAAAPAU?$_Tree_node@U?$pair@$$CBW4asr_tensor@@PBD@std@@PAX@0@AAPAU10@@Z
	??$forward@AAPAU?$_Tree_node@U?$pair@$$CBW4asr_tensor@@W4ggml_op@@@std@@PAX@std@@@std@@YAAAPAU?$_Tree_node@U?$pair@$$CBW4asr_tensor@@W4ggml_op@@@std@@PAX@0@AAPAU10@@Z
	??$forward@AAPAU?$_Tree_node@U?$pair@$$CBW4e_model@@V?$basic_string@DU?$char_traits@D@std@@V?$allocator@D@2@@std@@@std@@PAX@std@@@std@@YAAAPAU?$_Tree_node@U?$pair@$$CBW4e_model@@V?$basic_string@DU?$char_traits@D@std@@V?$allocator@D@2@@std@@@std@@PAX@0@AAPAU10@@Z
	??$forward@AAPAU?$_Tree_node@U?$pair@$$CBW4vad_tensor@@PBD@std@@PAX@std@@@std@@YAAAPAU?$_Tree_node@U?$pair@$$CBW4vad_tensor@@PBD@std@@PAX@0@AAPAU10@@Z
	??$forward@AAPAU?$_Tree_node@U?$pair@$$CBW4vad_tensor@@W4ggml_op@@@std@@PAX@std@@@std@@YAAAPAU?$_Tree_node@U?$pair@$$CBW4vad_tensor@@W4ggml_op@@@std@@PAX@0@AAPAU10@@Z
	??$forward@AAPAU?$_Tree_node@U?$pair@$$CBW4whisper_alignment_heads_preset@@Uwhisper_aheads@@@std@@PAX@std@@@std@@YAAAPAU?$_Tree_node@U?$pair@$$CBW4whisper_alignment_heads_preset@@Uwhisper_aheads@@@std@@PAX@0@AAPAU10@@Z
	??$forward@AAPAU?$_Tree_node@U?$pair@QAUggml_backend_buffer_type@@PAUggml_context@@@std@@PAX@std@@@std@@YAAAPAU?$_Tree_node@U?$pair@QAUggml_backend_buffer_type@@PAUggml_context@@@std@@PAX@0@AAPAU10@@Z
	??$forward@AAPAU?$whisper_pair@NH@@@std@@YAAAPAU?$whisper_pair@NH@@AAPAU1@@Z
	??$forward@AAPAUggml_backend@@@std@@YAAAPAUggml_backend@@AAPAU1@@Z
	??$forward@AAPAUggml_backend_buffer@@@std@@YAAAPAUggml_backend_buffer@@AAPAU1@@Z
	??$forward@AAPAUggml_backend_buffer_type@@@std@@YAAAPAUggml_backend_buffer_type@@AAPAU1@@Z
	??$forward@AAPAUggml_backend_device@@@std@@YAAAPAUggml_backend_device@@AAPAU1@@Z
	??$forward@AAPAUggml_context@@@std@@YAAAPAUggml_context@@AAPAU1@@Z
	??$forward@AAPAUvad_time_mapping@@@std@@YAAAPAUvad_time_mapping@@AAPAU1@@Z
	??$forward@AAPAUwhisper_context@@@std@@YAAAPAUwhisper_context@@AAPAU1@@Z
	??$forward@AAPAUwhisper_state@@@std@@YAAAPAUwhisper_state@@AAPAU1@@Z
	??$forward@AAPAV?$tuple@P6AHPAUwhisper_context@@PAUwhisper_state@@Uwhisper_full_params@@PBMH@ZPAU1@PAU2@U3@PBMH@std@@@std@@YAAAPAV?$tuple@P6AHPAUwhisper_context@@PAUwhisper_state@@Uwhisper_full_params@@PBMH@ZPAU1@PAU2@U3@PBMH@0@AAPAV10@@Z
	??$forward@AAPAV?$tuple@P6AXHPBMABV?$vector@MV?$allocator@M@std@@@std@@HHHHABUwhisper_filters@@AAUwhisper_mel@@@ZHPBMV?$reference_wrapper@$$CBV?$vector@MV?$allocator@M@std@@@std@@@2@_JHHHV?$reference_wrapper@$$CBUwhisper_filters@@@2@V?$reference_wrapper@Uwhisper_mel@@@2@@std@@@std@@YAAAPAV?$tuple@P6AXHPBMABV?$vector@MV?$allocator@M@std@@@std@@HHHHABUwhisper_filters@@AAUwhisper_mel@@@ZHPBMV?$reference_wrapper@$$CBV?$vector@MV?$allocator@M@std@@@std@@@2@_JHHHV?$reference_wrapper@$$CBUwhisper_filters@@@2@V?$reference_wrapper@Uwhisper_mel@@@2@@0@AAPAV10@@Z
	??$forward@AAPAV_Facet_base@std@@@std@@YAAAPAV_Facet_base@0@AAPAV10@@Z
	??$forward@AAPAV_Node_assert@std@@@std@@YAAAPAV_Node_assert@0@AAPAV10@@Z
	??$forward@AAPA_W@std@@YAAAPA_WAAPA_W@Z
	??$forward@AAPBM@std@@YAAAPBMAAPBM@Z
	??$forward@AAPBN@std@@YAAAPBNAAPBN@Z
	??$forward@AAPBUvad_time_mapping@@@std@@YAAAPBUvad_time_mapping@@AAPBU1@@Z
	??$forward@AAPBUwhisper_grammar_element@@@std@@YAAAPBUwhisper_grammar_element@@AAPBU1@@Z
	??$forward@AAU?$pair@$$CBW4asr_tensor@@PBD@std@@@std@@YAAAU?$pair@$$CBW4asr_tensor@@PBD@0@AAU10@@Z
	??$forward@AAU?$pair@PAUggml_backend_device@@PAUggml_backend_buffer_type@@@std@@@std@@YAAAU?$pair@PAUggml_backend_device@@PAUggml_backend_buffer_type@@@0@AAU10@@Z
	??$forward@AAU_Grp_t@?$_Tgt_state_t@PBD@std@@@std@@YAAAU_Grp_t@?$_Tgt_state_t@PBD@0@AAU120@@Z
	??$forward@AAU_Grp_t@?$_Tgt_state_t@V?$_String_const_iterator@V?$_String_val@U?$_Simple_types@D@std@@@std@@@std@@@std@@@std@@YAAAU_Grp_t@?$_Tgt_state_t@V?$_String_const_iterator@V?$_String_val@U?$_Simple_types@D@std@@@std@@@std@@@0@AAU120@@Z
	??$forward@AAUwhisper_grammar_element@@@std@@YAAAUwhisper_grammar_element@@AAU1@@Z
	??$forward@AAUwhisper_kv_cell@@@std@@YAAAUwhisper_kv_cell@@AAU1@@Z
	??$forward@AAUwhisper_token_data@@@std@@YAAAUwhisper_token_data@@AAU1@@Z
	??$forward@AAV?$allocator@D@std@@@std@@YAAAV?$allocator@D@0@AAV10@@Z
	??$forward@AAV?$vector@PBUwhisper_grammar_element@@V?$allocator@PBUwhisper_grammar_element@@@std@@@std@@@std@@YAAAV?$vector@PBUwhisper_grammar_element@@V?$allocator@PBUwhisper_grammar_element@@@std@@@0@AAV10@@Z
	??$forward@AAV?$vector@Uwhisper_grammar_element@@V?$allocator@Uwhisper_grammar_element@@@std@@@std@@@std@@YAAAV?$vector@Uwhisper_grammar_element@@V?$allocator@Uwhisper_grammar_element@@@std@@@0@AAV10@@Z
	??$forward@AAY03$$CBD@std@@YAAAY03$$CBDAAY03$$CBD@Z
	??$forward@AAY04$$CBD@std@@YAAAY04$$CBDAAY04$$CBD@Z
	??$forward@AAY05$$CBD@std@@YAAAY05$$CBDAAY05$$CBD@Z
	??$forward@AAY06$$CBD@std@@YAAAY06$$CBDAAY06$$CBD@Z
	??$forward@AAY07$$CBD@std@@YAAAY07$$CBDAAY07$$CBD@Z
	??$forward@AAY08$$CBD@std@@YAAAY08$$CBDAAY08$$CBD@Z
	??$forward@AAY09$$CBD@std@@YAAAY09$$CBDAAY09$$CBD@Z
	??$forward@AAY0BA@$$CBD@std@@YAAAY0BA@$$CBDAAY0BA@$$CBD@Z
	??$forward@AAY0BC@$$CBD@std@@YAAAY0BC@$$CBDAAY0BC@$$CBD@Z
	??$forward@AAY0BD@$$CBD@std@@YAAAY0BD@$$CBDAAY0BD@$$CBD@Z
	??$forward@AAY0BF@$$CBD@std@@YAAAY0BF@$$CBDAAY0BF@$$CBD@Z
	??$forward@AAY0BH@$$CBD@std@@YAAAY0BH@$$CBDAAY0BH@$$CBD@Z
	??$forward@AAY0BL@$$CBD@std@@YAAAY0BL@$$CBDAAY0BL@$$CBD@Z
	??$forward@AAY0BN@$$CBD@std@@YAAAY0BN@$$CBDAAY0BN@$$CBD@Z
	??$forward@AAY0BO@$$CBD@std@@YAAAY0BO@$$CBDAAY0BO@$$CBD@Z
	??$forward@AAY0BP@$$CBD@std@@YAAAY0BP@$$CBDAAY0BP@$$CBD@Z
	??$forward@AAY0CA@$$CBD@std@@YAAAY0CA@$$CBDAAY0CA@$$CBD@Z
	??$forward@AAY0CB@$$CBD@std@@YAAAY0CB@$$CBDAAY0CB@$$CBD@Z
	??$forward@AAY0CC@$$CBD@std@@YAAAY0CC@$$CBDAAY0CC@$$CBD@Z
	??$forward@AAY0CD@$$CBD@std@@YAAAY0CD@$$CBDAAY0CD@$$CBD@Z
	??$forward@AAY0CE@$$CBD@std@@YAAAY0CE@$$CBDAAY0CE@$$CBD@Z
	??$forward@AAY0CF@$$CBD@std@@YAAAY0CF@$$CBDAAY0CF@$$CBD@Z
	??$forward@AAY0CG@$$CBD@std@@YAAAY0CG@$$CBDAAY0CG@$$CBD@Z
	??$forward@AAY0CH@$$CBD@std@@YAAAY0CH@$$CBDAAY0CH@$$CBD@Z
	??$forward@AAY0CI@$$CBD@std@@YAAAY0CI@$$CBDAAY0CI@$$CBD@Z
	??$forward@AAY0CK@$$CBD@std@@YAAAY0CK@$$CBDAAY0CK@$$CBD@Z
	??$forward@AAY0L@$$CBD@std@@YAAAY0L@$$CBDAAY0L@$$CBD@Z
	??$forward@AAY0M@$$CBD@std@@YAAAY0M@$$CBDAAY0M@$$CBD@Z
	??$forward@AAY0O@$$CBD@std@@YAAAY0O@$$CBDAAY0O@$$CBD@Z
	??$forward@AAY0P@$$CBD@std@@YAAAY0P@$$CBDAAY0P@$$CBD@Z
	??$forward@ABD@std@@YAABDABD@Z
	??$forward@ABH@std@@YAABHABH@Z
	??$forward@ABI@std@@YAABIABI@Z
	??$forward@ABM@std@@YAABMABM@Z
	??$forward@ABN@std@@YAABNABN@Z
	??$forward@ABQAD@std@@YAABQADABQAD@Z
	??$forward@ABQAU?$_Tree_node@HPAX@std@@@std@@YAABQAU?$_Tree_node@HPAX@0@ABQAU10@@Z
	??$forward@ABQAU?$_Tree_node@U?$pair@$$CBHH@std@@PAX@std@@@std@@YAABQAU?$_Tree_node@U?$pair@$$CBHH@std@@PAX@0@ABQAU10@@Z
	??$forward@ABQAU?$_Tree_node@U?$pair@$$CBHV?$basic_string@DU?$char_traits@D@std@@V?$allocator@D@2@@std@@@std@@PAX@std@@@std@@YAABQAU?$_Tree_node@U?$pair@$$CBHV?$basic_string@DU?$char_traits@D@std@@V?$allocator@D@2@@std@@@std@@PAX@0@ABQAU10@@Z
	??$forward@ABQAU?$_Tree_node@U?$pair@$$CBV?$basic_string@DU?$char_traits@D@std@@V?$allocator@D@2@@std@@H@std@@PAX@std@@@std@@YAABQAU?$_Tree_node@U?$pair@$$CBV?$basic_string@DU?$char_traits@D@std@@V?$allocator@D@2@@std@@H@std@@PAX@0@ABQAU10@@Z
	??$forward@ABQAU?$_Tree_node@U?$pair@$$CBV?$basic_string@DU?$char_traits@D@std@@V?$allocator@D@2@@std@@PAUggml_tensor@@@std@@PAX@std@@@std@@YAABQAU?$_Tree_node@U?$pair@$$CBV?$basic_string@DU?$char_traits@D@std@@V?$allocator@D@2@@std@@PAUggml_tensor@@@std@@PAX@0@ABQAU10@@Z
	??$forward@ABQAU?$_Tree_node@U?$pair@$$CBV?$basic_string@DU?$char_traits@D@std@@V?$allocator@D@2@@std@@U?$pair@HV?$basic_string@DU?$char_traits@D@std@@V?$allocator@D@2@@std@@@2@@std@@PAX@std@@@std@@YAABQAU?$_Tree_node@U?$pair@$$CBV?$basic_string@DU?$char_traits@D@std@@V?$allocator@D@2@@std@@U?$pair@HV?$basic_string@DU?$char_traits@D@std@@V?$allocator@D@2@@std@@@2@@std@@PAX@0@ABQAU10@@Z
	??$forward@ABQAU?$_Tree_node@U?$pair@$$CBW4asr_system@@V?$map@W4asr_tensor@@PBDU?$less@W4asr_tensor@@@std@@V?$allocator@U?$pair@$$CBW4asr_tensor@@PBD@std@@@3@@std@@@std@@PAX@std@@@std@@YAABQAU?$_Tree_node@U?$pair@$$CBW4asr_system@@V?$map@W4asr_tensor@@PBDU?$less@W4asr_tensor@@@std@@V?$allocator@U?$pair@$$CBW4asr_tensor@@PBD@std@@@3@@std@@@std@@PAX@0@ABQAU10@@Z
	??$forward@ABQAU?$_Tree_node@U?$pair@$$CBW4asr_tensor@@PBD@std@@PAX@std@@@std@@YAABQAU?$_Tree_node@U?$pair@$$CBW4asr_tensor@@PBD@std@@PAX@0@ABQAU10@@Z
	??$forward@ABQAU?$_Tree_node@U?$pair@$$CBW4asr_tensor@@W4ggml_op@@@std@@PAX@std@@@std@@YAABQAU?$_Tree_node@U?$pair@$$CBW4asr_tensor@@W4ggml_op@@@std@@PAX@0@ABQAU10@@Z
	??$forward@ABQAU?$_Tree_node@U?$pair@$$CBW4e_model@@V?$basic_string@DU?$char_traits@D@std@@V?$allocator@D@2@@std@@@std@@PAX@std@@@std@@YAABQAU?$_Tree_node@U?$pair@$$CBW4e_model@@V?$basic_string@DU?$char_traits@D@std@@V?$allocator@D@2@@std@@@std@@PAX@0@ABQAU10@@Z
	??$forward@ABQAU?$_Tree_node@U?$pair@$$CBW4vad_tensor@@PBD@std@@PAX@std@@@std@@YAABQAU?$_Tree_node@U?$pair@$$CBW4vad_tensor@@PBD@std@@PAX@0@ABQAU10@@Z
	??$forward@ABQAU?$_Tree_node@U?$pair@$$CBW4vad_tensor@@W4ggml_op@@@std@@PAX@std@@@std@@YAABQAU?$_Tree_node@U?$pair@$$CBW4vad_tensor@@W4ggml_op@@@std@@PAX@0@ABQAU10@@Z
	??$forward@ABQAU?$_Tree_node@U?$pair@$$CBW4whisper_alignment_heads_preset@@Uwhisper_aheads@@@std@@PAX@std@@@std@@YAABQAU?$_Tree_node@U?$pair@$$CBW4whisper_alignment_heads_preset@@Uwhisper_aheads@@@std@@PAX@0@ABQAU10@@Z
	??$forward@ABQAU?$_Tree_node@U?$pair@QAUggml_backend_buffer_type@@PAUggml_context@@@std@@PAX@std@@@std@@YAABQAU?$_Tree_node@U?$pair@QAUggml_backend_buffer_type@@PAUggml_context@@@std@@PAX@0@ABQAU10@@Z
	??$forward@ABQAUggml_backend@@@std@@YAABQAUggml_backend@@ABQAU1@@Z
	??$forward@ABQAUggml_backend_buffer_type@@@std@@YAABQAUggml_backend_buffer_type@@ABQAU1@@Z
	??$forward@ABQAUvad_time_mapping@@@std@@YAABQAUvad_time_mapping@@ABQAU1@@Z
	??$forward@ABQA_W@std@@YAABQA_WABQA_W@Z
	??$forward@ABQBUwhisper_grammar_element@@@std@@YAABQBUwhisper_grammar_element@@ABQBU1@@Z
	??$forward@ABU?$less@H@std@@@std@@YAABU?$less@H@0@ABU10@@Z
	??$forward@ABU?$less@PAUggml_backend_buffer_type@@@std@@@std@@YAABU?$less@PAUggml_backend_buffer_type@@@0@ABU10@@Z
	??$forward@ABU?$less@V?$basic_string@DU?$char_traits@D@std@@V?$allocator@D@2@@std@@@std@@@std@@YAABU?$less@V?$basic_string@DU?$char_traits@D@std@@V?$allocator@D@2@@std@@@0@ABU10@@Z
	??$forward@ABU?$less@W4asr_system@@@std@@@std@@YAABU?$less@W4asr_system@@@0@ABU10@@Z
	??$forward@ABU?$less@W4asr_tensor@@@std@@@std@@YAABU?$less@W4asr_tensor@@@0@ABU10@@Z
	??$forward@ABU?$less@W4e_model@@@std@@@std@@YAABU?$less@W4e_model@@@0@ABU10@@Z
	??$forward@ABU?$less@W4vad_tensor@@@std@@@std@@YAABU?$less@W4vad_tensor@@@0@ABU10@@Z
	??$forward@ABU?$less@W4whisper_alignment_heads_preset@@@std@@@std@@YAABU?$less@W4whisper_alignment_heads_preset@@@0@ABU10@@Z
	??$forward@ABU?$pair@$$CBV?$basic_string@DU?$char_traits@D@std@@V?$allocator@D@2@@std@@U?$pair@HV?$basic_string@DU?$char_traits@D@std@@V?$allocator@D@2@@std@@@2@@std@@@std@@YAABU?$pair@$$CBV?$basic_string@DU?$char_traits@D@std@@V?$allocator@D@2@@std@@U?$pair@HV?$basic_string@DU?$char_traits@D@std@@V?$allocator@D@2@@std@@@2@@0@ABU10@@Z
	??$forward@ABU?$pair@$$CBW4asr_system@@V?$map@W4asr_tensor@@PBDU?$less@W4asr_tensor@@@std@@V?$allocator@U?$pair@$$CBW4asr_tensor@@PBD@std@@@3@@std@@@std@@@std@@YAABU?$pair@$$CBW4asr_system@@V?$map@W4asr_tensor@@PBDU?$less@W4asr_tensor@@@std@@V?$allocator@U?$pair@$$CBW4asr_tensor@@PBD@std@@@3@@std@@@0@ABU10@@Z
	??$forward@ABU?$pair@$$CBW4asr_tensor@@PBD@std@@@std@@YAABU?$pair@$$CBW4asr_tensor@@PBD@0@ABU10@@Z
	??$forward@ABU?$pair@$$CBW4asr_tensor@@W4ggml_op@@@std@@@std@@YAABU?$pair@$$CBW4asr_tensor@@W4ggml_op@@@0@ABU10@@Z
	??$forward@ABU?$pair@$$CBW4e_model@@V?$basic_string@DU?$char_traits@D@std@@V?$allocator@D@2@@std@@@std@@@std@@YAABU?$pair@$$CBW4e_model@@V?$basic_string@DU?$char_traits@D@std@@V?$allocator@D@2@@std@@@0@ABU10@@Z
	??$forward@ABU?$pair@$$CBW4vad_tensor@@PBD@std@@@std@@YAABU?$pair@$$CBW4vad_tensor@@PBD@0@ABU10@@Z
	??$forward@ABU?$pair@$$CBW4vad_tensor@@W4ggml_op@@@std@@@std@@YAABU?$pair@$$CBW4vad_tensor@@W4ggml_op@@@0@ABU10@@Z
	??$forward@ABU?$pair@$$CBW4whisper_alignment_heads_preset@@Uwhisper_aheads@@@std@@@std@@YAABU?$pair@$$CBW4whisper_alignment_heads_preset@@Uwhisper_aheads@@@0@ABU10@@Z
	??$forward@ABUpiecewise_construct_t@std@@@std@@YAABUpiecewise_construct_t@0@ABU10@@Z
	??$forward@ABUvad_segment_info@whisper_state@@@std@@YAABUvad_segment_info@whisper_state@@ABU12@@Z
	??$forward@ABUvad_time_mapping@@@std@@YAABUvad_time_mapping@@ABU1@@Z
	??$forward@ABUwhisper_grammar_candidate@@@std@@YAABUwhisper_grammar_candidate@@ABU1@@Z
	??$forward@ABUwhisper_grammar_element@@@std@@YAABUwhisper_grammar_element@@ABU1@@Z
	??$forward@ABUwhisper_token_data@@@std@@YAABUwhisper_token_data@@ABU1@@Z
	??$forward@ABV?$allocator@D@std@@@std@@YAABV?$allocator@D@0@ABV10@@Z
	??$forward@ABV?$allocator@E@std@@@std@@YAABV?$allocator@E@0@ABV10@@Z
	??$forward@ABV?$allocator@H@std@@@std@@YAABV?$allocator@H@0@ABV10@@Z
	??$forward@ABV?$allocator@I@std@@@std@@YAABV?$allocator@I@0@ABV10@@Z
	??$forward@ABV?$allocator@M@std@@@std@@YAABV?$allocator@M@0@ABV10@@Z
	??$forward@ABV?$allocator@N@std@@@std@@YAABV?$allocator@N@0@ABV10@@Z
	??$forward@ABV?$allocator@PBUwhisper_grammar_element@@@std@@@std@@YAABV?$allocator@PBUwhisper_grammar_element@@@0@ABV10@@Z
	??$forward@ABV?$allocator@V?$basic_string@DU?$char_traits@D@std@@V?$allocator@D@2@@std@@@std@@@std@@YAABV?$allocator@V?$basic_string@DU?$char_traits@D@std@@V?$allocator@D@2@@std@@@0@ABV10@@Z
	??$forward@ABV?$allocator@V?$vector@Uwhisper_grammar_element@@V?$allocator@Uwhisper_grammar_element@@@std@@@std@@@std@@@std@@YAABV?$allocator@V?$vector@Uwhisper_grammar_element@@V?$allocator@Uwhisper_grammar_element@@@std@@@std@@@0@ABV10@@Z
	??$forward@ABV?$allocator@Vthread@std@@@std@@@std@@YAABV?$allocator@Vthread@std@@@0@ABV10@@Z
	??$forward@ABV?$basic_string@DU?$char_traits@D@std@@V?$allocator@D@2@@std@@@std@@YAABV?$basic_string@DU?$char_traits@D@std@@V?$allocator@D@2@@0@ABV10@@Z
	??$forward@ABV?$vector@PBUwhisper_grammar_element@@V?$allocator@PBUwhisper_grammar_element@@@std@@@std@@@std@@YAABV?$vector@PBUwhisper_grammar_element@@V?$allocator@PBUwhisper_grammar_element@@@std@@@0@ABV10@@Z
	??$forward@AB_N@std@@YAAB_NAB_N@Z
	??$forward@AB_W@std@@YAAB_WAB_W@Z
	??$forward@D@std@@YA$$QADAAD@Z
	??$forward@E@std@@YA$$QAEAAE@Z
	??$forward@H@std@@YA$$QAHAAH@Z
	??$forward@I@std@@YA$$QAIAAI@Z
	??$forward@M@std@@YA$$QAMAAM@Z
	??$forward@N@std@@YA$$QANAAN@Z
	??$forward@PAH@std@@YA$$QAPAHAAPAH@Z
	??$forward@PAI@std@@YA$$QAPAIAAPAI@Z
	??$forward@PAM@std@@YA$$QAPAMAAPAM@Z
	??$forward@PAPAUggml_backend@@@std@@YA$$QAPAPAUggml_backend@@AAPAPAU1@@Z
	??$forward@PAPBUwhisper_grammar_element@@@std@@YA$$QAPAPBUwhisper_grammar_element@@AAPAPBU1@@Z
	??$forward@PAU?$_Tree_node@HPAX@std@@@std@@YA$$QAPAU?$_Tree_node@HPAX@0@AAPAU10@@Z
	??$forward@PAU?$_Tree_node@U?$pair@$$CBHH@std@@PAX@std@@@std@@YA$$QAPAU?$_Tree_node@U?$pair@$$CBHH@std@@PAX@0@AAPAU10@@Z
	??$forward@PAU?$_Tree_node@U?$pair@$$CBHV?$basic_string@DU?$char_traits@D@std@@V?$allocator@D@2@@std@@@std@@PAX@std@@@std@@YA$$QAPAU?$_Tree_node@U?$pair@$$CBHV?$basic_string@DU?$char_traits@D@std@@V?$allocator@D@2@@std@@@std@@PAX@0@AAPAU10@@Z
	??$forward@PAU?$_Tree_node@U?$pair@$$CBV?$basic_string@DU?$char_traits@D@std@@V?$allocator@D@2@@std@@H@std@@PAX@std@@@std@@YA$$QAPAU?$_Tree_node@U?$pair@$$CBV?$basic_string@DU?$char_traits@D@std@@V?$allocator@D@2@@std@@H@std@@PAX@0@AAPAU10@@Z
	??$forward@PAU?$_Tree_node@U?$pair@$$CBV?$basic_string@DU?$char_traits@D@std@@V?$allocator@D@2@@std@@PAUggml_tensor@@@std@@PAX@std@@@std@@YA$$QAPAU?$_Tree_node@U?$pair@$$CBV?$basic_string@DU?$char_traits@D@std@@V?$allocator@D@2@@std@@PAUggml_tensor@@@std@@PAX@0@AAPAU10@@Z
	??$forward@PAU?$_Tree_node@U?$pair@QAUggml_backend_buffer_type@@PAUggml_context@@@std@@PAX@std@@@std@@YA$$QAPAU?$_Tree_node@U?$pair@QAUggml_backend_buffer_type@@PAUggml_context@@@std@@PAX@0@AAPAU10@@Z
	??$forward@PAU?$pair@PAUggml_backend_device@@PAUggml_backend_buffer_type@@@std@@@std@@YA$$QAPAU?$pair@PAUggml_backend_device@@PAUggml_backend_buffer_type@@@0@AAPAU10@@Z
	??$forward@PAU_Container_base12@std@@@std@@YA$$QAPAU_Container_base12@0@AAPAU10@@Z
	??$forward@PAUggml_backend@@@std@@YA$$QAPAUggml_backend@@AAPAU1@@Z
	??$forward@PAUggml_backend_buffer@@@std@@YA$$QAPAUggml_backend_buffer@@AAPAU1@@Z
	??$forward@PAUggml_backend_buffer_type@@@std@@YA$$QAPAUggml_backend_buffer_type@@AAPAU1@@Z
	??$forward@PAUggml_context@@@std@@YA$$QAPAUggml_context@@AAPAU1@@Z
	??$forward@PAUggml_tensor@@@std@@YA$$QAPAUggml_tensor@@AAPAU1@@Z
	??$forward@PAUwhisper_grammar_candidate@@@std@@YA$$QAPAUwhisper_grammar_candidate@@AAPAU1@@Z
	??$forward@PAUwhisper_state@@@std@@YA$$QAPAUwhisper_state@@AAPAU1@@Z
	??$forward@PAUwhisper_token_data@@@std@@YA$$QAPAUwhisper_token_data@@AAPAU1@@Z
	??$forward@PAV?$vector@PBUwhisper_grammar_element@@V?$allocator@PBUwhisper_grammar_element@@@std@@@std@@@std@@YA$$QAPAV?$vector@PBUwhisper_grammar_element@@V?$allocator@PBUwhisper_grammar_element@@@std@@@0@AAPAV10@@Z
	??$forward@PAV?$vector@Uwhisper_grammar_element@@V?$allocator@Uwhisper_grammar_element@@@std@@@std@@@std@@YA$$QAPAV?$vector@Uwhisper_grammar_element@@V?$allocator@Uwhisper_grammar_element@@@std@@@0@AAPAV10@@Z
	??$forward@PBD@std@@YA$$QAPBDAAPBD@Z
	??$forward@PBM@std@@YA$$QAPBMAAPBM@Z
	??$forward@PBUwhisper_grammar_element@@@std@@YA$$QAPBUwhisper_grammar_element@@AAPBU1@@Z
	??$forward@U?$less@H@std@@@std@@YA$$QAU?$less@H@0@AAU10@@Z
	??$forward@U?$less@W4asr_tensor@@@std@@@std@@YA$$QAU?$less@W4asr_tensor@@@0@AAU10@@Z
	??$forward@U?$pair@PAUggml_backend_device@@PAUggml_backend_buffer_type@@@std@@@std@@YA$$QAU?$pair@PAUggml_backend_device@@PAUggml_backend_buffer_type@@@0@AAU10@@Z
	??$forward@U?$pair@V?$vector@IV?$allocator@I@std@@@std@@Uwhisper_partial_utf8@@@std@@@std@@YA$$QAU?$pair@V?$vector@IV?$allocator@I@std@@@std@@Uwhisper_partial_utf8@@@0@AAU10@@Z
	??$forward@U?$whisper_pair@NH@@@std@@YA$$QAU?$whisper_pair@NH@@AAU1@@Z
	??$forward@U_Grp_t@?$_Tgt_state_t@PBD@std@@@std@@YA$$QAU_Grp_t@?$_Tgt_state_t@PBD@0@AAU120@@Z
	??$forward@U_Grp_t@?$_Tgt_state_t@V?$_String_const_iterator@V?$_String_val@U?$_Simple_types@D@std@@@std@@@std@@@std@@@std@@YA$$QAU_Grp_t@?$_Tgt_state_t@V?$_String_const_iterator@V?$_String_val@U?$_Simple_types@D@std@@@std@@@std@@@0@AAU120@@Z
	??$forward@U_Loop_vals_t@std@@@std@@YA$$QAU_Loop_vals_t@0@AAU10@@Z
	??$forward@U_One_then_variadic_args_t@std@@@std@@YA$$QAU_One_then_variadic_args_t@0@AAU10@@Z
	??$forward@U_Zero_then_variadic_args_t@std@@@std@@YA$$QAU_Zero_then_variadic_args_t@0@AAU10@@Z
	??$forward@Uvad_segment_info@whisper_state@@@std@@YA$$QAUvad_segment_info@whisper_state@@AAU12@@Z
	??$forward@Uvad_time_mapping@@@std@@YA$$QAUvad_time_mapping@@AAU1@@Z
	??$forward@Uwhisper_full_params@@@std@@YA$$QAUwhisper_full_params@@AAU1@@Z
	??$forward@Uwhisper_grammar_candidate@@@std@@YA$$QAUwhisper_grammar_candidate@@AAU1@@Z
	??$forward@Uwhisper_grammar_element@@@std@@YA$$QAUwhisper_grammar_element@@AAU1@@Z
	??$forward@Uwhisper_layer_decoder@@@std@@YA$$QAUwhisper_layer_decoder@@AAU1@@Z
	??$forward@Uwhisper_layer_encoder@@@std@@YA$$QAUwhisper_layer_encoder@@AAU1@@Z
	??$forward@Uwhisper_partial_utf8@@@std@@YA$$QAUwhisper_partial_utf8@@AAU1@@Z
	??$forward@Uwhisper_segment@@@std@@YA$$QAUwhisper_segment@@AAU1@@Z
	??$forward@Uwhisper_token_data@@@std@@YA$$QAUwhisper_token_data@@AAU1@@Z
	??$forward@Uwhisper_vad_segment@@@std@@YA$$QAUwhisper_vad_segment@@AAU1@@Z
	??$forward@V?$_Tree_const_iterator@V?$_Tree_val@U?$_Tree_simple_types@H@std@@@std@@@std@@@std@@YA$$QAV?$_Tree_const_iterator@V?$_Tree_val@U?$_Tree_simple_types@H@std@@@std@@@0@AAV10@@Z
	??$forward@V?$_Vb_iterator@U?$_Wrap_alloc@V?$allocator@I@std@@@std@@@std@@@std@@YA$$QAV?$_Vb_iterator@U?$_Wrap_alloc@V?$allocator@I@std@@@std@@@0@AAV10@@Z
	??$forward@V?$allocator@D@std@@@std@@YA$$QAV?$allocator@D@0@AAV10@@Z
	??$forward@V?$allocator@H@std@@@std@@YA$$QAV?$allocator@H@0@AAV10@@Z
	??$forward@V?$allocator@I@std@@@std@@YA$$QAV?$allocator@I@0@AAV10@@Z
	??$forward@V?$allocator@M@std@@@std@@YA$$QAV?$allocator@M@0@AAV10@@Z
	??$forward@V?$allocator@PAUggml_backend@@@std@@@std@@YA$$QAV?$allocator@PAUggml_backend@@@0@AAV10@@Z
	??$forward@V?$allocator@PBUwhisper_grammar_element@@@std@@@std@@YA$$QAV?$allocator@PBUwhisper_grammar_element@@@0@AAV10@@Z
	??$forward@V?$allocator@U?$_Tree_node@HPAX@std@@@std@@@std@@YA$$QAV?$allocator@U?$_Tree_node@HPAX@std@@@0@AAV10@@Z
	??$forward@V?$allocator@U?$_Tree_node@U?$pair@$$CBW4asr_tensor@@PBD@std@@PAX@std@@@std@@@std@@YA$$QAV?$allocator@U?$_Tree_node@U?$pair@$$CBW4asr_tensor@@PBD@std@@PAX@std@@@0@AAV10@@Z
	??$forward@V?$allocator@U?$pair@PAUggml_backend_device@@PAUggml_backend_buffer_type@@@std@@@std@@@std@@YA$$QAV?$allocator@U?$pair@PAUggml_backend_device@@PAUggml_backend_buffer_type@@@std@@@0@AAV10@@Z
	??$forward@V?$allocator@U_Grp_t@?$_Tgt_state_t@PBD@std@@@std@@@std@@YA$$QAV?$allocator@U_Grp_t@?$_Tgt_state_t@PBD@std@@@0@AAV10@@Z
	??$forward@V?$allocator@U_Grp_t@?$_Tgt_state_t@V?$_String_const_iterator@V?$_String_val@U?$_Simple_types@D@std@@@std@@@std@@@std@@@std@@@std@@YA$$QAV?$allocator@U_Grp_t@?$_Tgt_state_t@V?$_String_const_iterator@V?$_String_val@U?$_Simple_types@D@std@@@std@@@std@@@std@@@0@AAV10@@Z
	??$forward@V?$allocator@Uwhisper_grammar_candidate@@@std@@@std@@YA$$QAV?$allocator@Uwhisper_grammar_candidate@@@0@AAV10@@Z
	??$forward@V?$allocator@Uwhisper_grammar_element@@@std@@@std@@YA$$QAV?$allocator@Uwhisper_grammar_element@@@0@AAV10@@Z
	??$forward@V?$allocator@Uwhisper_token_data@@@std@@@std@@YA$$QAV?$allocator@Uwhisper_token_data@@@0@AAV10@@Z
	??$forward@V?$allocator@V?$vector@PBUwhisper_grammar_element@@V?$allocator@PBUwhisper_grammar_element@@@std@@@std@@@std@@@std@@YA$$QAV?$allocator@V?$vector@PBUwhisper_grammar_element@@V?$allocator@PBUwhisper_grammar_element@@@std@@@std@@@0@AAV10@@Z
	??$forward@V?$allocator@V?$vector@Uwhisper_grammar_element@@V?$allocator@Uwhisper_grammar_element@@@std@@@std@@@std@@@std@@YA$$QAV?$allocator@V?$vector@Uwhisper_grammar_element@@V?$allocator@Uwhisper_grammar_element@@@std@@@std@@@0@AAV10@@Z
	??$forward@V?$allocator@_W@std@@@std@@YA$$QAV?$allocator@_W@0@AAV10@@Z
	??$forward@V?$basic_string@DU?$char_traits@D@std@@V?$allocator@D@2@@std@@@std@@YA$$QAV?$basic_string@DU?$char_traits@D@std@@V?$allocator@D@2@@0@AAV10@@Z
	??$forward@V?$reference_wrapper@$$CBUwhisper_filters@@@std@@@std@@YA$$QAV?$reference_wrapper@$$CBUwhisper_filters@@@0@AAV10@@Z
	??$forward@V?$reference_wrapper@$$CBV?$vector@MV?$allocator@M@std@@@std@@@std@@@std@@YA$$QAV?$reference_wrapper@$$CBV?$vector@MV?$allocator@M@std@@@std@@@0@AAV10@@Z
	??$forward@V?$reference_wrapper@Uwhisper_mel@@@std@@@std@@YA$$QAV?$reference_wrapper@Uwhisper_mel@@@0@AAV10@@Z
	??$forward@V?$sub_match@PBD@std@@@std@@YA$$QAV?$sub_match@PBD@0@AAV10@@Z
	??$forward@V?$sub_match@V?$_String_const_iterator@V?$_String_val@U?$_Simple_types@D@std@@@std@@@std@@@std@@@std@@YA$$QAV?$sub_match@V?$_String_const_iterator@V?$_String_val@U?$_Simple_types@D@std@@@std@@@std@@@0@AAV10@@Z
	??$forward@V?$tuple@$$QAV?$basic_string@DU?$char_traits@D@std@@V?$allocator@D@2@@std@@@std@@@std@@YA$$QAV?$tuple@$$QAV?$basic_string@DU?$char_traits@D@std@@V?$allocator@D@2@@std@@@0@AAV10@@Z
	??$forward@V?$tuple@$$V@std@@@std@@YA$$QAV?$tuple@$$V@0@AAV10@@Z
	??$forward@V?$tuple@ABH@std@@@std@@YA$$QAV?$tuple@ABH@0@AAV10@@Z
	??$forward@V?$tuple@ABQAUggml_backend_buffer_type@@@std@@@std@@YA$$QAV?$tuple@ABQAUggml_backend_buffer_type@@@0@AAV10@@Z
	??$forward@V?$tuple@ABV?$basic_string@DU?$char_traits@D@std@@V?$allocator@D@2@@std@@@std@@@std@@YA$$QAV?$tuple@ABV?$basic_string@DU?$char_traits@D@std@@V?$allocator@D@2@@std@@@0@AAV10@@Z
	??$forward@V?$vector@IV?$allocator@I@std@@@std@@@std@@YA$$QAV?$vector@IV?$allocator@I@std@@@0@AAV10@@Z
	??$forward@V?$vector@PBUwhisper_grammar_element@@V?$allocator@PBUwhisper_grammar_element@@@std@@@std@@@std@@YA$$QAV?$vector@PBUwhisper_grammar_element@@V?$allocator@PBUwhisper_grammar_element@@@std@@@0@AAV10@@Z
	??$forward@W4_Node_type@std@@@std@@YA$$QAW4_Node_type@0@AAW410@@Z
	??$forward@W4asr_tensor@@@std@@YA$$QAW4asr_tensor@@AAW41@@Z
	??$forward@W4e_model@@@std@@YA$$QAW4e_model@@AAW41@@Z
	??$forward@W4ggml_op@@@std@@YA$$QAW4ggml_op@@AAW41@@Z
	??$forward@W4vad_tensor@@@std@@YA$$QAW4vad_tensor@@AAW41@@Z
	??$forward@_J@std@@YA$$QA_JAA_J@Z
	??$forward@_N@std@@YA$$QA_NAA_N@Z
	??$forward_as_tuple@$$V@std@@YA?AV?$tuple@$$V@0@XZ
	??$forward_as_tuple@ABH@std@@YA?AV?$tuple@ABH@0@ABH@Z
	??$forward_as_tuple@ABQAUggml_backend_buffer_type@@@std@@YA?AV?$tuple@ABQAUggml_backend_buffer_type@@@0@ABQAUggml_backend_buffer_type@@@Z
	??$forward_as_tuple@ABV?$basic_string@DU?$char_traits@D@std@@V?$allocator@D@2@@std@@@std@@YA?AV?$tuple@ABV?$basic_string@DU?$char_traits@D@std@@V?$allocator@D@2@@std@@@0@ABV?$basic_string@DU?$char_traits@D@std@@V?$allocator@D@2@@0@@Z
	??$forward_as_tuple@V?$basic_string@DU?$char_traits@D@std@@V?$allocator@D@2@@std@@@std@@YA?AV?$tuple@$$QAV?$basic_string@DU?$char_traits@D@std@@V?$allocator@D@2@@std@@@0@$$QAV?$basic_string@DU?$char_traits@D@std@@V?$allocator@D@2@@0@@Z
	??$generate_canonical@N$0PPPPPPPP@V?$mersenne_twister_engine@I$0CA@$0CHA@$0BIN@$0BP@$0JJAILANP@$0L@$0PPPPPPPP@$06$0JNCMFGIA@$0P@$0OPMGAAAA@$0BC@$0GMAHIJGF@@std@@@std@@YANAAV?$mersenne_twister_engine@I$0CA@$0CHA@$0BIN@$0BP@$0JJAILANP@$0L@$0PPPPPPPP@$06$0JNCMFGIA@$0P@$0OPMGAAAA@$0BC@$0GMAHIJGF@@0@@Z
	??$get@$00P6AHPAUwhisper_context@@PAUwhisper_state@@Uwhisper_full_params@@PBMH@ZPAU1@PAU2@U3@PBMH@std@@YAAAPAUwhisper_context@@AAV?$tuple@P6AHPAUwhisper_context@@PAUwhisper_state@@Uwhisper_full_params@@PBMH@ZPAU1@PAU2@U3@PBMH@0@@Z
	??$get@$00P6AXHPBMABV?$vector@MV?$allocator@M@std@@@std@@HHHHABUwhisper_filters@@AAUwhisper_mel@@@ZHPBMV?$reference_wrapper@$$CBV?$vector@MV?$allocator@M@std@@@std@@@2@_JHHHV?$reference_wrapper@$$CBUwhisper_filters@@@2@V?$reference_wrapper@Uwhisper_mel@@@2@@std@@YAAAHAAV?$tuple@P6AXHPBMABV?$vector@MV?$allocator@M@std@@@std@@HHHHABUwhisper_filters@@AAUwhisper_mel@@@ZHPBMV?$reference_wrapper@$$CBV?$vector@MV?$allocator@M@std@@@std@@@2@_JHHHV?$reference_wrapper@$$CBUwhisper_filters@@@2@V?$reference_wrapper@Uwhisper_mel@@@2@@0@@Z
	??$get@$01P6AHPAUwhisper_context@@PAUwhisper_state@@Uwhisper_full_params@@PBMH@ZPAU1@PAU2@U3@PBMH@std@@YAAAPAUwhisper_state@@AAV?$tuple@P6AHPAUwhisper_context@@PAUwhisper_state@@Uwhisper_full_params@@PBMH@ZPAU1@PAU2@U3@PBMH@0@@Z
	??$get@$01P6AXHPBMABV?$vector@MV?$allocator@M@std@@@std@@HHHHABUwhisper_filters@@AAUwhisper_mel@@@ZHPBMV?$reference_wrapper@$$CBV?$vector@MV?$allocator@M@std@@@std@@@2@_JHHHV?$reference_wrapper@$$CBUwhisper_filters@@@2@V?$reference_wrapper@Uwhisper_mel@@@2@@std@@YAAAPBMAAV?$tuple@P6AXHPBMABV?$vector@MV?$allocator@M@std@@@std@@HHHHABUwhisper_filters@@AAUwhisper_mel@@@ZHPBMV?$reference_wrapper@$$CBV?$vector@MV?$allocator@M@std@@@std@@@2@_JHHHV?$reference_wrapper@$$CBUwhisper_filters@@@2@V?$reference_wrapper@Uwhisper_mel@@@2@@0@@Z
	??$get@$02P6AHPAUwhisper_context@@PAUwhisper_state@@Uwhisper_full_params@@PBMH@ZPAU1@PAU2@U3@PBMH@std@@YAAAUwhisper_full_params@@AAV?$tuple@P6AHPAUwhisper_context@@PAUwhisper_state@@Uwhisper_full_params@@PBMH@ZPAU1@PAU2@U3@PBMH@0@@Z
	??$get@$02P6AXHPBMABV?$vector@MV?$allocator@M@std@@@std@@HHHHABUwhisper_filters@@AAUwhisper_mel@@@ZHPBMV?$reference_wrapper@$$CBV?$vector@MV?$allocator@M@std@@@std@@@2@_JHHHV?$reference_wrapper@$$CBUwhisper_filters@@@2@V?$reference_wrapper@Uwhisper_mel@@@2@@std@@YAAAV?$reference_wrapper@$$CBV?$vector@MV?$allocator@M@std@@@std@@@0@AAV?$tuple@P6AXHPBMABV?$vector@MV?$allocator@M@std@@@std@@HHHHABUwhisper_filters@@AAUwhisper_mel@@@ZHPBMV?$reference_wrapper@$$CBV?$vector@MV?$allocator@M@std@@@std@@@2@_JHHHV?$reference_wrapper@$$CBUwhisper_filters@@@2@V?$reference_wrapper@Uwhisper_mel@@@2@@0@@Z
	??$get@$03P6AHPAUwhisper_context@@PAUwhisper_state@@Uwhisper_full_params@@PBMH@ZPAU1@PAU2@U3@PBMH@std@@YAAAPBMAAV?$tuple@P6AHPAUwhisper_context@@PAUwhisper_state@@Uwhisper_full_params@@PBMH@ZPAU1@PAU2@U3@PBMH@0@@Z
	??$get@$03P6AXHPBMABV?$vector@MV?$allocator@M@std@@@std@@HHHHABUwhisper_filters@@AAUwhisper_mel@@@ZHPBMV?$reference_wrapper@$$CBV?$vector@MV?$allocator@M@std@@@std@@@2@_JHHHV?$reference_wrapper@$$CBUwhisper_filters@@@2@V?$reference_wrapper@Uwhisper_mel@@@2@@std@@YAAA_JAAV?$tuple@P6AXHPBMABV?$vector@MV?$allocator@M@std@@@std@@HHHHABUwhisper_filters@@AAUwhisper_mel@@@ZHPBMV?$reference_wrapper@$$CBV?$vector@MV?$allocator@M@std@@@std@@@2@_JHHHV?$reference_wrapper@$$CBUwhisper_filters@@@2@V?$reference_wrapper@Uwhisper_mel@@@2@@0@@Z
	??$get@$04P6AHPAUwhisper_context@@PAUwhisper_state@@Uwhisper_full_params@@PBMH@ZPAU1@PAU2@U3@PBMH@std@@YAAAHAAV?$tuple@P6AHPAUwhisper_context@@PAUwhisper_state@@Uwhisper_full_params@@PBMH@ZPAU1@PAU2@U3@PBMH@0@@Z
	??$get@$04P6AXHPBMABV?$vector@MV?$allocator@M@std@@@std@@HHHHABUwhisper_filters@@AAUwhisper_mel@@@ZHPBMV?$reference_wrapper@$$CBV?$vector@MV?$allocator@M@std@@@std@@@2@_JHHHV?$reference_wrapper@$$CBUwhisper_filters@@@2@V?$reference_wrapper@Uwhisper_mel@@@2@@std@@YAAAHAAV?$tuple@P6AXHPBMABV?$vector@MV?$allocator@M@std@@@std@@HHHHABUwhisper_filters@@AAUwhisper_mel@@@ZHPBMV?$reference_wrapper@$$CBV?$vector@MV?$allocator@M@std@@@std@@@2@_JHHHV?$reference_wrapper@$$CBUwhisper_filters@@@2@V?$reference_wrapper@Uwhisper_mel@@@2@@0@@Z
	??$get@$05P6AXHPBMABV?$vector@MV?$allocator@M@std@@@std@@HHHHABUwhisper_filters@@AAUwhisper_mel@@@ZHPBMV?$reference_wrapper@$$CBV?$vector@MV?$allocator@M@std@@@std@@@2@_JHHHV?$reference_wrapper@$$CBUwhisper_filters@@@2@V?$reference_wrapper@Uwhisper_mel@@@2@@std@@YAAAHAAV?$tuple@P6AXHPBMABV?$vector@MV?$allocator@M@std@@@std@@HHHHABUwhisper_filters@@AAUwhisper_mel@@@ZHPBMV?$reference_wrapper@$$CBV?$vector@MV?$allocator@M@std@@@std@@@2@_JHHHV?$reference_wrapper@$$CBUwhisper_filters@@@2@V?$reference_wrapper@Uwhisper_mel@@@2@@0@@Z
	??$get@$06P6AXHPBMABV?$vector@MV?$allocator@M@std@@@std@@HHHHABUwhisper_filters@@AAUwhisper_mel@@@ZHPBMV?$reference_wrapper@$$CBV?$vector@MV?$allocator@M@std@@@std@@@2@_JHHHV?$reference_wrapper@$$CBUwhisper_filters@@@2@V?$reference_wrapper@Uwhisper_mel@@@2@@std@@YAAAHAAV?$tuple@P6AXHPBMABV?$vector@MV?$allocator@M@std@@@std@@HHHHABUwhisper_filters@@AAUwhisper_mel@@@ZHPBMV?$reference_wrapper@$$CBV?$vector@MV?$allocator@M@std@@@std@@@2@_JHHHV?$reference_wrapper@$$CBUwhisper_filters@@@2@V?$reference_wrapper@Uwhisper_mel@@@2@@0@@Z
	??$get@$07P6AXHPBMABV?$vector@MV?$allocator@M@std@@@std@@HHHHABUwhisper_filters@@AAUwhisper_mel@@@ZHPBMV?$reference_wrapper@$$CBV?$vector@MV?$allocator@M@std@@@std@@@2@_JHHHV?$reference_wrapper@$$CBUwhisper_filters@@@2@V?$reference_wrapper@Uwhisper_mel@@@2@@std@@YAAAV?$reference_wrapper@$$CBUwhisper_filters@@@0@AAV?$tuple@P6AXHPBMABV?$vector@MV?$allocator@M@std@@@std@@HHHHABUwhisper_filters@@AAUwhisper_mel@@@ZHPBMV?$reference_wrapper@$$CBV?$vector@MV?$allocator@M@std@@@std@@@2@_JHHHV?$reference_wrapper@$$CBUwhisper_filters@@@2@V?$reference_wrapper@Uwhisper_mel@@@2@@0@@Z
	??$get@$08P6AXHPBMABV?$vector@MV?$allocator@M@std@@@std@@HHHHABUwhisper_filters@@AAUwhisper_mel@@@ZHPBMV?$reference_wrapper@$$CBV?$vector@MV?$allocator@M@std@@@std@@@2@_JHHHV?$reference_wrapper@$$CBUwhisper_filters@@@2@V?$reference_wrapper@Uwhisper_mel@@@2@@std@@YAAAV?$reference_wrapper@Uwhisper_mel@@@0@AAV?$tuple@P6AXHPBMABV?$vector@MV?$allocator@M@std@@@std@@HHHHABUwhisper_filters@@AAUwhisper_mel@@@ZHPBMV?$reference_wrapper@$$CBV?$vector@MV?$allocator@M@std@@@std@@@2@_JHHHV?$reference_wrapper@$$CBUwhisper_filters@@@2@V?$reference_wrapper@Uwhisper_mel@@@2@@0@@Z
	??$get@$0A@P6AHPAUwhisper_context@@PAUwhisper_state@@Uwhisper_full_params@@PBMH@ZPAU1@PAU2@U3@PBMH@std@@YAAAP6AHPAUwhisper_context@@PAUwhisper_state@@Uwhisper_full_params@@PBMH@ZAAV?$tuple@P6AHPAUwhisper_context@@PAUwhisper_state@@Uwhisper_full_params@@PBMH@ZPAU1@PAU2@U3@PBMH@0@@Z
	??$get@$0A@P6AXHPBMABV?$vector@MV?$allocator@M@std@@@std@@HHHHABUwhisper_filters@@AAUwhisper_mel@@@ZHPBMV?$reference_wrapper@$$CBV?$vector@MV?$allocator@M@std@@@std@@@2@_JHHHV?$reference_wrapper@$$CBUwhisper_filters@@@2@V?$reference_wrapper@Uwhisper_mel@@@2@@std@@YAAAP6AXHPBMABV?$vector@MV?$allocator@M@std@@@0@HHHHABUwhisper_filters@@AAUwhisper_mel@@@ZAAV?$tuple@P6AXHPBMABV?$vector@MV?$allocator@M@std@@@std@@HHHHABUwhisper_filters@@AAUwhisper_mel@@@ZHPBMV?$reference_wrapper@$$CBV?$vector@MV?$allocator@M@std@@@std@@@2@_JHHHV?$reference_wrapper@$$CBUwhisper_filters@@@2@V?$reference_wrapper@Uwhisper_mel@@@2@@0@@Z
	??$insert@$0A@$0A@@?$_Tree@V?$_Tset_traits@HU?$less@H@std@@V?$allocator@H@2@$0A@@std@@@std@@QAE?AU?$pair@V?$_Tree_const_iterator@V?$_Tree_val@U?$_Tree_simple_types@H@std@@@std@@@std@@_N@1@ABH@Z
	??$insert@PBU?$pair@$$CBV?$basic_string@DU?$char_traits@D@std@@V?$allocator@D@2@@std@@U?$pair@HV?$basic_string@DU?$char_traits@D@std@@V?$allocator@D@2@@std@@@2@@std@@@?$_Tree@V?$_Tmap_traits@V?$basic_string@DU?$char_traits@D@std@@V?$allocator@D@2@@std@@U?$pair@HV?$basic_string@DU?$char_traits@D@std@@V?$allocator@D@2@@std@@@2@U?$less@V?$basic_string@DU?$char_traits@D@std@@V?$allocator@D@2@@std@@@2@V?$allocator@U?$pair@$$CBV?$basic_string@DU?$char_traits@D@std@@V?$allocator@D@2@@std@@U?$pair@HV?$basic_string@DU?$char_traits@D@std@@V?$allocator@D@2@@std@@@2@@std@@@2@$0A@@std@@@std@@QAEXPBU?$pair@$$CBV?$basic_string@DU?$char_traits@D@std@@V?$allocator@D@2@@std@@U?$pair@HV?$basic_string@DU?$char_traits@D@std@@V?$allocator@D@2@@std@@@2@@1@0@Z
	??$insert@PBU?$pair@$$CBW4asr_system@@V?$map@W4asr_tensor@@PBDU?$less@W4asr_tensor@@@std@@V?$allocator@U?$pair@$$CBW4asr_tensor@@PBD@std@@@3@@std@@@std@@@?$_Tree@V?$_Tmap_traits@W4asr_system@@V?$map@W4asr_tensor@@PBDU?$less@W4asr_tensor@@@std@@V?$allocator@U?$pair@$$CBW4asr_tensor@@PBD@std@@@3@@std@@U?$less@W4asr_system@@@3@V?$allocator@U?$pair@$$CBW4asr_system@@V?$map@W4asr_tensor@@PBDU?$less@W4asr_tensor@@@std@@V?$allocator@U?$pair@$$CBW4asr_tensor@@PBD@std@@@3@@std@@@std@@@3@$0A@@std@@@std@@QAEXPBU?$pair@$$CBW4asr_system@@V?$map@W4asr_tensor@@PBDU?$less@W4asr_tensor@@@std@@V?$allocator@U?$pair@$$CBW4asr_tensor@@PBD@std@@@3@@std@@@1@0@Z
	??$insert@PBU?$pair@$$CBW4asr_tensor@@PBD@std@@@?$_Tree@V?$_Tmap_traits@W4asr_tensor@@PBDU?$less@W4asr_tensor@@@std@@V?$allocator@U?$pair@$$CBW4asr_tensor@@PBD@std@@@3@$0A@@std@@@std@@QAEXPBU?$pair@$$CBW4asr_tensor@@PBD@1@0@Z
	??$insert@PBU?$pair@$$CBW4asr_tensor@@W4ggml_op@@@std@@@?$_Tree@V?$_Tmap_traits@W4asr_tensor@@W4ggml_op@@U?$less@W4asr_tensor@@@std@@V?$allocator@U?$pair@$$CBW4asr_tensor@@W4ggml_op@@@std@@@4@$0A@@std@@@std@@QAEXPBU?$pair@$$CBW4asr_tensor@@W4ggml_op@@@1@0@Z
	??$insert@PBU?$pair@$$CBW4e_model@@V?$basic_string@DU?$char_traits@D@std@@V?$allocator@D@2@@std@@@std@@@?$_Tree@V?$_Tmap_traits@W4e_model@@V?$basic_string@DU?$char_traits@D@std@@V?$allocator@D@2@@std@@U?$less@W4e_model@@@3@V?$allocator@U?$pair@$$CBW4e_model@@V?$basic_string@DU?$char_traits@D@std@@V?$allocator@D@2@@std@@@std@@@3@$0A@@std@@@std@@QAEXPBU?$pair@$$CBW4e_model@@V?$basic_string@DU?$char_traits@D@std@@V?$allocator@D@2@@std@@@1@0@Z
	??$insert@PBU?$pair@$$CBW4vad_tensor@@PBD@std@@@?$_Tree@V?$_Tmap_traits@W4vad_tensor@@PBDU?$less@W4vad_tensor@@@std@@V?$allocator@U?$pair@$$CBW4vad_tensor@@PBD@std@@@3@$0A@@std@@@std@@QAEXPBU?$pair@$$CBW4vad_tensor@@PBD@1@0@Z
	??$insert@PBU?$pair@$$CBW4vad_tensor@@W4ggml_op@@@std@@@?$_Tree@V?$_Tmap_traits@W4vad_tensor@@W4ggml_op@@U?$less@W4vad_tensor@@@std@@V?$allocator@U?$pair@$$CBW4vad_tensor@@W4ggml_op@@@std@@@4@$0A@@std@@@std@@QAEXPBU?$pair@$$CBW4vad_tensor@@W4ggml_op@@@1@0@Z
	??$insert@PBU?$pair@$$CBW4whisper_alignment_heads_preset@@Uwhisper_aheads@@@std@@@?$_Tree@V?$_Tmap_traits@W4whisper_alignment_heads_preset@@Uwhisper_aheads@@U?$less@W4whisper_alignment_heads_preset@@@std@@V?$allocator@U?$pair@$$CBW4whisper_alignment_heads_preset@@Uwhisper_aheads@@@std@@@4@$0A@@std@@@std@@QAEXPBU?$pair@$$CBW4whisper_alignment_heads_preset@@Uwhisper_aheads@@@1@0@Z
	??$insert@V?$_Vector_iterator@V?$_Vector_val@U?$_Simple_types@H@std@@@std@@@std@@$0A@@?$vector@HV?$allocator@H@std@@@std@@QAE?AV?$_Vector_iterator@V?$_Vector_val@U?$_Simple_types@H@std@@@std@@@1@V?$_Vector_const_iterator@V?$_Vector_val@U?$_Simple_types@H@std@@@std@@@1@V21@1@Z
	??$insert@V?$_Vector_iterator@V?$_Vector_val@U?$_Simple_types@Uwhisper_token_data@@@std@@@std@@@std@@$0A@@?$vector@Uwhisper_token_data@@V?$allocator@Uwhisper_token_data@@@std@@@std@@QAE?AV?$_Vector_iterator@V?$_Vector_val@U?$_Simple_types@Uwhisper_token_data@@@std@@@std@@@1@V?$_Vector_const_iterator@V?$_Vector_val@U?$_Simple_types@Uwhisper_token_data@@@std@@@std@@@1@V21@1@Z
	??$invoke@P6AHPAUwhisper_context@@PAUwhisper_state@@Uwhisper_full_params@@PBMH@ZPAU1@PAU2@U3@PBMH@std@@YAH$$QAP6AHPAUwhisper_context@@PAUwhisper_state@@Uwhisper_full_params@@PBMH@Z$$QAPAU1@$$QAPAU2@$$QAU3@$$QAPBM$$QAH@Z
	??$invoke@P6AXHPBMABV?$vector@MV?$allocator@M@std@@@std@@HHHHABUwhisper_filters@@AAUwhisper_mel@@@ZHPBMV?$reference_wrapper@$$CBV?$vector@MV?$allocator@M@std@@@std@@@2@_JHHHV?$reference_wrapper@$$CBUwhisper_filters@@@2@V?$reference_wrapper@Uwhisper_mel@@@2@@std@@YAX$$QAP6AXHPBMABV?$vector@MV?$allocator@M@std@@@0@HHHHABUwhisper_filters@@AAUwhisper_mel@@@Z$$QAH$$QAPBM$$QAV?$reference_wrapper@$$CBV?$vector@MV?$allocator@M@std@@@std@@@0@$$QA_J555$$QAV?$reference_wrapper@$$CBUwhisper_filters@@@0@$$QAV?$reference_wrapper@Uwhisper_mel@@@0@@Z
	??$iter_swap@PAHPAH@std@@YAXPAH0@Z
	??$iter_swap@PAMPAM@std@@YAXPAM0@Z
	??$iter_swap@PAU?$whisper_pair@NH@@PAU1@@std@@YAXPAU?$whisper_pair@NH@@0@Z
	??$iter_swap@PAUvad_time_mapping@@PAU1@@std@@YAXPAUvad_time_mapping@@0@Z
	??$lookup_classname@PBD@?$_Regex_traits@D@std@@QBEFPBD0_N@Z
	??$lower_bound@V?$_Vector_const_iterator@V?$_Vector_val@U?$_Simple_types@N@std@@@std@@@std@@N@std@@YA?AV?$_Vector_const_iterator@V?$_Vector_val@U?$_Simple_types@N@std@@@std@@@0@V10@0ABN@Z
	??$lower_bound@V?$_Vector_const_iterator@V?$_Vector_val@U?$_Simple_types@N@std@@@std@@@std@@NU?$less@X@2@@std@@YA?AV?$_Vector_const_iterator@V?$_Vector_val@U?$_Simple_types@N@std@@@std@@@0@V10@V10@ABNU?$less@X@0@@Z
	??$make_pair@V?$vector@IV?$allocator@I@std@@@std@@Uwhisper_partial_utf8@@@std@@YA?AU?$pair@V?$vector@IV?$allocator@I@std@@@std@@Uwhisper_partial_utf8@@@0@$$QAV?$vector@IV?$allocator@I@std@@@0@$$QAUwhisper_partial_utf8@@@Z
	??$make_pair@_NAAPBUwhisper_grammar_element@@@std@@YA?AU?$pair@_NPBUwhisper_grammar_element@@@0@$$QA_NAAPBUwhisper_grammar_element@@@Z
	??$make_unique@V?$tuple@P6AHPAUwhisper_context@@PAUwhisper_state@@Uwhisper_full_params@@PBMH@ZPAU1@PAU2@U3@PBMH@std@@A6AHPAUwhisper_context@@PAUwhisper_state@@Uwhisper_full_params@@PBMH@ZAAPAU3@AAPAU4@U5@PBMABH$0A@@std@@YA?AV?$unique_ptr@V?$tuple@P6AHPAUwhisper_context@@PAUwhisper_state@@Uwhisper_full_params@@PBMH@ZPAU1@PAU2@U3@PBMH@std@@U?$default_delete@V?$tuple@P6AHPAUwhisper_context@@PAUwhisper_state@@Uwhisper_full_params@@PBMH@ZPAU1@PAU2@U3@PBMH@std@@@2@@0@A6AHPAUwhisper_context@@PAUwhisper_state@@Uwhisper_full_params@@PBMH@ZAAPAU2@AAPAU3@$$QAU4@$$QAPBMABH@Z
	??$make_unique@V?$tuple@P6AXHPBMABV?$vector@MV?$allocator@M@std@@@std@@HHHHABUwhisper_filters@@AAUwhisper_mel@@@ZHPBMV?$reference_wrapper@$$CBV?$vector@MV?$allocator@M@std@@@std@@@2@_JHHHV?$reference_wrapper@$$CBUwhisper_filters@@@2@V?$reference_wrapper@Uwhisper_mel@@@2@@std@@A6AXHPBMABV?$vector@MV?$allocator@M@std@@@2@HHHHABUwhisper_filters@@AAUwhisper_mel@@@ZHAAPBMV?$reference_wrapper@$$CBV?$vector@MV?$allocator@M@std@@@std@@@2@_JABHABHABHV?$reference_wrapper@$$CBUwhisper_filters@@@2@V?$reference_wrapper@Uwhisper_mel@@@2@$0A@@std@@YA?AV?$unique_ptr@V?$tuple@P6AXHPBMABV?$vector@MV?$allocator@M@std@@@std@@HHHHABUwhisper_filters@@AAUwhisper_mel@@@ZHPBMV?$reference_wrapper@$$CBV?$vector@MV?$allocator@M@std@@@std@@@2@_JHHHV?$reference_wrapper@$$CBUwhisper_filters@@@2@V?$reference_wrapper@Uwhisper_mel@@@2@@std@@U?$default_delete@V?$tuple@P6AXHPBMABV?$vector@MV?$allocator@M@std@@@std@@HHHHABUwhisper_filters@@AAUwhisper_mel@@@ZHPBMV?$reference_wrapper@$$CBV?$vector@MV?$allocator@M@std@@@std@@@2@_JHHHV?$reference_wrapper@$$CBUwhisper_filters@@@2@V?$reference_wrapper@Uwhisper_mel@@@2@@std@@@2@@0@A6AXHPBMABV?$vector@MV?$allocator@M@std@@@0@HHHHABUwhisper_filters@@AAUwhisper_mel@@@Z$$QAHAAPBM$$QAV?$reference_wrapper@$$CBV?$vector@MV?$allocator@M@std@@@std@@@0@$$QA_JABH99$$QAV?$reference_wrapper@$$CBUwhisper_filters@@@0@$$QAV?$reference_wrapper@Uwhisper_mel@@@0@@Z
	??$make_unique@V_Node_assert@std@@W4_Node_type@2@$0A@@std@@YA?AV?$unique_ptr@V_Node_assert@std@@U?$default_delete@V_Node_assert@std@@@2@@0@$$QAW4_Node_type@0@@Z
	??$max@H@std@@YAABHABH0@Z
	??$max@I@std@@YAABIABI0@Z
	??$max@N@std@@YAABNABN0@Z
	??$max@_J@std@@YAAB_JAB_J0@Z
	??$max_element@V?$_Vector_const_iterator@V?$_Vector_val@U?$_Simple_types@M@std@@@std@@@std@@@std@@YA?AV?$_Vector_const_iterator@V?$_Vector_val@U?$_Simple_types@M@std@@@std@@@0@V10@0@Z
	??$max_element@V?$_Vector_const_iterator@V?$_Vector_val@U?$_Simple_types@M@std@@@std@@@std@@U?$less@X@2@@std@@YA?AV?$_Vector_const_iterator@V?$_Vector_val@U?$_Simple_types@M@std@@@std@@@0@V10@0U?$less@X@0@@Z
	??$max_element@V?$_Vector_iterator@V?$_Vector_val@U?$_Simple_types@M@std@@@std@@@std@@@std@@YA?AV?$_Vector_iterator@V?$_Vector_val@U?$_Simple_types@M@std@@@std@@@0@V10@0@Z
	??$max_element@V?$_Vector_iterator@V?$_Vector_val@U?$_Simple_types@M@std@@@std@@@std@@U?$less@X@2@@std@@YA?AV?$_Vector_iterator@V?$_Vector_val@U?$_Simple_types@M@std@@@std@@@0@V10@0U?$less@X@0@@Z
	??$min@H@std@@YAABHABH0@Z
	??$min@I@std@@YAABIABI0@Z
	??$move@AAD@std@@YA$$QADAAD@Z
	??$move@AAE@std@@YA$$QAEAAE@Z
	??$move@AAH@std@@YA$$QAHAAH@Z
	??$move@AAI@std@@YA$$QAIAAI@Z
	??$move@AAM@std@@YA$$QAMAAM@Z
	??$move@AAN@std@@YA$$QANAAN@Z
	??$move@AAP6AHPAUwhisper_context@@PAUwhisper_state@@Uwhisper_full_params@@PBMH@Z@std@@YA$$QAP6AHPAUwhisper_context@@PAUwhisper_state@@Uwhisper_full_params@@PBMH@ZAAP6AH0123H@Z@Z
	??$move@AAP6AXHPBMABV?$vector@MV?$allocator@M@std@@@std@@HHHHABUwhisper_filters@@AAUwhisper_mel@@@Z@std@@YA$$QAP6AXHPBMABV?$vector@MV?$allocator@M@std@@@0@HHHHABUwhisper_filters@@AAUwhisper_mel@@@ZAAP6AXH01HHHH23@Z@Z
	??$move@AAPAUggml_backend@@@std@@YA$$QAPAUggml_backend@@AAPAU1@@Z
	??$move@AAPAUggml_backend_buffer@@@std@@YA$$QAPAUggml_backend_buffer@@AAPAU1@@Z
	??$move@AAPAUggml_context@@@std@@YA$$QAPAUggml_context@@AAPAU1@@Z
	??$move@AAPAUggml_tensor@@@std@@YA$$QAPAUggml_tensor@@AAPAU1@@Z
	??$move@AAPAUwhisper_context@@@std@@YA$$QAPAUwhisper_context@@AAPAU1@@Z
	??$move@AAPAUwhisper_state@@@std@@YA$$QAPAUwhisper_state@@AAPAU1@@Z
	??$move@AAPAV_Node_base@std@@@std@@YA$$QAPAV_Node_base@0@AAPAV10@@Z
	??$move@AAPBM@std@@YA$$QAPBMAAPBM@Z
	??$move@AAPBUwhisper_grammar_element@@@std@@YA$$QAPBUwhisper_grammar_element@@AAPBU1@@Z
	??$move@AAU?$pair@PAUggml_backend_device@@PAUggml_backend_buffer_type@@@std@@@std@@YA$$QAU?$pair@PAUggml_backend_device@@PAUggml_backend_buffer_type@@@0@AAU10@@Z
	??$move@AAU?$pair@V?$vector@IV?$allocator@I@std@@@std@@Uwhisper_partial_utf8@@@std@@@std@@YA$$QAU?$pair@V?$vector@IV?$allocator@I@std@@@std@@Uwhisper_partial_utf8@@@0@AAU10@@Z
	??$move@AAU?$whisper_pair@NH@@@std@@YA$$QAU?$whisper_pair@NH@@AAU1@@Z
	??$move@AAU_Grp_t@?$_Tgt_state_t@PBD@std@@@std@@YA$$QAU_Grp_t@?$_Tgt_state_t@PBD@0@AAU120@@Z
	??$move@AAU_Grp_t@?$_Tgt_state_t@V?$_String_const_iterator@V?$_String_val@U?$_Simple_types@D@std@@@std@@@std@@@std@@@std@@YA$$QAU_Grp_t@?$_Tgt_state_t@V?$_String_const_iterator@V?$_String_val@U?$_Simple_types@D@std@@@std@@@std@@@0@AAU120@@Z
	??$move@AAU_Loop_vals_t@std@@@std@@YA$$QAU_Loop_vals_t@0@AAU10@@Z
	??$move@AAUvad_segment_info@whisper_state@@@std@@YA$$QAUvad_segment_info@whisper_state@@AAU12@@Z
	??$move@AAUvad_time_mapping@@@std@@YA$$QAUvad_time_mapping@@AAU1@@Z
	??$move@AAUwhisper_full_params@@@std@@YA$$QAUwhisper_full_params@@AAU1@@Z
	??$move@AAUwhisper_grammar_candidate@@@std@@YA$$QAUwhisper_grammar_candidate@@AAU1@@Z
	??$move@AAUwhisper_grammar_element@@@std@@YA$$QAUwhisper_grammar_element@@AAU1@@Z
	??$move@AAUwhisper_layer_decoder@@@std@@YA$$QAUwhisper_layer_decoder@@AAU1@@Z
	??$move@AAUwhisper_layer_encoder@@@std@@YA$$QAUwhisper_layer_encoder@@AAU1@@Z
	??$move@AAUwhisper_segment@@@std@@YA$$QAUwhisper_segment@@AAU1@@Z
	??$move@AAUwhisper_token_data@@@std@@YA$$QAUwhisper_token_data@@AAU1@@Z
	??$move@AAUwhisper_vad_segment@@@std@@YA$$QAUwhisper_vad_segment@@AAU1@@Z
	??$move@AAV?$allocator@D@std@@@std@@YA$$QAV?$allocator@D@0@AAV10@@Z
	??$move@AAV?$allocator@H@std@@@std@@YA$$QAV?$allocator@H@0@AAV10@@Z
	??$move@AAV?$allocator@I@std@@@std@@YA$$QAV?$allocator@I@0@AAV10@@Z
	??$move@AAV?$allocator@M@std@@@std@@YA$$QAV?$allocator@M@0@AAV10@@Z
	??$move@AAV?$allocator@PAUggml_backend@@@std@@@std@@YA$$QAV?$allocator@PAUggml_backend@@@0@AAV10@@Z
	??$move@AAV?$allocator@PBUwhisper_grammar_element@@@std@@@std@@YA$$QAV?$allocator@PBUwhisper_grammar_element@@@0@AAV10@@Z
	??$move@AAV?$allocator@U?$pair@PAUggml_backend_device@@PAUggml_backend_buffer_type@@@std@@@std@@@std@@YA$$QAV?$allocator@U?$pair@PAUggml_backend_device@@PAUggml_backend_buffer_type@@@std@@@0@AAV10@@Z
	??$move@AAV?$allocator@Uwhisper_grammar_candidate@@@std@@@std@@YA$$QAV?$allocator@Uwhisper_grammar_candidate@@@0@AAV10@@Z
	??$move@AAV?$allocator@Uwhisper_token_data@@@std@@@std@@YA$$QAV?$allocator@Uwhisper_token_data@@@0@AAV10@@Z
	??$move@AAV?$allocator@Uwhisper_vad_segment@@@std@@@std@@YA$$QAV?$allocator@Uwhisper_vad_segment@@@0@AAV10@@Z
	??$move@AAV?$allocator@V?$vector@PBUwhisper_grammar_element@@V?$allocator@PBUwhisper_grammar_element@@@std@@@std@@@std@@@std@@YA$$QAV?$allocator@V?$vector@PBUwhisper_grammar_element@@V?$allocator@PBUwhisper_grammar_element@@@std@@@std@@@0@AAV10@@Z
	??$move@AAV?$allocator@V?$vector@Uwhisper_grammar_element@@V?$allocator@Uwhisper_grammar_element@@@std@@@std@@@std@@@std@@YA$$QAV?$allocator@V?$vector@Uwhisper_grammar_element@@V?$allocator@Uwhisper_grammar_element@@@std@@@std@@@0@AAV10@@Z
	??$move@AAV?$allocator@_W@std@@@std@@YA$$QAV?$allocator@_W@0@AAV10@@Z
	??$move@AAV?$basic_string@DU?$char_traits@D@std@@V?$allocator@D@2@@std@@@std@@YA$$QAV?$basic_string@DU?$char_traits@D@std@@V?$allocator@D@2@@0@AAV10@@Z
	??$move@AAV?$reference_wrapper@$$CBUwhisper_filters@@@std@@@std@@YA$$QAV?$reference_wrapper@$$CBUwhisper_filters@@@0@AAV10@@Z
	??$move@AAV?$reference_wrapper@$$CBV?$vector@MV?$allocator@M@std@@@std@@@std@@@std@@YA$$QAV?$reference_wrapper@$$CBV?$vector@MV?$allocator@M@std@@@std@@@0@AAV10@@Z
	??$move@AAV?$reference_wrapper@Uwhisper_mel@@@std@@@std@@YA$$QAV?$reference_wrapper@Uwhisper_mel@@@0@AAV10@@Z
	??$move@AAV?$sub_match@PBD@std@@@std@@YA$$QAV?$sub_match@PBD@0@AAV10@@Z
	??$move@AAV?$sub_match@V?$_String_const_iterator@V?$_String_val@U?$_Simple_types@D@std@@@std@@@std@@@std@@@std@@YA$$QAV?$sub_match@V?$_String_const_iterator@V?$_String_val@U?$_Simple_types@D@std@@@std@@@std@@@0@AAV10@@Z
	??$move@AAV?$tuple@$$QAV?$basic_string@DU?$char_traits@D@std@@V?$allocator@D@2@@std@@@std@@@std@@YA$$QAV?$tuple@$$QAV?$basic_string@DU?$char_traits@D@std@@V?$allocator@D@2@@std@@@0@AAV10@@Z
	??$move@AAV?$tuple@ABH@std@@@std@@YA$$QAV?$tuple@ABH@0@AAV10@@Z
	??$move@AAV?$tuple@ABQAUggml_backend_buffer_type@@@std@@@std@@YA$$QAV?$tuple@ABQAUggml_backend_buffer_type@@@0@AAV10@@Z
	??$move@AAV?$tuple@ABV?$basic_string@DU?$char_traits@D@std@@V?$allocator@D@2@@std@@@std@@@std@@YA$$QAV?$tuple@ABV?$basic_string@DU?$char_traits@D@std@@V?$allocator@D@2@@std@@@0@AAV10@@Z
	??$move@AAV?$vector@IV?$allocator@I@std@@@std@@@std@@YA$$QAV?$vector@IV?$allocator@I@std@@@0@AAV10@@Z
	??$move@AAV?$vector@PBUwhisper_grammar_element@@V?$allocator@PBUwhisper_grammar_element@@@std@@@std@@@std@@YA$$QAV?$vector@PBUwhisper_grammar_element@@V?$allocator@PBUwhisper_grammar_element@@@std@@@0@AAV10@@Z
	??$move@AAV?$vector@Uwhisper_vad_segment@@V?$allocator@Uwhisper_vad_segment@@@std@@@std@@@std@@YA$$QAV?$vector@Uwhisper_vad_segment@@V?$allocator@Uwhisper_vad_segment@@@std@@@0@AAV10@@Z
	??$move@AAV?$vector@V?$vector@PBUwhisper_grammar_element@@V?$allocator@PBUwhisper_grammar_element@@@std@@@std@@V?$allocator@V?$vector@PBUwhisper_grammar_element@@V?$allocator@PBUwhisper_grammar_element@@@std@@@std@@@2@@std@@@std@@YA$$QAV?$vector@V?$vector@PBUwhisper_grammar_element@@V?$allocator@PBUwhisper_grammar_element@@@std@@@std@@V?$allocator@V?$vector@PBUwhisper_grammar_element@@V?$allocator@PBUwhisper_grammar_element@@@std@@@std@@@2@@0@AAV10@@Z
	??$move@AAV?$vector@V?$vector@Uwhisper_grammar_element@@V?$allocator@Uwhisper_grammar_element@@@std@@@std@@V?$allocator@V?$vector@Uwhisper_grammar_element@@V?$allocator@Uwhisper_grammar_element@@@std@@@std@@@2@@std@@@std@@YA$$QAV?$vector@V?$vector@Uwhisper_grammar_element@@V?$allocator@Uwhisper_grammar_element@@@std@@@std@@V?$allocator@V?$vector@Uwhisper_grammar_element@@V?$allocator@Uwhisper_grammar_element@@@std@@@std@@@2@@0@AAV10@@Z
	??$move@AA_J@std@@YA$$QA_JAA_J@Z
	??$next@PAI@std@@YAPAIPAIH@Z
	??$next@PAPBUwhisper_grammar_element@@@std@@YAPAPBUwhisper_grammar_element@@PAPBU1@H@Z
	??$next@PAU_Grp_t@?$_Tgt_state_t@PBD@std@@@std@@YAPAU_Grp_t@?$_Tgt_state_t@PBD@0@PAU120@H@Z
	??$next@PAU_Grp_t@?$_Tgt_state_t@V?$_String_const_iterator@V?$_String_val@U?$_Simple_types@D@std@@@std@@@std@@@std@@@std@@YAPAU_Grp_t@?$_Tgt_state_t@V?$_String_const_iterator@V?$_String_val@U?$_Simple_types@D@std@@@std@@@std@@@0@PAU120@H@Z
	??$next@PAUwhisper_grammar_element@@@std@@YAPAUwhisper_grammar_element@@PAU1@H@Z
	??$next@PAUwhisper_token_data@@@std@@YAPAUwhisper_token_data@@PAU1@H@Z
	??$next@PAV?$vector@PBUwhisper_grammar_element@@V?$allocator@PBUwhisper_grammar_element@@@std@@@std@@@std@@YAPAV?$vector@PBUwhisper_grammar_element@@V?$allocator@PBUwhisper_grammar_element@@@std@@@0@PAV10@H@Z
	??$next@PAV?$vector@Uwhisper_grammar_element@@V?$allocator@Uwhisper_grammar_element@@@std@@@std@@@std@@YAPAV?$vector@Uwhisper_grammar_element@@V?$allocator@Uwhisper_grammar_element@@@std@@@0@PAV10@H@Z
	??$next@PBH@std@@YAPBHPBHH@Z
	??$next@PBN@std@@YAPBNPBNH@Z
	??$next@PBUvad_time_mapping@@@std@@YAPBUvad_time_mapping@@PBU1@H@Z
	??$pow@MN$0A@@@YANMN@Z
	??$pow@NM$0A@@@YANNM@Z
	??$ref@Uwhisper_mel@@@std@@YA?AV?$reference_wrapper@Uwhisper_mel@@@0@AAUwhisper_mel@@@Z
	??$regex_match@U?$char_traits@D@std@@V?$allocator@D@2@DV?$regex_traits@D@2@@std@@YA_NABV?$basic_string@DU?$char_traits@D@std@@V?$allocator@D@2@@0@ABV?$basic_regex@DV?$regex_traits@D@std@@@0@W4match_flag_type@regex_constants@0@@Z
	??$regex_search@U?$char_traits@D@std@@V?$allocator@D@2@V?$allocator@V?$sub_match@V?$_String_const_iterator@V?$_String_val@U?$_Simple_types@D@std@@@std@@@std@@@std@@@2@DV?$regex_traits@D@2@@std@@YA_NABV?$basic_string@DU?$char_traits@D@std@@V?$allocator@D@2@@0@AAV?$match_results@V?$_String_const_iterator@V?$_String_val@U?$_Simple_types@D@std@@@std@@@std@@V?$allocator@V?$sub_match@V?$_String_const_iterator@V?$_String_val@U?$_Simple_types@D@std@@@std@@@std@@@std@@@2@@0@ABV?$basic_regex@DV?$regex_traits@D@std@@@0@W4match_flag_type@regex_constants@0@@Z
	??$reverse@PAH@std@@YAXQAH0@Z
	??$reverse_copy@PBMV?$_Vector_iterator@V?$_Vector_val@U?$_Simple_types@M@std@@@std@@@std@@@std@@YA?AV?$_Vector_iterator@V?$_Vector_val@U?$_Simple_types@M@std@@@std@@@0@PBM0V10@@Z
	??$rotate@V?$_Vector_iterator@V?$_Vector_val@U?$_Simple_types@H@std@@@std@@@std@@@std@@YA?AV?$_Vector_iterator@V?$_Vector_val@U?$_Simple_types@H@std@@@std@@@0@V10@00@Z
	??$sort@V?$_Vector_iterator@V?$_Vector_val@U?$_Simple_types@M@std@@@std@@@std@@@std@@YAXV?$_Vector_iterator@V?$_Vector_val@U?$_Simple_types@M@std@@@std@@@0@0@Z
	??$sort@V?$_Vector_iterator@V?$_Vector_val@U?$_Simple_types@M@std@@@std@@@std@@U?$less@X@2@@std@@YAXV?$_Vector_iterator@V?$_Vector_val@U?$_Simple_types@M@std@@@std@@@0@0U?$less@X@0@@Z
	??$swap@D$0A@@std@@YAXAAD0@Z
	??$swap@H$0A@@std@@YAXAAH0@Z
	??$swap@M$0A@@std@@YAXAAM0@Z
	??$swap@PAV_Node_base@std@@$0A@@std@@YAXAAPAV_Node_base@0@0@Z
	??$swap@U?$whisper_pair@NH@@$0A@@std@@YAXAAU?$whisper_pair@NH@@0@Z
	??$swap@Uvad_time_mapping@@$0A@@std@@YAXAAUvad_time_mapping@@0@Z
	??$to_address@$$CBD@std@@YAPBDQBD@Z
	??$to_address@$$CBH@std@@YAPBHQBH@Z
	??$to_address@$$CBI@std@@YAPBIQBI@Z
	??$to_address@$$CBM@std@@YAPBMQBM@Z
	??$to_address@D@std@@YAPADQAD@Z
	??$to_address@E@std@@YAPAEQAE@Z
	??$to_address@H@std@@YAPAHQAH@Z
	??$to_address@I@std@@YAPAIQAI@Z
	??$to_address@M@std@@YAPAMQAM@Z
	??$to_address@N@std@@YAPANQAN@Z
	??$to_address@PAUggml_backend@@@std@@YAPAPAUggml_backend@@QAPAU1@@Z
	??$to_address@PAUggml_backend_buffer@@@std@@YAPAPAUggml_backend_buffer@@QAPAU1@@Z
	??$to_address@PAUggml_context@@@std@@YAPAPAUggml_context@@QAPAU1@@Z
	??$to_address@PAUggml_tensor@@@std@@YAPAPAUggml_tensor@@QAPAU1@@Z
	??$to_address@PAUwhisper_state@@@std@@YAPAPAUwhisper_state@@QAPAU1@@Z
	??$to_address@PBUwhisper_grammar_element@@@std@@YAPAPBUwhisper_grammar_element@@QAPBU1@@Z
	??$to_address@QBUwhisper_grammar_element@@@std@@YAPBQBUwhisper_grammar_element@@QBQBU1@@Z
	??$to_address@U?$whisper_pair@NH@@@std@@YAPAU?$whisper_pair@NH@@QAU1@@Z
	??$to_address@U_Grp_t@?$_Tgt_state_t@PBD@std@@@std@@YAPAU_Grp_t@?$_Tgt_state_t@PBD@0@QAU120@@Z
	??$to_address@U_Loop_vals_t@std@@@std@@YAPAU_Loop_vals_t@0@QAU10@@Z
	??$to_address@Uvad_segment_info@whisper_state@@@std@@YAPAUvad_segment_info@whisper_state@@QAU12@@Z
	??$to_address@Uvad_time_mapping@@@std@@YAPAUvad_time_mapping@@QAU1@@Z
	??$to_address@Uwhisper_grammar_candidate@@@std@@YAPAUwhisper_grammar_candidate@@QAU1@@Z
	??$to_address@Uwhisper_grammar_element@@@std@@YAPAUwhisper_grammar_element@@QAU1@@Z
	??$to_address@Uwhisper_layer_decoder@@@std@@YAPAUwhisper_layer_decoder@@QAU1@@Z
	??$to_address@Uwhisper_layer_encoder@@@std@@YAPAUwhisper_layer_encoder@@QAU1@@Z
	??$to_address@Uwhisper_token_data@@@std@@YAPAUwhisper_token_data@@QAU1@@Z
	??$to_address@Uwhisper_vad_segment@@@std@@YAPAUwhisper_vad_segment@@QAU1@@Z
	??$transform_primary@PAD@?$_Regex_traits@D@std@@QBE?AV?$basic_string@DU?$char_traits@D@std@@V?$allocator@D@2@@1@PAD0@Z
	??$transform_primary@PBD@?$_Regex_traits@D@std@@QBE?AV?$basic_string@DU?$char_traits@D@std@@V?$allocator@D@2@@1@PBD0@Z
	??$transform_primary@V?$_String_iterator@V?$_String_val@U?$_Simple_types@D@std@@@std@@@std@@@?$_Regex_traits@D@std@@QBE?AV?$basic_string@DU?$char_traits@D@std@@V?$allocator@D@2@@1@V?$_String_iterator@V?$_String_val@U?$_Simple_types@D@std@@@std@@@1@0@Z
	??$use_facet@V?$codecvt@DDU_Mbstatet@@@std@@@std@@YAABV?$codecvt@DDU_Mbstatet@@@0@ABVlocale@0@@Z
	??$use_facet@V?$collate@D@std@@@std@@YAABV?$collate@D@0@ABVlocale@0@@Z
	??$use_facet@V?$ctype@D@std@@@std@@YAABV?$ctype@D@0@ABVlocale@0@@Z
	??0?$_Alloc_construct_ptr@V?$allocator@U?$_Tree_node@HPAX@std@@@std@@@std@@QAE@AAV?$allocator@U?$_Tree_node@HPAX@std@@@1@@Z
	??0?$_Alloc_construct_ptr@V?$allocator@U?$_Tree_node@U?$pair@$$CBHH@std@@PAX@std@@@std@@@std@@QAE@AAV?$allocator@U?$_Tree_node@U?$pair@$$CBHH@std@@PAX@std@@@1@@Z
	??0?$_Alloc_construct_ptr@V?$allocator@U?$_Tree_node@U?$pair@$$CBHV?$basic_string@DU?$char_traits@D@std@@V?$allocator@D@2@@std@@@std@@PAX@std@@@std@@@std@@QAE@AAV?$allocator@U?$_Tree_node@U?$pair@$$CBHV?$basic_string@DU?$char_traits@D@std@@V?$allocator@D@2@@std@@@std@@PAX@std@@@1@@Z
	??0?$_Alloc_construct_ptr@V?$allocator@U?$_Tree_node@U?$pair@$$CBV?$basic_string@DU?$char_traits@D@std@@V?$allocator@D@2@@std@@H@std@@PAX@std@@@std@@@std@@QAE@AAV?$allocator@U?$_Tree_node@U?$pair@$$CBV?$basic_string@DU?$char_traits@D@std@@V?$allocator@D@2@@std@@H@std@@PAX@std@@@1@@Z
	??0?$_Alloc_construct_ptr@V?$allocator@U?$_Tree_node@U?$pair@$$CBV?$basic_string@DU?$char_traits@D@std@@V?$allocator@D@2@@std@@PAUggml_tensor@@@std@@PAX@std@@@std@@@std@@QAE@AAV?$allocator@U?$_Tree_node@U?$pair@$$CBV?$basic_string@DU?$char_traits@D@std@@V?$allocator@D@2@@std@@PAUggml_tensor@@@std@@PAX@std@@@1@@Z
	??0?$_Alloc_construct_ptr@V?$allocator@U?$_Tree_node@U?$pair@$$CBV?$basic_string@DU?$char_traits@D@std@@V?$allocator@D@2@@std@@U?$pair@HV?$basic_string@DU?$char_traits@D@std@@V?$allocator@D@2@@std@@@2@@std@@PAX@std@@@std@@@std@@QAE@AAV?$allocator@U?$_Tree_node@U?$pair@$$CBV?$basic_string@DU?$char_traits@D@std@@V?$allocator@D@2@@std@@U?$pair@HV?$basic_string@DU?$char_traits@D@std@@V?$allocator@D@2@@std@@@2@@std@@PAX@std@@@1@@Z
	??0?$_Alloc_construct_ptr@V?$allocator@U?$_Tree_node@U?$pair@$$CBW4asr_system@@V?$map@W4asr_tensor@@PBDU?$less@W4asr_tensor@@@std@@V?$allocator@U?$pair@$$CBW4asr_tensor@@PBD@std@@@3@@std@@@std@@PAX@std@@@std@@@std@@QAE@AAV?$allocator@U?$_Tree_node@U?$pair@$$CBW4asr_system@@V?$map@W4asr_tensor@@PBDU?$less@W4asr_tensor@@@std@@V?$allocator@U?$pair@$$CBW4asr_tensor@@PBD@std@@@3@@std@@@std@@PAX@std@@@1@@Z
	??0?$_Alloc_construct_ptr@V?$allocator@U?$_Tree_node@U?$pair@$$CBW4asr_tensor@@PBD@std@@PAX@std@@@std@@@std@@QAE@AAV?$allocator@U?$_Tree_node@U?$pair@$$CBW4asr_tensor@@PBD@std@@PAX@std@@@1@@Z
	??0?$_Alloc_construct_ptr@V?$allocator@U?$_Tree_node@U?$pair@$$CBW4asr_tensor@@W4ggml_op@@@std@@PAX@std@@@std@@@std@@QAE@AAV?$allocator@U?$_Tree_node@U?$pair@$$CBW4asr_tensor@@W4ggml_op@@@std@@PAX@std@@@1@@Z
	??0?$_Alloc_construct_ptr@V?$allocator@U?$_Tree_node@U?$pair@$$CBW4e_model@@V?$basic_string@DU?$char_traits@D@std@@V?$allocator@D@2@@std@@@std@@PAX@std@@@std@@@std@@QAE@AAV?$allocator@U?$_Tree_node@U?$pair@$$CBW4e_model@@V?$basic_string@DU?$char_traits@D@std@@V?$allocator@D@2@@std@@@std@@PAX@std@@@1@@Z
	??0?$_Alloc_construct_ptr@V?$allocator@U?$_Tree_node@U?$pair@$$CBW4vad_tensor@@PBD@std@@PAX@std@@@std@@@std@@QAE@AAV?$allocator@U?$_Tree_node@U?$pair@$$CBW4vad_tensor@@PBD@std@@PAX@std@@@1@@Z
	??0?$_Alloc_construct_ptr@V?$allocator@U?$_Tree_node@U?$pair@$$CBW4vad_tensor@@W4ggml_op@@@std@@PAX@std@@@std@@@std@@QAE@AAV?$allocator@U?$_Tree_node@U?$pair@$$CBW4vad_tensor@@W4ggml_op@@@std@@PAX@std@@@1@@Z
	??0?$_Alloc_construct_ptr@V?$allocator@U?$_Tree_node@U?$pair@$$CBW4whisper_alignment_heads_preset@@Uwhisper_aheads@@@std@@PAX@std@@@std@@@std@@QAE@AAV?$allocator@U?$_Tree_node@U?$pair@$$CBW4whisper_alignment_heads_preset@@Uwhisper_aheads@@@std@@PAX@std@@@1@@Z
	??0?$_Alloc_construct_ptr@V?$allocator@U?$_Tree_node@U?$pair@QAUggml_backend_buffer_type@@PAUggml_context@@@std@@PAX@std@@@std@@@std@@QAE@AAV?$allocator@U?$_Tree_node@U?$pair@QAUggml_backend_buffer_type@@PAUggml_context@@@std@@PAX@std@@@1@@Z
	??0?$_Atomic_integral@H$03@std@@QAE@H@Z
	??0?$_Atomic_integral_facade@H@std@@QAE@H@Z
	??0?$_Atomic_storage@H$03@std@@QAE@H@Z
	??0?$_Bt_state_t@PBD@std@@QAE@ABV01@@Z
	??0?$_Bt_state_t@PBD@std@@QAE@XZ
	??0?$_Bt_state_t@V?$_String_const_iterator@V?$_String_val@U?$_Simple_types@D@std@@@std@@@std@@@std@@QAE@ABV01@@Z
	??0?$_Bt_state_t@V?$_String_const_iterator@V?$_String_val@U?$_Simple_types@D@std@@@std@@@std@@@std@@QAE@XZ
	??0?$_Buf@D@std@@QAE@XZ
	??0?$_Builder@PBDDV?$regex_traits@D@std@@@std@@QAE@ABV?$regex_traits@D@1@W4syntax_option_type@regex_constants@1@@Z
	??0?$_Cmp_collate@V?$regex_traits@D@std@@@std@@QAE@ABV?$regex_traits@D@1@@Z
	??0?$_Cmp_icase@V?$_Regex_traits@D@std@@@std@@QAE@ABV?$_Regex_traits@D@1@@Z
	??0?$_Cmp_icase@V?$regex_traits@D@std@@@std@@QAE@ABV?$regex_traits@D@1@@Z
	??0?$_Container_proxy_ptr12@V?$allocator@U_Container_proxy@std@@@std@@@std@@QAE@AAV?$allocator@U_Container_proxy@std@@@1@AAU_Container_base12@1@@Z
	??0?$_Func_base@PAUggml_cgraph@@$$V@std@@QAE@XZ
	??0?$_Func_class@PAUggml_cgraph@@$$V@std@@QAE@XZ
	??0?$_Matcher@PBDDV?$regex_traits@D@std@@PBD@std@@QAE@PBD0ABV?$regex_traits@D@1@PAV_Root_node@1@IW4syntax_option_type@regex_constants@1@W4match_flag_type@51@@Z
	??0?$_Matcher@V?$_String_const_iterator@V?$_String_val@U?$_Simple_types@D@std@@@std@@@std@@DV?$regex_traits@D@2@V12@@std@@QAE@V?$_String_const_iterator@V?$_String_val@U?$_Simple_types@D@std@@@std@@@1@0ABV?$regex_traits@D@1@PAV_Root_node@1@IW4syntax_option_type@regex_constants@1@W4match_flag_type@61@@Z
	??0?$_Node_class@DV?$regex_traits@D@std@@@std@@QAE@W4_Node_type@1@W4_Node_flags@1@@Z
	??0?$_Node_str@D@std@@QAE@W4_Node_flags@1@@Z
	??0?$_Parser@PBDDV?$regex_traits@D@std@@@std@@QAE@ABV?$regex_traits@D@1@PBD1W4syntax_option_type@regex_constants@1@@Z
	??0?$_Regex_traits@D@std@@QAE@XZ
	??0?$_Sequence@D@std@@QAE@I@Z
	??0?$_String_const_iterator@V?$_String_val@U?$_Simple_types@D@std@@@std@@@std@@QAE@$$QAV01@@Z
	??0?$_String_const_iterator@V?$_String_val@U?$_Simple_types@D@std@@@std@@@std@@QAE@ABV01@@Z
	??0?$_String_const_iterator@V?$_String_val@U?$_Simple_types@D@std@@@std@@@std@@QAE@PBDPBU_Container_base12@1@@Z
	??0?$_String_const_iterator@V?$_String_val@U?$_Simple_types@D@std@@@std@@@std@@QAE@XZ
	??0?$_String_iterator@V?$_String_val@U?$_Simple_types@D@std@@@std@@@std@@QAE@ABV01@@Z
	??0?$_String_iterator@V?$_String_val@U?$_Simple_types@D@std@@@std@@@std@@QAE@PBDPBU_Container_base12@1@@Z
	??0?$_String_val@U?$_Simple_types@D@std@@@std@@QAE@XZ
	??0?$_String_val@U?$_Simple_types@_W@std@@@std@@QAE@XZ
	??0?$_Tgt_state_t@PBD@std@@QAE@ABV01@@Z
	??0?$_Tgt_state_t@PBD@std@@QAE@XZ
	??0?$_Tgt_state_t@V?$_String_const_iterator@V?$_String_val@U?$_Simple_types@D@std@@@std@@@std@@@std@@QAE@ABV01@@Z
	??0?$_Tgt_state_t@V?$_String_const_iterator@V?$_String_val@U?$_Simple_types@D@std@@@std@@@std@@@std@@QAE@XZ
	??0?$_Tree@V?$_Tmap_traits@HHU?$less@H@std@@V?$allocator@U?$pair@$$CBHH@std@@@2@$0A@@std@@@std@@QAE@ABU?$less@H@1@@Z
	??0?$_Tree@V?$_Tmap_traits@HV?$basic_string@DU?$char_traits@D@std@@V?$allocator@D@2@@std@@U?$less@H@2@V?$allocator@U?$pair@$$CBHV?$basic_string@DU?$char_traits@D@std@@V?$allocator@D@2@@std@@@std@@@2@$0A@@std@@@std@@QAE@ABU?$less@H@1@@Z
	??0?$_Tree@V?$_Tmap_traits@PAUggml_backend_buffer_type@@PAUggml_context@@U?$less@PAUggml_backend_buffer_type@@@std@@V?$allocator@U?$pair@QAUggml_backend_buffer_type@@PAUggml_context@@@std@@@4@$0A@@std@@@std@@QAE@ABU?$less@PAUggml_backend_buffer_type@@@1@@Z
	??0?$_Tree@V?$_Tmap_traits@V?$basic_string@DU?$char_traits@D@std@@V?$allocator@D@2@@std@@HU?$less@V?$basic_string@DU?$char_traits@D@std@@V?$allocator@D@2@@std@@@2@V?$allocator@U?$pair@$$CBV?$basic_string@DU?$char_traits@D@std@@V?$allocator@D@2@@std@@H@std@@@2@$0A@@std@@@std@@QAE@ABU?$less@V?$basic_string@DU?$char_traits@D@std@@V?$allocator@D@2@@std@@@1@@Z
	??0?$_Tree@V?$_Tmap_traits@V?$basic_string@DU?$char_traits@D@std@@V?$allocator@D@2@@std@@PAUggml_tensor@@U?$less@V?$basic_string@DU?$char_traits@D@std@@V?$allocator@D@2@@std@@@2@V?$allocator@U?$pair@$$CBV?$basic_string@DU?$char_traits@D@std@@V?$allocator@D@2@@std@@PAUggml_tensor@@@std@@@2@$0A@@std@@@std@@QAE@ABU?$less@V?$basic_string@DU?$char_traits@D@std@@V?$allocator@D@2@@std@@@1@@Z
	??0?$_Tree@V?$_Tmap_traits@V?$basic_string@DU?$char_traits@D@std@@V?$allocator@D@2@@std@@U?$pair@HV?$basic_string@DU?$char_traits@D@std@@V?$allocator@D@2@@std@@@2@U?$less@V?$basic_string@DU?$char_traits@D@std@@V?$allocator@D@2@@std@@@2@V?$allocator@U?$pair@$$CBV?$basic_string@DU?$char_traits@D@std@@V?$allocator@D@2@@std@@U?$pair@HV?$basic_string@DU?$char_traits@D@std@@V?$allocator@D@2@@std@@@2@@std@@@2@$0A@@std@@@std@@QAE@ABU?$less@V?$basic_string@DU?$char_traits@D@std@@V?$allocator@D@2@@std@@@1@@Z
	??0?$_Tree@V?$_Tmap_traits@W4asr_system@@V?$map@W4asr_tensor@@PBDU?$less@W4asr_tensor@@@std@@V?$allocator@U?$pair@$$CBW4asr_tensor@@PBD@std@@@3@@std@@U?$less@W4asr_system@@@3@V?$allocator@U?$pair@$$CBW4asr_system@@V?$map@W4asr_tensor@@PBDU?$less@W4asr_tensor@@@std@@V?$allocator@U?$pair@$$CBW4asr_tensor@@PBD@std@@@3@@std@@@std@@@3@$0A@@std@@@std@@QAE@ABU?$less@W4asr_system@@@1@@Z
	??0?$_Tree@V?$_Tmap_traits@W4asr_tensor@@PBDU?$less@W4asr_tensor@@@std@@V?$allocator@U?$pair@$$CBW4asr_tensor@@PBD@std@@@3@$0A@@std@@@std@@QAE@ABU?$less@W4asr_tensor@@@1@@Z
	??0?$_Tree@V?$_Tmap_traits@W4asr_tensor@@W4ggml_op@@U?$less@W4asr_tensor@@@std@@V?$allocator@U?$pair@$$CBW4asr_tensor@@W4ggml_op@@@std@@@4@$0A@@std@@@std@@QAE@ABU?$less@W4asr_tensor@@@1@@Z
	??0?$_Tree@V?$_Tmap_traits@W4e_model@@V?$basic_string@DU?$char_traits@D@std@@V?$allocator@D@2@@std@@U?$less@W4e_model@@@3@V?$allocator@U?$pair@$$CBW4e_model@@V?$basic_string@DU?$char_traits@D@std@@V?$allocator@D@2@@std@@@std@@@3@$0A@@std@@@std@@QAE@ABU?$less@W4e_model@@@1@@Z
	??0?$_Tree@V?$_Tmap_traits@W4vad_tensor@@PBDU?$less@W4vad_tensor@@@std@@V?$allocator@U?$pair@$$CBW4vad_tensor@@PBD@std@@@3@$0A@@std@@@std@@QAE@ABU?$less@W4vad_tensor@@@1@@Z
	??0?$_Tree@V?$_Tmap_traits@W4vad_tensor@@W4ggml_op@@U?$less@W4vad_tensor@@@std@@V?$allocator@U?$pair@$$CBW4vad_tensor@@W4ggml_op@@@std@@@4@$0A@@std@@@std@@QAE@ABU?$less@W4vad_tensor@@@1@@Z
	??0?$_Tree@V?$_Tmap_traits@W4whisper_alignment_heads_preset@@Uwhisper_aheads@@U?$less@W4whisper_alignment_heads_preset@@@std@@V?$allocator@U?$pair@$$CBW4whisper_alignment_heads_preset@@Uwhisper_aheads@@@std@@@4@$0A@@std@@@std@@QAE@ABU?$less@W4whisper_alignment_heads_preset@@@1@@Z
	??0?$_Tree@V?$_Tset_traits@HU?$less@H@std@@V?$allocator@H@2@$0A@@std@@@std@@QAE@ABU?$less@H@1@@Z
	??0?$_Tree_const_iterator@V?$_Tree_val@U?$_Tree_simple_types@H@std@@@std@@@std@@QAE@$$QAV01@@Z
	??0?$_Tree_const_iterator@V?$_Tree_val@U?$_Tree_simple_types@H@std@@@std@@@std@@QAE@PAU?$_Tree_node@HPAX@1@PBV?$_Tree_val@U?$_Tree_simple_types@H@std@@@1@@Z
	??0?$_Tree_const_iterator@V?$_Tree_val@U?$_Tree_simple_types@U?$pair@$$CBV?$basic_string@DU?$char_traits@D@std@@V?$allocator@D@2@@std@@H@std@@@std@@@std@@@std@@QAE@PAU?$_Tree_node@U?$pair@$$CBV?$basic_string@DU?$char_traits@D@std@@V?$allocator@D@2@@std@@H@std@@PAX@1@PBV?$_Tree_val@U?$_Tree_simple_types@U?$pair@$$CBV?$basic_string@DU?$char_traits@D@std@@V?$allocator@D@2@@std@@H@std@@@std@@@1@@Z
	??0?$_Tree_const_iterator@V?$_Tree_val@U?$_Tree_simple_types@U?$pair@$$CBV?$basic_string@DU?$char_traits@D@std@@V?$allocator@D@2@@std@@PAUggml_tensor@@@std@@@std@@@std@@@std@@QAE@PAU?$_Tree_node@U?$pair@$$CBV?$basic_string@DU?$char_traits@D@std@@V?$allocator@D@2@@std@@PAUggml_tensor@@@std@@PAX@1@PBV?$_Tree_val@U?$_Tree_simple_types@U?$pair@$$CBV?$basic_string@DU?$char_traits@D@std@@V?$allocator@D@2@@std@@PAUggml_tensor@@@std@@@std@@@1@@Z
	??0?$_Tree_const_iterator@V?$_Tree_val@U?$_Tree_simple_types@U?$pair@QAUggml_backend_buffer_type@@PAUggml_context@@@std@@@std@@@std@@@std@@QAE@PAU?$_Tree_node@U?$pair@QAUggml_backend_buffer_type@@PAUggml_context@@@std@@PAX@1@PBV?$_Tree_val@U?$_Tree_simple_types@U?$pair@QAUggml_backend_buffer_type@@PAUggml_context@@@std@@@std@@@1@@Z
	??0?$_Tree_head_scoped_ptr@V?$allocator@U?$_Tree_node@HPAX@std@@@std@@V?$_Tree_val@U?$_Tree_simple_types@H@std@@@2@@std@@QAE@AAV?$allocator@U?$_Tree_node@HPAX@std@@@1@AAV?$_Tree_val@U?$_Tree_simple_types@H@std@@@1@@Z
	??0?$_Tree_head_scoped_ptr@V?$allocator@U?$_Tree_node@U?$pair@$$CBW4asr_tensor@@PBD@std@@PAX@std@@@std@@V?$_Tree_val@U?$_Tree_simple_types@U?$pair@$$CBW4asr_tensor@@PBD@std@@@std@@@2@@std@@QAE@AAV?$allocator@U?$_Tree_node@U?$pair@$$CBW4asr_tensor@@PBD@std@@PAX@std@@@1@AAV?$_Tree_val@U?$_Tree_simple_types@U?$pair@$$CBW4asr_tensor@@PBD@std@@@std@@@1@@Z
	??0?$_Tree_iterator@V?$_Tree_val@U?$_Tree_simple_types@U?$pair@$$CBV?$basic_string@DU?$char_traits@D@std@@V?$allocator@D@2@@std@@PAUggml_tensor@@@std@@@std@@@std@@@std@@QAE@PAU?$_Tree_node@U?$pair@$$CBV?$basic_string@DU?$char_traits@D@std@@V?$allocator@D@2@@std@@PAUggml_tensor@@@std@@PAX@1@PBV?$_Tree_val@U?$_Tree_simple_types@U?$pair@$$CBV?$basic_string@DU?$char_traits@D@std@@V?$allocator@D@2@@std@@PAUggml_tensor@@@std@@@std@@@1@@Z
	??0?$_Tree_iterator@V?$_Tree_val@U?$_Tree_simple_types@U?$pair@QAUggml_backend_buffer_type@@PAUggml_context@@@std@@@std@@@std@@@std@@QAE@PAU?$_Tree_node@U?$pair@QAUggml_backend_buffer_type@@PAUggml_context@@@std@@PAX@1@PBV?$_Tree_val@U?$_Tree_simple_types@U?$pair@QAUggml_backend_buffer_type@@PAUggml_context@@@std@@@std@@@1@@Z
	??0?$_Tree_temp_node_alloc@V?$allocator@U?$_Tree_node@HPAX@std@@@std@@@std@@QAE@AAV?$allocator@U?$_Tree_node@HPAX@std@@@1@@Z
	??0?$_Tree_temp_node_alloc@V?$allocator@U?$_Tree_node@U?$pair@$$CBHH@std@@PAX@std@@@std@@@std@@QAE@AAV?$allocator@U?$_Tree_node@U?$pair@$$CBHH@std@@PAX@std@@@1@@Z
	??0?$_Tree_temp_node_alloc@V?$allocator@U?$_Tree_node@U?$pair@$$CBHV?$basic_string@DU?$char_traits@D@std@@V?$allocator@D@2@@std@@@std@@PAX@std@@@std@@@std@@QAE@AAV?$allocator@U?$_Tree_node@U?$pair@$$CBHV?$basic_string@DU?$char_traits@D@std@@V?$allocator@D@2@@std@@@std@@PAX@std@@@1@@Z
	??0?$_Tree_temp_node_alloc@V?$allocator@U?$_Tree_node@U?$pair@$$CBV?$basic_string@DU?$char_traits@D@std@@V?$allocator@D@2@@std@@H@std@@PAX@std@@@std@@@std@@QAE@AAV?$allocator@U?$_Tree_node@U?$pair@$$CBV?$basic_string@DU?$char_traits@D@std@@V?$allocator@D@2@@std@@H@std@@PAX@std@@@1@@Z
	??0?$_Tree_temp_node_alloc@V?$allocator@U?$_Tree_node@U?$pair@$$CBV?$basic_string@DU?$char_traits@D@std@@V?$allocator@D@2@@std@@PAUggml_tensor@@@std@@PAX@std@@@std@@@std@@QAE@AAV?$allocator@U?$_Tree_node@U?$pair@$$CBV?$basic_string@DU?$char_traits@D@std@@V?$allocator@D@2@@std@@PAUggml_tensor@@@std@@PAX@std@@@1@@Z
	??0?$_Tree_temp_node_alloc@V?$allocator@U?$_Tree_node@U?$pair@$$CBV?$basic_string@DU?$char_traits@D@std@@V?$allocator@D@2@@std@@U?$pair@HV?$basic_string@DU?$char_traits@D@std@@V?$allocator@D@2@@std@@@2@@std@@PAX@std@@@std@@@std@@QAE@AAV?$allocator@U?$_Tree_node@U?$pair@$$CBV?$basic_string@DU?$char_traits@D@std@@V?$allocator@D@2@@std@@U?$pair@HV?$basic_string@DU?$char_traits@D@std@@V?$allocator@D@2@@std@@@2@@std@@PAX@std@@@1@@Z
	??0?$_Tree_temp_node_alloc@V?$allocator@U?$_Tree_node@U?$pair@$$CBW4asr_system@@V?$map@W4asr_tensor@@PBDU?$less@W4asr_tensor@@@std@@V?$allocator@U?$pair@$$CBW4asr_tensor@@PBD@std@@@3@@std@@@std@@PAX@std@@@std@@@std@@QAE@AAV?$allocator@U?$_Tree_node@U?$pair@$$CBW4asr_system@@V?$map@W4asr_tensor@@PBDU?$less@W4asr_tensor@@@std@@V?$allocator@U?$pair@$$CBW4asr_tensor@@PBD@std@@@3@@std@@@std@@PAX@std@@@1@@Z
	??0?$_Tree_temp_node_alloc@V?$allocator@U?$_Tree_node@U?$pair@$$CBW4asr_tensor@@PBD@std@@PAX@std@@@std@@@std@@QAE@AAV?$allocator@U?$_Tree_node@U?$pair@$$CBW4asr_tensor@@PBD@std@@PAX@std@@@1@@Z
	??0?$_Tree_temp_node_alloc@V?$allocator@U?$_Tree_node@U?$pair@$$CBW4asr_tensor@@W4ggml_op@@@std@@PAX@std@@@std@@@std@@QAE@AAV?$allocator@U?$_Tree_node@U?$pair@$$CBW4asr_tensor@@W4ggml_op@@@std@@PAX@std@@@1@@Z
	??0?$_Tree_temp_node_alloc@V?$allocator@U?$_Tree_node@U?$pair@$$CBW4e_model@@V?$basic_string@DU?$char_traits@D@std@@V?$allocator@D@2@@std@@@std@@PAX@std@@@std@@@std@@QAE@AAV?$allocator@U?$_Tree_node@U?$pair@$$CBW4e_model@@V?$basic_string@DU?$char_traits@D@std@@V?$allocator@D@2@@std@@@std@@PAX@std@@@1@@Z
	??0?$_Tree_temp_node_alloc@V?$allocator@U?$_Tree_node@U?$pair@$$CBW4vad_tensor@@PBD@std@@PAX@std@@@std@@@std@@QAE@AAV?$allocator@U?$_Tree_node@U?$pair@$$CBW4vad_tensor@@PBD@std@@PAX@std@@@1@@Z
	??0?$_Tree_temp_node_alloc@V?$allocator@U?$_Tree_node@U?$pair@$$CBW4vad_tensor@@W4ggml_op@@@std@@PAX@std@@@std@@@std@@QAE@AAV?$allocator@U?$_Tree_node@U?$pair@$$CBW4vad_tensor@@W4ggml_op@@@std@@PAX@std@@@1@@Z
	??0?$_Tree_temp_node_alloc@V?$allocator@U?$_Tree_node@U?$pair@$$CBW4whisper_alignment_heads_preset@@Uwhisper_aheads@@@std@@PAX@std@@@std@@@std@@QAE@AAV?$allocator@U?$_Tree_node@U?$pair@$$CBW4whisper_alignment_heads_preset@@Uwhisper_aheads@@@std@@PAX@std@@@1@@Z
	??0?$_Tree_temp_node_alloc@V?$allocator@U?$_Tree_node@U?$pair@QAUggml_backend_buffer_type@@PAUggml_context@@@std@@PAX@std@@@std@@@std@@QAE@AAV?$allocator@U?$_Tree_node@U?$pair@QAUggml_backend_buffer_type@@PAUggml_context@@@std@@PAX@std@@@1@@Z
	??0?$_Tree_unchecked_const_iterator@V?$_Tree_val@U?$_Tree_simple_types@H@std@@@std@@U_Iterator_base0@2@@std@@QAE@PAU?$_Tree_node@HPAX@1@PBV?$_Tree_val@U?$_Tree_simple_types@H@std@@@1@@Z
	??0?$_Tree_unchecked_const_iterator@V?$_Tree_val@U?$_Tree_simple_types@H@std@@@std@@U_Iterator_base12@2@@std@@QAE@$$QAV01@@Z
	??0?$_Tree_unchecked_const_iterator@V?$_Tree_val@U?$_Tree_simple_types@H@std@@@std@@U_Iterator_base12@2@@std@@QAE@PAU?$_Tree_node@HPAX@1@PBV?$_Tree_val@U?$_Tree_simple_types@H@std@@@1@@Z
	??0?$_Tree_unchecked_const_iterator@V?$_Tree_val@U?$_Tree_simple_types@U?$pair@$$CBHH@std@@@std@@@std@@U_Iterator_base0@2@@std@@QAE@PAU?$_Tree_node@U?$pair@$$CBHH@std@@PAX@1@PBV?$_Tree_val@U?$_Tree_simple_types@U?$pair@$$CBHH@std@@@std@@@1@@Z
	??0?$_Tree_unchecked_const_iterator@V?$_Tree_val@U?$_Tree_simple_types@U?$pair@$$CBV?$basic_string@DU?$char_traits@D@std@@V?$allocator@D@2@@std@@H@std@@@std@@@std@@U_Iterator_base0@2@@std@@QAE@PAU?$_Tree_node@U?$pair@$$CBV?$basic_string@DU?$char_traits@D@std@@V?$allocator@D@2@@std@@H@std@@PAX@1@PBV?$_Tree_val@U?$_Tree_simple_types@U?$pair@$$CBV?$basic_string@DU?$char_traits@D@std@@V?$allocator@D@2@@std@@H@std@@@std@@@1@@Z
	??0?$_Tree_unchecked_const_iterator@V?$_Tree_val@U?$_Tree_simple_types@U?$pair@$$CBV?$basic_string@DU?$char_traits@D@std@@V?$allocator@D@2@@std@@H@std@@@std@@@std@@U_Iterator_base12@2@@std@@QAE@PAU?$_Tree_node@U?$pair@$$CBV?$basic_string@DU?$char_traits@D@std@@V?$allocator@D@2@@std@@H@std@@PAX@1@PBV?$_Tree_val@U?$_Tree_simple_types@U?$pair@$$CBV?$basic_string@DU?$char_traits@D@std@@V?$allocator@D@2@@std@@H@std@@@std@@@1@@Z
	??0?$_Tree_unchecked_const_iterator@V?$_Tree_val@U?$_Tree_simple_types@U?$pair@$$CBV?$basic_string@DU?$char_traits@D@std@@V?$allocator@D@2@@std@@PAUggml_tensor@@@std@@@std@@@std@@U_Iterator_base12@2@@std@@QAE@PAU?$_Tree_node@U?$pair@$$CBV?$basic_string@DU?$char_traits@D@std@@V?$allocator@D@2@@std@@PAUggml_tensor@@@std@@PAX@1@PBV?$_Tree_val@U?$_Tree_simple_types@U?$pair@$$CBV?$basic_string@DU?$char_traits@D@std@@V?$allocator@D@2@@std@@PAUggml_tensor@@@std@@@std@@@1@@Z
	??0?$_Tree_unchecked_const_iterator@V?$_Tree_val@U?$_Tree_simple_types@U?$pair@$$CBV?$basic_string@DU?$char_traits@D@std@@V?$allocator@D@2@@std@@U?$pair@HV?$basic_string@DU?$char_traits@D@std@@V?$allocator@D@2@@std@@@2@@std@@@std@@@std@@U_Iterator_base0@2@@std@@QAE@PAU?$_Tree_node@U?$pair@$$CBV?$basic_string@DU?$char_traits@D@std@@V?$allocator@D@2@@std@@U?$pair@HV?$basic_string@DU?$char_traits@D@std@@V?$allocator@D@2@@std@@@2@@std@@PAX@1@PBV?$_Tree_val@U?$_Tree_simple_types@U?$pair@$$CBV?$basic_string@DU?$char_traits@D@std@@V?$allocator@D@2@@std@@U?$pair@HV?$basic_string@DU?$char_traits@D@std@@V?$allocator@D@2@@std@@@2@@std@@@std@@@1@@Z
	??0?$_Tree_unchecked_const_iterator@V?$_Tree_val@U?$_Tree_simple_types@U?$pair@$$CBW4asr_system@@V?$map@W4asr_tensor@@PBDU?$less@W4asr_tensor@@@std@@V?$allocator@U?$pair@$$CBW4asr_tensor@@PBD@std@@@3@@std@@@std@@@std@@@std@@U_Iterator_base0@2@@std@@QAE@PAU?$_Tree_node@U?$pair@$$CBW4asr_system@@V?$map@W4asr_tensor@@PBDU?$less@W4asr_tensor@@@std@@V?$allocator@U?$pair@$$CBW4asr_tensor@@PBD@std@@@3@@std@@@std@@PAX@1@PBV?$_Tree_val@U?$_Tree_simple_types@U?$pair@$$CBW4asr_system@@V?$map@W4asr_tensor@@PBDU?$less@W4asr_tensor@@@std@@V?$allocator@U?$pair@$$CBW4asr_tensor@@PBD@std@@@3@@std@@@std@@@std@@@1@@Z
	??0?$_Tree_unchecked_const_iterator@V?$_Tree_val@U?$_Tree_simple_types@U?$pair@$$CBW4asr_tensor@@PBD@std@@@std@@@std@@U_Iterator_base0@2@@std@@QAE@PAU?$_Tree_node@U?$pair@$$CBW4asr_tensor@@PBD@std@@PAX@1@PBV?$_Tree_val@U?$_Tree_simple_types@U?$pair@$$CBW4asr_tensor@@PBD@std@@@std@@@1@@Z
	??0?$_Tree_unchecked_const_iterator@V?$_Tree_val@U?$_Tree_simple_types@U?$pair@$$CBW4asr_tensor@@W4ggml_op@@@std@@@std@@@std@@U_Iterator_base0@2@@std@@QAE@PAU?$_Tree_node@U?$pair@$$CBW4asr_tensor@@W4ggml_op@@@std@@PAX@1@PBV?$_Tree_val@U?$_Tree_simple_types@U?$pair@$$CBW4asr_tensor@@W4ggml_op@@@std@@@std@@@1@@Z
	??0?$_Tree_unchecked_const_iterator@V?$_Tree_val@U?$_Tree_simple_types@U?$pair@$$CBW4e_model@@V?$basic_string@DU?$char_traits@D@std@@V?$allocator@D@2@@std@@@std@@@std@@@std@@U_Iterator_base0@2@@std@@QAE@PAU?$_Tree_node@U?$pair@$$CBW4e_model@@V?$basic_string@DU?$char_traits@D@std@@V?$allocator@D@2@@std@@@std@@PAX@1@PBV?$_Tree_val@U?$_Tree_simple_types@U?$pair@$$CBW4e_model@@V?$basic_string@DU?$char_traits@D@std@@V?$allocator@D@2@@std@@@std@@@std@@@1@@Z
	??0?$_Tree_unchecked_const_iterator@V?$_Tree_val@U?$_Tree_simple_types@U?$pair@$$CBW4vad_tensor@@PBD@std@@@std@@@std@@U_Iterator_base0@2@@std@@QAE@PAU?$_Tree_node@U?$pair@$$CBW4vad_tensor@@PBD@std@@PAX@1@PBV?$_Tree_val@U?$_Tree_simple_types@U?$pair@$$CBW4vad_tensor@@PBD@std@@@std@@@1@@Z
	??0?$_Tree_unchecked_const_iterator@V?$_Tree_val@U?$_Tree_simple_types@U?$pair@$$CBW4vad_tensor@@W4ggml_op@@@std@@@std@@@std@@U_Iterator_base0@2@@std@@QAE@PAU?$_Tree_node@U?$pair@$$CBW4vad_tensor@@W4ggml_op@@@std@@PAX@1@PBV?$_Tree_val@U?$_Tree_simple_types@U?$pair@$$CBW4vad_tensor@@W4ggml_op@@@std@@@std@@@1@@Z
	??0?$_Tree_unchecked_const_iterator@V?$_Tree_val@U?$_Tree_simple_types@U?$pair@$$CBW4whisper_alignment_heads_preset@@Uwhisper_aheads@@@std@@@std@@@std@@U_Iterator_base0@2@@std@@QAE@PAU?$_Tree_node@U?$pair@$$CBW4whisper_alignment_heads_preset@@Uwhisper_aheads@@@std@@PAX@1@PBV?$_Tree_val@U?$_Tree_simple_types@U?$pair@$$CBW4whisper_alignment_heads_preset@@Uwhisper_aheads@@@std@@@std@@@1@@Z
	??0?$_Tree_unchecked_const_iterator@V?$_Tree_val@U?$_Tree_simple_types@U?$pair@QAUggml_backend_buffer_type@@PAUggml_context@@@std@@@std@@@std@@U_Iterator_base0@2@@std@@QAE@PAU?$_Tree_node@U?$pair@QAUggml_backend_buffer_type@@PAUggml_context@@@std@@PAX@1@PBV?$_Tree_val@U?$_Tree_simple_types@U?$pair@QAUggml_backend_buffer_type@@PAUggml_context@@@std@@@std@@@1@@Z
	??0?$_Tree_unchecked_const_iterator@V?$_Tree_val@U?$_Tree_simple_types@U?$pair@QAUggml_backend_buffer_type@@PAUggml_context@@@std@@@std@@@std@@U_Iterator_base12@2@@std@@QAE@PAU?$_Tree_node@U?$pair@QAUggml_backend_buffer_type@@PAUggml_context@@@std@@PAX@1@PBV?$_Tree_val@U?$_Tree_simple_types@U?$pair@QAUggml_backend_buffer_type@@PAUggml_context@@@std@@@std@@@1@@Z
	??0?$_Tree_unchecked_iterator@V?$_Tree_val@U?$_Tree_simple_types@U?$pair@$$CBHH@std@@@std@@@std@@@std@@QAE@PAU?$_Tree_node@U?$pair@$$CBHH@std@@PAX@1@PBV?$_Tree_val@U?$_Tree_simple_types@U?$pair@$$CBHH@std@@@std@@@1@@Z
	??0?$_Tree_unchecked_iterator@V?$_Tree_val@U?$_Tree_simple_types@U?$pair@QAUggml_backend_buffer_type@@PAUggml_context@@@std@@@std@@@std@@@std@@QAE@PAU?$_Tree_node@U?$pair@QAUggml_backend_buffer_type@@PAUggml_context@@@std@@PAX@1@PBV?$_Tree_val@U?$_Tree_simple_types@U?$pair@QAUggml_backend_buffer_type@@PAUggml_context@@@std@@@std@@@1@@Z
	??0?$_Tree_val@U?$_Tree_simple_types@H@std@@@std@@QAE@XZ
	??0?$_Tree_val@U?$_Tree_simple_types@U?$pair@$$CBHH@std@@@std@@@std@@QAE@XZ
	??0?$_Tree_val@U?$_Tree_simple_types@U?$pair@$$CBHV?$basic_string@DU?$char_traits@D@std@@V?$allocator@D@2@@std@@@std@@@std@@@std@@QAE@XZ
	??0?$_Tree_val@U?$_Tree_simple_types@U?$pair@$$CBV?$basic_string@DU?$char_traits@D@std@@V?$allocator@D@2@@std@@H@std@@@std@@@std@@QAE@XZ
	??0?$_Tree_val@U?$_Tree_simple_types@U?$pair@$$CBV?$basic_string@DU?$char_traits@D@std@@V?$allocator@D@2@@std@@PAUggml_tensor@@@std@@@std@@@std@@QAE@XZ
	??0?$_Tree_val@U?$_Tree_simple_types@U?$pair@$$CBV?$basic_string@DU?$char_traits@D@std@@V?$allocator@D@2@@std@@U?$pair@HV?$basic_string@DU?$char_traits@D@std@@V?$allocator@D@2@@std@@@2@@std@@@std@@@std@@QAE@XZ
	??0?$_Tree_val@U?$_Tree_simple_types@U?$pair@$$CBW4asr_system@@V?$map@W4asr_tensor@@PBDU?$less@W4asr_tensor@@@std@@V?$allocator@U?$pair@$$CBW4asr_tensor@@PBD@std@@@3@@std@@@std@@@std@@@std@@QAE@XZ
	??0?$_Tree_val@U?$_Tree_simple_types@U?$pair@$$CBW4asr_tensor@@PBD@std@@@std@@@std@@QAE@XZ
	??0?$_Tree_val@U?$_Tree_simple_types@U?$pair@$$CBW4asr_tensor@@W4ggml_op@@@std@@@std@@@std@@QAE@XZ
	??0?$_Tree_val@U?$_Tree_simple_types@U?$pair@$$CBW4e_model@@V?$basic_string@DU?$char_traits@D@std@@V?$allocator@D@2@@std@@@std@@@std@@@std@@QAE@XZ
	??0?$_Tree_val@U?$_Tree_simple_types@U?$pair@$$CBW4vad_tensor@@PBD@std@@@std@@@std@@QAE@XZ
	??0?$_Tree_val@U?$_Tree_simple_types@U?$pair@$$CBW4vad_tensor@@W4ggml_op@@@std@@@std@@@std@@QAE@XZ
	??0?$_Tree_val@U?$_Tree_simple_types@U?$pair@$$CBW4whisper_alignment_heads_preset@@Uwhisper_aheads@@@std@@@std@@@std@@QAE@XZ
	??0?$_Tree_val@U?$_Tree_simple_types@U?$pair@QAUggml_backend_buffer_type@@PAUggml_context@@@std@@@std@@@std@@QAE@XZ
	??0?$_Uninitialized_backout_al@V?$allocator@D@std@@@std@@QAE@PADAAV?$allocator@D@1@@Z
	??0?$_Uninitialized_backout_al@V?$allocator@E@std@@@std@@QAE@PAEAAV?$allocator@E@1@@Z
	??0?$_Uninitialized_backout_al@V?$allocator@H@std@@@std@@QAE@PAHAAV?$allocator@H@1@@Z
	??0?$_Uninitialized_backout_al@V?$allocator@I@std@@@std@@QAE@PAIAAV?$allocator@I@1@@Z
	??0?$_Uninitialized_backout_al@V?$allocator@M@std@@@std@@QAE@PAMAAV?$allocator@M@1@@Z
	??0?$_Uninitialized_backout_al@V?$allocator@N@std@@@std@@QAE@PANAAV?$allocator@N@1@@Z
	??0?$_Uninitialized_backout_al@V?$allocator@PAUggml_backend@@@std@@@std@@QAE@PAPAUggml_backend@@AAV?$allocator@PAUggml_backend@@@1@@Z
	??0?$_Uninitialized_backout_al@V?$allocator@PAUggml_backend_buffer@@@std@@@std@@QAE@PAPAUggml_backend_buffer@@AAV?$allocator@PAUggml_backend_buffer@@@1@@Z
	??0?$_Uninitialized_backout_al@V?$allocator@PAUggml_context@@@std@@@std@@QAE@PAPAUggml_context@@AAV?$allocator@PAUggml_context@@@1@@Z
	??0?$_Uninitialized_backout_al@V?$allocator@PAUggml_tensor@@@std@@@std@@QAE@PAPAUggml_tensor@@AAV?$allocator@PAUggml_tensor@@@1@@Z
	??0?$_Uninitialized_backout_al@V?$allocator@PAUwhisper_state@@@std@@@std@@QAE@PAPAUwhisper_state@@AAV?$allocator@PAUwhisper_state@@@1@@Z
	??0?$_Uninitialized_backout_al@V?$allocator@PBUwhisper_grammar_element@@@std@@@std@@QAE@PAPBUwhisper_grammar_element@@AAV?$allocator@PBUwhisper_grammar_element@@@1@@Z
	??0?$_Uninitialized_backout_al@V?$allocator@U?$pair@PAUggml_backend_device@@PAUggml_backend_buffer_type@@@std@@@std@@@std@@QAE@PAU?$pair@PAUggml_backend_device@@PAUggml_backend_buffer_type@@@1@AAV?$allocator@U?$pair@PAUggml_backend_device@@PAUggml_backend_buffer_type@@@std@@@1@@Z
	??0?$_Uninitialized_backout_al@V?$allocator@U?$pair@V?$vector@IV?$allocator@I@std@@@std@@Uwhisper_partial_utf8@@@std@@@std@@@std@@QAE@PAU?$pair@V?$vector@IV?$allocator@I@std@@@std@@Uwhisper_partial_utf8@@@1@AAV?$allocator@U?$pair@V?$vector@IV?$allocator@I@std@@@std@@Uwhisper_partial_utf8@@@std@@@1@@Z
	??0?$_Uninitialized_backout_al@V?$allocator@U?$whisper_pair@NH@@@std@@@std@@QAE@PAU?$whisper_pair@NH@@AAV?$allocator@U?$whisper_pair@NH@@@1@@Z
	??0?$_Uninitialized_backout_al@V?$allocator@U_Grp_t@?$_Tgt_state_t@PBD@std@@@std@@@std@@QAE@PAU_Grp_t@?$_Tgt_state_t@PBD@1@AAV?$allocator@U_Grp_t@?$_Tgt_state_t@PBD@std@@@1@@Z
	??0?$_Uninitialized_backout_al@V?$allocator@U_Grp_t@?$_Tgt_state_t@V?$_String_const_iterator@V?$_String_val@U?$_Simple_types@D@std@@@std@@@std@@@std@@@std@@@std@@QAE@PAU_Grp_t@?$_Tgt_state_t@V?$_String_const_iterator@V?$_String_val@U?$_Simple_types@D@std@@@std@@@std@@@1@AAV?$allocator@U_Grp_t@?$_Tgt_state_t@V?$_String_const_iterator@V?$_String_val@U?$_Simple_types@D@std@@@std@@@std@@@std@@@1@@Z
	??0?$_Uninitialized_backout_al@V?$allocator@U_Loop_vals_t@std@@@std@@@std@@QAE@PAU_Loop_vals_t@1@AAV?$allocator@U_Loop_vals_t@std@@@1@@Z
	??0?$_Uninitialized_backout_al@V?$allocator@Uvad_segment_info@whisper_state@@@std@@@std@@QAE@PAUvad_segment_info@whisper_state@@AAV?$allocator@Uvad_segment_info@whisper_state@@@1@@Z
	??0?$_Uninitialized_backout_al@V?$allocator@Uvad_time_mapping@@@std@@@std@@QAE@PAUvad_time_mapping@@AAV?$allocator@Uvad_time_mapping@@@1@@Z
	??0?$_Uninitialized_backout_al@V?$allocator@Uwhisper_grammar_candidate@@@std@@@std@@QAE@PAUwhisper_grammar_candidate@@AAV?$allocator@Uwhisper_grammar_candidate@@@1@@Z
	??0?$_Uninitialized_backout_al@V?$allocator@Uwhisper_grammar_element@@@std@@@std@@QAE@PAUwhisper_grammar_element@@AAV?$allocator@Uwhisper_grammar_element@@@1@@Z
	??0?$_Uninitialized_backout_al@V?$allocator@Uwhisper_kv_cell@@@std@@@std@@QAE@PAUwhisper_kv_cell@@AAV?$allocator@Uwhisper_kv_cell@@@1@@Z
	??0?$_Uninitialized_backout_al@V?$allocator@Uwhisper_layer_decoder@@@std@@@std@@QAE@PAUwhisper_layer_decoder@@AAV?$allocator@Uwhisper_layer_decoder@@@1@@Z
	??0?$_Uninitialized_backout_al@V?$allocator@Uwhisper_layer_encoder@@@std@@@std@@QAE@PAUwhisper_layer_encoder@@AAV?$allocator@Uwhisper_layer_encoder@@@1@@Z
	??0?$_Uninitialized_backout_al@V?$allocator@Uwhisper_segment@@@std@@@std@@QAE@PAUwhisper_segment@@AAV?$allocator@Uwhisper_segment@@@1@@Z
	??0?$_Uninitialized_backout_al@V?$allocator@Uwhisper_token_data@@@std@@@std@@QAE@PAUwhisper_token_data@@AAV?$allocator@Uwhisper_token_data@@@1@@Z
	??0?$_Uninitialized_backout_al@V?$allocator@Uwhisper_vad_segment@@@std@@@std@@QAE@PAUwhisper_vad_segment@@AAV?$allocator@Uwhisper_vad_segment@@@1@@Z
	??0?$_Uninitialized_backout_al@V?$allocator@V?$basic_string@DU?$char_traits@D@std@@V?$allocator@D@2@@std@@@std@@@std@@QAE@PAV?$basic_string@DU?$char_traits@D@std@@V?$allocator@D@2@@1@AAV?$allocator@V?$basic_string@DU?$char_traits@D@std@@V?$allocator@D@2@@std@@@1@@Z
	??0?$_Uninitialized_backout_al@V?$allocator@V?$sub_match@PBD@std@@@std@@@std@@QAE@PAV?$sub_match@PBD@1@AAV?$allocator@V?$sub_match@PBD@std@@@1@@Z
	??0?$_Uninitialized_backout_al@V?$allocator@V?$sub_match@V?$_String_const_iterator@V?$_String_val@U?$_Simple_types@D@std@@@std@@@std@@@std@@@std@@@std@@QAE@PAV?$sub_match@V?$_String_const_iterator@V?$_String_val@U?$_Simple_types@D@std@@@std@@@std@@@1@AAV?$allocator@V?$sub_match@V?$_String_const_iterator@V?$_String_val@U?$_Simple_types@D@std@@@std@@@std@@@std@@@1@@Z
	??0?$_Uninitialized_backout_al@V?$allocator@V?$vector@PBUwhisper_grammar_element@@V?$allocator@PBUwhisper_grammar_element@@@std@@@std@@@std@@@std@@QAE@PAV?$vector@PBUwhisper_grammar_element@@V?$allocator@PBUwhisper_grammar_element@@@std@@@1@AAV?$allocator@V?$vector@PBUwhisper_grammar_element@@V?$allocator@PBUwhisper_grammar_element@@@std@@@std@@@1@@Z
	??0?$_Uninitialized_backout_al@V?$allocator@V?$vector@Uwhisper_grammar_element@@V?$allocator@Uwhisper_grammar_element@@@std@@@std@@@std@@@std@@QAE@PAV?$vector@Uwhisper_grammar_element@@V?$allocator@Uwhisper_grammar_element@@@std@@@1@AAV?$allocator@V?$vector@Uwhisper_grammar_element@@V?$allocator@Uwhisper_grammar_element@@@std@@@std@@@1@@Z
	??0?$_Uninitialized_backout_al@V?$allocator@Vthread@std@@@std@@@std@@QAE@PAVthread@1@AAV?$allocator@Vthread@std@@@1@@Z
	??0?$_Vb_const_iterator@U?$_Wrap_alloc@V?$allocator@I@std@@@std@@@std@@QAE@$$QAV01@@Z
	??0?$_Vb_const_iterator@U?$_Wrap_alloc@V?$allocator@I@std@@@std@@@std@@QAE@ABV01@@Z
	??0?$_Vb_const_iterator@U?$_Wrap_alloc@V?$allocator@I@std@@@std@@@std@@QAE@PBIPBU_Container_base12@1@@Z
	??0?$_Vb_iter_base@U?$_Wrap_alloc@V?$allocator@I@std@@@std@@@std@@QAE@$$QAV01@@Z
	??0?$_Vb_iter_base@U?$_Wrap_alloc@V?$allocator@I@std@@@std@@@std@@QAE@ABV01@@Z
	??0?$_Vb_iter_base@U?$_Wrap_alloc@V?$allocator@I@std@@@std@@@std@@QAE@PBIIPBU_Container_base12@1@@Z
	??0?$_Vb_iterator@U?$_Wrap_alloc@V?$allocator@I@std@@@std@@@std@@QAE@$$QAV01@@Z
	??0?$_Vb_iterator@U?$_Wrap_alloc@V?$allocator@I@std@@@std@@@std@@QAE@ABV01@@Z
	??0?$_Vb_iterator@U?$_Wrap_alloc@V?$allocator@I@std@@@std@@@std@@QAE@PBIPBU_Container_base12@1@@Z
	??0?$_Vb_reference@U?$_Wrap_alloc@V?$allocator@I@std@@@std@@@std@@QAE@ABV?$_Vb_iter_base@U?$_Wrap_alloc@V?$allocator@I@std@@@std@@@1@@Z
	??0?$_Vb_val@V?$allocator@_N@std@@@std@@QAE@ABV01@@Z
	??0?$_Vb_val@V?$allocator@_N@std@@@std@@QAE@IAB_NABV?$allocator@_N@1@@Z
	??0?$_Vb_val@V?$allocator@_N@std@@@std@@QAE@XZ
	??0?$_Vector_const_iterator@V?$_Vector_val@U?$_Simple_types@H@std@@@std@@@std@@QAE@$$QAV01@@Z
	??0?$_Vector_const_iterator@V?$_Vector_val@U?$_Simple_types@H@std@@@std@@@std@@QAE@ABV01@@Z
	??0?$_Vector_const_iterator@V?$_Vector_val@U?$_Simple_types@H@std@@@std@@@std@@QAE@PAHPBU_Container_base12@1@@Z
	??0?$_Vector_const_iterator@V?$_Vector_val@U?$_Simple_types@I@std@@@std@@@std@@QAE@$$QAV01@@Z
	??0?$_Vector_const_iterator@V?$_Vector_val@U?$_Simple_types@I@std@@@std@@@std@@QAE@ABV01@@Z
	??0?$_Vector_const_iterator@V?$_Vector_val@U?$_Simple_types@I@std@@@std@@@std@@QAE@PAIPBU_Container_base12@1@@Z
	??0?$_Vector_const_iterator@V?$_Vector_val@U?$_Simple_types@M@std@@@std@@@std@@QAE@$$QAV01@@Z
	??0?$_Vector_const_iterator@V?$_Vector_val@U?$_Simple_types@M@std@@@std@@@std@@QAE@ABV01@@Z
	??0?$_Vector_const_iterator@V?$_Vector_val@U?$_Simple_types@M@std@@@std@@@std@@QAE@PAMPBU_Container_base12@1@@Z
	??0?$_Vector_const_iterator@V?$_Vector_val@U?$_Simple_types@N@std@@@std@@@std@@QAE@$$QAV01@@Z
	??0?$_Vector_const_iterator@V?$_Vector_val@U?$_Simple_types@N@std@@@std@@@std@@QAE@ABV01@@Z
	??0?$_Vector_const_iterator@V?$_Vector_val@U?$_Simple_types@N@std@@@std@@@std@@QAE@PANPBU_Container_base12@1@@Z
	??0?$_Vector_const_iterator@V?$_Vector_val@U?$_Simple_types@PBUwhisper_grammar_element@@@std@@@std@@@std@@QAE@$$QAV01@@Z
	??0?$_Vector_const_iterator@V?$_Vector_val@U?$_Simple_types@PBUwhisper_grammar_element@@@std@@@std@@@std@@QAE@ABV01@@Z
	??0?$_Vector_const_iterator@V?$_Vector_val@U?$_Simple_types@PBUwhisper_grammar_element@@@std@@@std@@@std@@QAE@PAPBUwhisper_grammar_element@@PBU_Container_base12@1@@Z
	??0?$_Vector_const_iterator@V?$_Vector_val@U?$_Simple_types@U?$whisper_pair@NH@@@std@@@std@@@std@@QAE@$$QAV01@@Z
	??0?$_Vector_const_iterator@V?$_Vector_val@U?$_Simple_types@U?$whisper_pair@NH@@@std@@@std@@@std@@QAE@ABV01@@Z
	??0?$_Vector_const_iterator@V?$_Vector_val@U?$_Simple_types@U?$whisper_pair@NH@@@std@@@std@@@std@@QAE@PAU?$whisper_pair@NH@@PBU_Container_base12@1@@Z
	??0?$_Vector_const_iterator@V?$_Vector_val@U?$_Simple_types@Uvad_time_mapping@@@std@@@std@@@std@@QAE@$$QAV01@@Z
	??0?$_Vector_const_iterator@V?$_Vector_val@U?$_Simple_types@Uvad_time_mapping@@@std@@@std@@@std@@QAE@ABV01@@Z
	??0?$_Vector_const_iterator@V?$_Vector_val@U?$_Simple_types@Uvad_time_mapping@@@std@@@std@@@std@@QAE@PAUvad_time_mapping@@PBU_Container_base12@1@@Z
	??0?$_Vector_const_iterator@V?$_Vector_val@U?$_Simple_types@Uwhisper_segment@@@std@@@std@@@std@@QAE@$$QAV01@@Z
	??0?$_Vector_const_iterator@V?$_Vector_val@U?$_Simple_types@Uwhisper_segment@@@std@@@std@@@std@@QAE@ABV01@@Z
	??0?$_Vector_const_iterator@V?$_Vector_val@U?$_Simple_types@Uwhisper_segment@@@std@@@std@@@std@@QAE@PAUwhisper_segment@@PBU_Container_base12@1@@Z
	??0?$_Vector_const_iterator@V?$_Vector_val@U?$_Simple_types@Uwhisper_token_data@@@std@@@std@@@std@@QAE@$$QAV01@@Z
	??0?$_Vector_const_iterator@V?$_Vector_val@U?$_Simple_types@Uwhisper_token_data@@@std@@@std@@@std@@QAE@ABV01@@Z
	??0?$_Vector_const_iterator@V?$_Vector_val@U?$_Simple_types@Uwhisper_token_data@@@std@@@std@@@std@@QAE@PAUwhisper_token_data@@PBU_Container_base12@1@@Z
	??0?$_Vector_iterator@V?$_Vector_val@U?$_Simple_types@H@std@@@std@@@std@@QAE@$$QAV01@@Z
	??0?$_Vector_iterator@V?$_Vector_val@U?$_Simple_types@H@std@@@std@@@std@@QAE@ABV01@@Z
	??0?$_Vector_iterator@V?$_Vector_val@U?$_Simple_types@H@std@@@std@@@std@@QAE@PAHPBU_Container_base12@1@@Z
	??0?$_Vector_iterator@V?$_Vector_val@U?$_Simple_types@I@std@@@std@@@std@@QAE@$$QAV01@@Z
	??0?$_Vector_iterator@V?$_Vector_val@U?$_Simple_types@I@std@@@std@@@std@@QAE@ABV01@@Z
	??0?$_Vector_iterator@V?$_Vector_val@U?$_Simple_types@I@std@@@std@@@std@@QAE@PAIPBU_Container_base12@1@@Z
	??0?$_Vector_iterator@V?$_Vector_val@U?$_Simple_types@M@std@@@std@@@std@@QAE@$$QAV01@@Z
	??0?$_Vector_iterator@V?$_Vector_val@U?$_Simple_types@M@std@@@std@@@std@@QAE@ABV01@@Z
	??0?$_Vector_iterator@V?$_Vector_val@U?$_Simple_types@M@std@@@std@@@std@@QAE@PAMPBU_Container_base12@1@@Z
	??0?$_Vector_iterator@V?$_Vector_val@U?$_Simple_types@U?$whisper_pair@NH@@@std@@@std@@@std@@QAE@$$QAV01@@Z
	??0?$_Vector_iterator@V?$_Vector_val@U?$_Simple_types@U?$whisper_pair@NH@@@std@@@std@@@std@@QAE@ABV01@@Z
	??0?$_Vector_iterator@V?$_Vector_val@U?$_Simple_types@U?$whisper_pair@NH@@@std@@@std@@@std@@QAE@PAU?$whisper_pair@NH@@PBU_Container_base12@1@@Z
	??0?$_Vector_iterator@V?$_Vector_val@U?$_Simple_types@Uvad_time_mapping@@@std@@@std@@@std@@QAE@$$QAV01@@Z
	??0?$_Vector_iterator@V?$_Vector_val@U?$_Simple_types@Uvad_time_mapping@@@std@@@std@@@std@@QAE@PAUvad_time_mapping@@PBU_Container_base12@1@@Z
	??0?$_Vector_iterator@V?$_Vector_val@U?$_Simple_types@Uwhisper_segment@@@std@@@std@@@std@@QAE@$$QAV01@@Z
	??0?$_Vector_iterator@V?$_Vector_val@U?$_Simple_types@Uwhisper_segment@@@std@@@std@@@std@@QAE@ABV01@@Z
	??0?$_Vector_iterator@V?$_Vector_val@U?$_Simple_types@Uwhisper_segment@@@std@@@std@@@std@@QAE@PAUwhisper_segment@@PBU_Container_base12@1@@Z
	??0?$_Vector_iterator@V?$_Vector_val@U?$_Simple_types@Uwhisper_token_data@@@std@@@std@@@std@@QAE@$$QAV01@@Z
	??0?$_Vector_iterator@V?$_Vector_val@U?$_Simple_types@Uwhisper_token_data@@@std@@@std@@@std@@QAE@ABV01@@Z
	??0?$_Vector_iterator@V?$_Vector_val@U?$_Simple_types@Uwhisper_token_data@@@std@@@std@@@std@@QAE@PAUwhisper_token_data@@PBU_Container_base12@1@@Z
	??0?$_Vector_val@U?$_Simple_types@D@std@@@std@@QAE@XZ
	??0?$_Vector_val@U?$_Simple_types@E@std@@@std@@QAE@XZ
	??0?$_Vector_val@U?$_Simple_types@H@std@@@std@@QAE@PAH00@Z
	??0?$_Vector_val@U?$_Simple_types@H@std@@@std@@QAE@XZ
	??0?$_Vector_val@U?$_Simple_types@I@std@@@std@@QAE@PAI00@Z
	??0?$_Vector_val@U?$_Simple_types@I@std@@@std@@QAE@XZ
	??0?$_Vector_val@U?$_Simple_types@M@std@@@std@@QAE@PAM00@Z
	??0?$_Vector_val@U?$_Simple_types@M@std@@@std@@QAE@XZ
	??0?$_Vector_val@U?$_Simple_types@N@std@@@std@@QAE@XZ
	??0?$_Vector_val@U?$_Simple_types@PAUggml_backend@@@std@@@std@@QAE@PAPAUggml_backend@@00@Z
	??0?$_Vector_val@U?$_Simple_types@PAUggml_backend@@@std@@@std@@QAE@XZ
	??0?$_Vector_val@U?$_Simple_types@PAUggml_backend_buffer@@@std@@@std@@QAE@XZ
	??0?$_Vector_val@U?$_Simple_types@PAUggml_context@@@std@@@std@@QAE@XZ
	??0?$_Vector_val@U?$_Simple_types@PAUggml_tensor@@@std@@@std@@QAE@XZ
	??0?$_Vector_val@U?$_Simple_types@PAUwhisper_state@@@std@@@std@@QAE@XZ
	??0?$_Vector_val@U?$_Simple_types@PBUwhisper_grammar_element@@@std@@@std@@QAE@PAPBUwhisper_grammar_element@@00@Z
	??0?$_Vector_val@U?$_Simple_types@PBUwhisper_grammar_element@@@std@@@std@@QAE@XZ
	??0?$_Vector_val@U?$_Simple_types@U?$pair@PAUggml_backend_device@@PAUggml_backend_buffer_type@@@std@@@std@@@std@@QAE@PAU?$pair@PAUggml_backend_device@@PAUggml_backend_buffer_type@@@1@00@Z
	??0?$_Vector_val@U?$_Simple_types@U?$pair@PAUggml_backend_device@@PAUggml_backend_buffer_type@@@std@@@std@@@std@@QAE@XZ
	??0?$_Vector_val@U?$_Simple_types@U?$pair@V?$vector@IV?$allocator@I@std@@@std@@Uwhisper_partial_utf8@@@std@@@std@@@std@@QAE@XZ
	??0?$_Vector_val@U?$_Simple_types@U?$whisper_pair@NH@@@std@@@std@@QAE@XZ
	??0?$_Vector_val@U?$_Simple_types@U_Grp_t@?$_Tgt_state_t@PBD@std@@@std@@@std@@QAE@XZ
	??0?$_Vector_val@U?$_Simple_types@U_Grp_t@?$_Tgt_state_t@V?$_String_const_iterator@V?$_String_val@U?$_Simple_types@D@std@@@std@@@std@@@std@@@std@@@std@@QAE@XZ
	??0?$_Vector_val@U?$_Simple_types@U_Loop_vals_t@std@@@std@@@std@@QAE@XZ
	??0?$_Vector_val@U?$_Simple_types@Uvad_segment_info@whisper_state@@@std@@@std@@QAE@XZ
	??0?$_Vector_val@U?$_Simple_types@Uvad_time_mapping@@@std@@@std@@QAE@XZ
	??0?$_Vector_val@U?$_Simple_types@Uwhisper_grammar_candidate@@@std@@@std@@QAE@PAUwhisper_grammar_candidate@@00@Z
	??0?$_Vector_val@U?$_Simple_types@Uwhisper_grammar_candidate@@@std@@@std@@QAE@XZ
	??0?$_Vector_val@U?$_Simple_types@Uwhisper_grammar_element@@@std@@@std@@QAE@XZ
	??0?$_Vector_val@U?$_Simple_types@Uwhisper_kv_cell@@@std@@@std@@QAE@XZ
	??0?$_Vector_val@U?$_Simple_types@Uwhisper_layer_decoder@@@std@@@std@@QAE@XZ
	??0?$_Vector_val@U?$_Simple_types@Uwhisper_layer_encoder@@@std@@@std@@QAE@XZ
	??0?$_Vector_val@U?$_Simple_types@Uwhisper_segment@@@std@@@std@@QAE@XZ
	??0?$_Vector_val@U?$_Simple_types@Uwhisper_token_data@@@std@@@std@@QAE@PAUwhisper_token_data@@00@Z
	??0?$_Vector_val@U?$_Simple_types@Uwhisper_token_data@@@std@@@std@@QAE@XZ
	??0?$_Vector_val@U?$_Simple_types@Uwhisper_vad_segment@@@std@@@std@@QAE@XZ
	??0?$_Vector_val@U?$_Simple_types@V?$basic_string@DU?$char_traits@D@std@@V?$allocator@D@2@@std@@@std@@@std@@QAE@XZ
	??0?$_Vector_val@U?$_Simple_types@V?$sub_match@V?$_String_const_iterator@V?$_String_val@U?$_Simple_types@D@std@@@std@@@std@@@std@@@std@@@std@@QAE@XZ
	??0?$_Vector_val@U?$_Simple_types@V?$vector@PBUwhisper_grammar_element@@V?$allocator@PBUwhisper_grammar_element@@@std@@@std@@@std@@@std@@QAE@PAV?$vector@PBUwhisper_grammar_element@@V?$allocator@PBUwhisper_grammar_element@@@std@@@1@00@Z
	??0?$_Vector_val@U?$_Simple_types@V?$vector@PBUwhisper_grammar_element@@V?$allocator@PBUwhisper_grammar_element@@@std@@@std@@@std@@@std@@QAE@XZ
	??0?$_Vector_val@U?$_Simple_types@V?$vector@Uwhisper_grammar_element@@V?$allocator@Uwhisper_grammar_element@@@std@@@std@@@std@@@std@@QAE@PAV?$vector@Uwhisper_grammar_element@@V?$allocator@Uwhisper_grammar_element@@@std@@@1@00@Z
	??0?$_Vector_val@U?$_Simple_types@V?$vector@Uwhisper_grammar_element@@V?$allocator@Uwhisper_grammar_element@@@std@@@std@@@std@@@std@@QAE@XZ
	??0?$_Vector_val@U?$_Simple_types@Vthread@std@@@std@@@std@@QAE@XZ
	??0?$allocator@D@std@@QAE@XZ
	??0?$allocator@E@std@@QAE@XZ
	??0?$allocator@H@std@@QAE@XZ
	??0?$allocator@I@std@@QAE@XZ
	??0?$allocator@M@std@@QAE@XZ
	??0?$allocator@N@std@@QAE@XZ
	??0?$allocator@PAUggml_backend@@@std@@QAE@XZ
	??0?$allocator@PAUggml_backend_buffer@@@std@@QAE@XZ
	??0?$allocator@PAUggml_context@@@std@@QAE@XZ
	??0?$allocator@PAUggml_tensor@@@std@@QAE@XZ
	??0?$allocator@PAUwhisper_state@@@std@@QAE@XZ
	??0?$allocator@PBUwhisper_grammar_element@@@std@@QAE@XZ
	??0?$allocator@U?$_Tree_node@HPAX@std@@@std@@QAE@XZ
	??0?$allocator@U?$_Tree_node@U?$pair@$$CBHH@std@@PAX@std@@@std@@QAE@XZ
	??0?$allocator@U?$_Tree_node@U?$pair@$$CBHV?$basic_string@DU?$char_traits@D@std@@V?$allocator@D@2@@std@@@std@@PAX@std@@@std@@QAE@XZ
	??0?$allocator@U?$_Tree_node@U?$pair@$$CBV?$basic_string@DU?$char_traits@D@std@@V?$allocator@D@2@@std@@H@std@@PAX@std@@@std@@QAE@XZ
	??0?$allocator@U?$_Tree_node@U?$pair@$$CBV?$basic_string@DU?$char_traits@D@std@@V?$allocator@D@2@@std@@PAUggml_tensor@@@std@@PAX@std@@@std@@QAE@XZ
	??0?$allocator@U?$_Tree_node@U?$pair@$$CBV?$basic_string@DU?$char_traits@D@std@@V?$allocator@D@2@@std@@U?$pair@HV?$basic_string@DU?$char_traits@D@std@@V?$allocator@D@2@@std@@@2@@std@@PAX@std@@@std@@QAE@XZ
	??0?$allocator@U?$_Tree_node@U?$pair@$$CBW4asr_system@@V?$map@W4asr_tensor@@PBDU?$less@W4asr_tensor@@@std@@V?$allocator@U?$pair@$$CBW4asr_tensor@@PBD@std@@@3@@std@@@std@@PAX@std@@@std@@QAE@XZ
	??0?$allocator@U?$_Tree_node@U?$pair@$$CBW4asr_tensor@@PBD@std@@PAX@std@@@std@@QAE@XZ
	??0?$allocator@U?$_Tree_node@U?$pair@$$CBW4asr_tensor@@W4ggml_op@@@std@@PAX@std@@@std@@QAE@XZ
	??0?$allocator@U?$_Tree_node@U?$pair@$$CBW4e_model@@V?$basic_string@DU?$char_traits@D@std@@V?$allocator@D@2@@std@@@std@@PAX@std@@@std@@QAE@XZ
	??0?$allocator@U?$_Tree_node@U?$pair@$$CBW4vad_tensor@@PBD@std@@PAX@std@@@std@@QAE@XZ
	??0?$allocator@U?$_Tree_node@U?$pair@$$CBW4vad_tensor@@W4ggml_op@@@std@@PAX@std@@@std@@QAE@XZ
	??0?$allocator@U?$_Tree_node@U?$pair@$$CBW4whisper_alignment_heads_preset@@Uwhisper_aheads@@@std@@PAX@std@@@std@@QAE@XZ
	??0?$allocator@U?$_Tree_node@U?$pair@QAUggml_backend_buffer_type@@PAUggml_context@@@std@@PAX@std@@@std@@QAE@XZ
	??0?$allocator@U?$pair@PAUggml_backend_device@@PAUggml_backend_buffer_type@@@std@@@std@@QAE@XZ
	??0?$allocator@U?$pair@V?$vector@IV?$allocator@I@std@@@std@@Uwhisper_partial_utf8@@@std@@@std@@QAE@XZ
	??0?$allocator@U?$whisper_pair@NH@@@std@@QAE@XZ
	??0?$allocator@U_Grp_t@?$_Tgt_state_t@PBD@std@@@std@@QAE@XZ
	??0?$allocator@U_Grp_t@?$_Tgt_state_t@V?$_String_const_iterator@V?$_String_val@U?$_Simple_types@D@std@@@std@@@std@@@std@@@std@@QAE@XZ
	??0?$allocator@U_Loop_vals_t@std@@@std@@QAE@XZ
	??0?$allocator@Uvad_segment_info@whisper_state@@@std@@QAE@XZ
	??0?$allocator@Uvad_time_mapping@@@std@@QAE@XZ
	??0?$allocator@Uwhisper_grammar_candidate@@@std@@QAE@XZ
	??0?$allocator@Uwhisper_grammar_element@@@std@@QAE@XZ
	??0?$allocator@Uwhisper_kv_cell@@@std@@QAE@XZ
	??0?$allocator@Uwhisper_layer_decoder@@@std@@QAE@XZ
	??0?$allocator@Uwhisper_layer_encoder@@@std@@QAE@XZ
	??0?$allocator@Uwhisper_segment@@@std@@QAE@XZ
	??0?$allocator@Uwhisper_token_data@@@std@@QAE@XZ
	??0?$allocator@Uwhisper_vad_segment@@@std@@QAE@XZ
	??0?$allocator@V?$basic_string@DU?$char_traits@D@std@@V?$allocator@D@2@@std@@@std@@QAE@XZ
	??0?$allocator@V?$sub_match@V?$_String_const_iterator@V?$_String_val@U?$_Simple_types@D@std@@@std@@@std@@@std@@@std@@QAE@XZ
	??0?$allocator@V?$vector@PBUwhisper_grammar_element@@V?$allocator@PBUwhisper_grammar_element@@@std@@@std@@@std@@QAE@XZ
	??0?$allocator@V?$vector@Uwhisper_grammar_element@@V?$allocator@Uwhisper_grammar_element@@@std@@@std@@@std@@QAE@XZ
	??0?$allocator@Vthread@std@@@std@@QAE@XZ
	??0?$allocator@_N@std@@QAE@XZ
	??0?$allocator@_W@std@@QAE@XZ
	??0?$atomic@H@std@@QAE@H@Z
	??0?$basic_filebuf@DU?$char_traits@D@std@@@std@@QAE@XZ
	??0?$basic_ifstream@DU?$char_traits@D@std@@@std@@QAE@ABV?$basic_string@_WU?$char_traits@_W@std@@V?$allocator@_W@2@@1@HH@Z
	??0?$basic_ifstream@DU?$char_traits@D@std@@@std@@QAE@PB_WHH@Z
	??0?$basic_ofstream@DU?$char_traits@D@std@@@std@@QAE@PBDHH@Z
	??0?$basic_regex@DV?$regex_traits@D@std@@@std@@QAE@PBDW4syntax_option_type@regex_constants@1@@Z
	??0?$basic_string@DU?$char_traits@D@std@@V?$allocator@D@2@@std@@QAE@$$QAV01@@Z
	??0?$basic_string@DU?$char_traits@D@std@@V?$allocator@D@2@@std@@QAE@ABV01@@Z
	??0?$basic_string@DU?$char_traits@D@std@@V?$allocator@D@2@@std@@QAE@ABV01@IIABV?$allocator@D@1@@Z
	??0?$basic_string@DU?$char_traits@D@std@@V?$allocator@D@2@@std@@QAE@QBD@Z
	??0?$basic_string@DU?$char_traits@D@std@@V?$allocator@D@2@@std@@QAE@QBDI@Z
	??0?$basic_string@DU?$char_traits@D@std@@V?$allocator@D@2@@std@@QAE@U_String_constructor_concat_tag@1@AAV01@1@Z
	??0?$basic_string@DU?$char_traits@D@std@@V?$allocator@D@2@@std@@QAE@U_String_constructor_concat_tag@1@ABV01@QBDI2I@Z
	??0?$basic_string@DU?$char_traits@D@std@@V?$allocator@D@2@@std@@QAE@XZ
	??0?$basic_string@_WU?$char_traits@_W@std@@V?$allocator@_W@2@@std@@QAE@$$QAV01@@Z
	??0?$basic_string@_WU?$char_traits@_W@std@@V?$allocator@_W@2@@std@@QAE@ABV01@@Z
	??0?$basic_string@_WU?$char_traits@_W@std@@V?$allocator@_W@2@@std@@QAE@XZ
	??0?$codecvt_utf8@_W$0BAPPPP@$0A@@std@@QAE@I@Z
	??0?$collate@D@std@@QAE@ABV_Locinfo@1@I@Z
	??0?$fpos@U_Mbstatet@@@std@@QAE@U_Mbstatet@@_J@Z
	??0?$fpos@U_Mbstatet@@@std@@QAE@_J@Z
	??0?$initializer_list@H@std@@QAE@PBH0@Z
	??0?$initializer_list@I@std@@QAE@PBI0@Z
	??0?$initializer_list@U?$pair@$$CBV?$basic_string@DU?$char_traits@D@std@@V?$allocator@D@2@@std@@U?$pair@HV?$basic_string@DU?$char_traits@D@std@@V?$allocator@D@2@@std@@@2@@std@@@std@@QAE@PBU?$pair@$$CBV?$basic_string@DU?$char_traits@D@std@@V?$allocator@D@2@@std@@U?$pair@HV?$basic_string@DU?$char_traits@D@std@@V?$allocator@D@2@@std@@@2@@1@0@Z
	??0?$initializer_list@U?$pair@$$CBW4asr_system@@V?$map@W4asr_tensor@@PBDU?$less@W4asr_tensor@@@std@@V?$allocator@U?$pair@$$CBW4asr_tensor@@PBD@std@@@3@@std@@@std@@@std@@QAE@PBU?$pair@$$CBW4asr_system@@V?$map@W4asr_tensor@@PBDU?$less@W4asr_tensor@@@std@@V?$allocator@U?$pair@$$CBW4asr_tensor@@PBD@std@@@3@@std@@@1@0@Z
	??0?$initializer_list@U?$pair@$$CBW4asr_tensor@@PBD@std@@@std@@QAE@PBU?$pair@$$CBW4asr_tensor@@PBD@1@0@Z
	??0?$initializer_list@U?$pair@$$CBW4asr_tensor@@W4ggml_op@@@std@@@std@@QAE@PBU?$pair@$$CBW4asr_tensor@@W4ggml_op@@@1@0@Z
	??0?$initializer_list@U?$pair@$$CBW4e_model@@V?$basic_string@DU?$char_traits@D@std@@V?$allocator@D@2@@std@@@std@@@std@@QAE@PBU?$pair@$$CBW4e_model@@V?$basic_string@DU?$char_traits@D@std@@V?$allocator@D@2@@std@@@1@0@Z
	??0?$initializer_list@U?$pair@$$CBW4vad_tensor@@PBD@std@@@std@@QAE@PBU?$pair@$$CBW4vad_tensor@@PBD@1@0@Z
	??0?$initializer_list@U?$pair@$$CBW4vad_tensor@@W4ggml_op@@@std@@@std@@QAE@PBU?$pair@$$CBW4vad_tensor@@W4ggml_op@@@1@0@Z
	??0?$initializer_list@U?$pair@$$CBW4whisper_alignment_heads_preset@@Uwhisper_aheads@@@std@@@std@@QAE@PBU?$pair@$$CBW4whisper_alignment_heads_preset@@Uwhisper_aheads@@@1@0@Z
	??0?$initializer_list@V?$basic_string@DU?$char_traits@D@std@@V?$allocator@D@2@@std@@@std@@QAE@PBV?$basic_string@DU?$char_traits@D@std@@V?$allocator@D@2@@1@0@Z
	??0?$map@HHU?$less@H@std@@V?$allocator@U?$pair@$$CBHH@std@@@2@@std@@QAE@XZ
	??0?$map@HV?$basic_string@DU?$char_traits@D@std@@V?$allocator@D@2@@std@@U?$less@H@2@V?$allocator@U?$pair@$$CBHV?$basic_string@DU?$char_traits@D@std@@V?$allocator@D@2@@std@@@std@@@2@@std@@QAE@XZ
	??0?$map@PAUggml_backend_buffer_type@@PAUggml_context@@U?$less@PAUggml_backend_buffer_type@@@std@@V?$allocator@U?$pair@QAUggml_backend_buffer_type@@PAUggml_context@@@std@@@4@@std@@QAE@XZ
	??0?$map@V?$basic_string@DU?$char_traits@D@std@@V?$allocator@D@2@@std@@HU?$less@V?$basic_string@DU?$char_traits@D@std@@V?$allocator@D@2@@std@@@2@V?$allocator@U?$pair@$$CBV?$basic_string@DU?$char_traits@D@std@@V?$allocator@D@2@@std@@H@std@@@2@@std@@QAE@XZ
	??0?$map@V?$basic_string@DU?$char_traits@D@std@@V?$allocator@D@2@@std@@PAUggml_tensor@@U?$less@V?$basic_string@DU?$char_traits@D@std@@V?$allocator@D@2@@std@@@2@V?$allocator@U?$pair@$$CBV?$basic_string@DU?$char_traits@D@std@@V?$allocator@D@2@@std@@PAUggml_tensor@@@std@@@2@@std@@QAE@XZ
	??0?$map@V?$basic_string@DU?$char_traits@D@std@@V?$allocator@D@2@@std@@U?$pair@HV?$basic_string@DU?$char_traits@D@std@@V?$allocator@D@2@@std@@@2@U?$less@V?$basic_string@DU?$char_traits@D@std@@V?$allocator@D@2@@std@@@2@V?$allocator@U?$pair@$$CBV?$basic_string@DU?$char_traits@D@std@@V?$allocator@D@2@@std@@U?$pair@HV?$basic_string@DU?$char_traits@D@std@@V?$allocator@D@2@@std@@@2@@std@@@2@@std@@QAE@V?$initializer_list@U?$pair@$$CBV?$basic_string@DU?$char_traits@D@std@@V?$allocator@D@2@@std@@U?$pair@HV?$basic_string@DU?$char_traits@D@std@@V?$allocator@D@2@@std@@@2@@std@@@1@@Z
	??0?$map@W4asr_system@@V?$map@W4asr_tensor@@PBDU?$less@W4asr_tensor@@@std@@V?$allocator@U?$pair@$$CBW4asr_tensor@@PBD@std@@@3@@std@@U?$less@W4asr_system@@@3@V?$allocator@U?$pair@$$CBW4asr_system@@V?$map@W4asr_tensor@@PBDU?$less@W4asr_tensor@@@std@@V?$allocator@U?$pair@$$CBW4asr_tensor@@PBD@std@@@3@@std@@@std@@@3@@std@@QAE@V?$initializer_list@U?$pair@$$CBW4asr_system@@V?$map@W4asr_tensor@@PBDU?$less@W4asr_tensor@@@std@@V?$allocator@U?$pair@$$CBW4asr_tensor@@PBD@std@@@3@@std@@@std@@@1@@Z
	??0?$map@W4asr_tensor@@PBDU?$less@W4asr_tensor@@@std@@V?$allocator@U?$pair@$$CBW4asr_tensor@@PBD@std@@@3@@std@@QAE@ABV01@@Z
	??0?$map@W4asr_tensor@@PBDU?$less@W4asr_tensor@@@std@@V?$allocator@U?$pair@$$CBW4asr_tensor@@PBD@std@@@3@@std@@QAE@V?$initializer_list@U?$pair@$$CBW4asr_tensor@@PBD@std@@@1@@Z
	??0?$map@W4asr_tensor@@W4ggml_op@@U?$less@W4asr_tensor@@@std@@V?$allocator@U?$pair@$$CBW4asr_tensor@@W4ggml_op@@@std@@@4@@std@@QAE@V?$initializer_list@U?$pair@$$CBW4asr_tensor@@W4ggml_op@@@std@@@1@@Z
	??0?$map@W4e_model@@V?$basic_string@DU?$char_traits@D@std@@V?$allocator@D@2@@std@@U?$less@W4e_model@@@3@V?$allocator@U?$pair@$$CBW4e_model@@V?$basic_string@DU?$char_traits@D@std@@V?$allocator@D@2@@std@@@std@@@3@@std@@QAE@V?$initializer_list@U?$pair@$$CBW4e_model@@V?$basic_string@DU?$char_traits@D@std@@V?$allocator@D@2@@std@@@std@@@1@@Z
	??0?$map@W4vad_tensor@@PBDU?$less@W4vad_tensor@@@std@@V?$allocator@U?$pair@$$CBW4vad_tensor@@PBD@std@@@3@@std@@QAE@V?$initializer_list@U?$pair@$$CBW4vad_tensor@@PBD@std@@@1@@Z
	??0?$map@W4vad_tensor@@W4ggml_op@@U?$less@W4vad_tensor@@@std@@V?$allocator@U?$pair@$$CBW4vad_tensor@@W4ggml_op@@@std@@@4@@std@@QAE@V?$initializer_list@U?$pair@$$CBW4vad_tensor@@W4ggml_op@@@std@@@1@@Z
	??0?$map@W4whisper_alignment_heads_preset@@Uwhisper_aheads@@U?$less@W4whisper_alignment_heads_preset@@@std@@V?$allocator@U?$pair@$$CBW4whisper_alignment_heads_preset@@Uwhisper_aheads@@@std@@@4@@std@@QAE@V?$initializer_list@U?$pair@$$CBW4whisper_alignment_heads_preset@@Uwhisper_aheads@@@std@@@1@@Z
	??0?$match_results@V?$_String_const_iterator@V?$_String_val@U?$_Simple_types@D@std@@@std@@@std@@V?$allocator@V?$sub_match@V?$_String_const_iterator@V?$_String_val@U?$_Simple_types@D@std@@@std@@@std@@@std@@@2@@std@@QAE@XZ
	??0?$mersenne_twister@I$0CA@$0CHA@$0BIN@$0BP@$0JJAILANP@$0L@$06$0JNCMFGIA@$0P@$0OPMGAAAA@$0BC@@std@@QAE@III@Z
	??0?$mersenne_twister_engine@I$0CA@$0CHA@$0BIN@$0BP@$0JJAILANP@$0L@$0PPPPPPPP@$06$0JNCMFGIA@$0P@$0OPMGAAAA@$0BC@$0GMAHIJGF@@std@@QAE@I@Z
	??0?$mersenne_twister_engine@I$0CA@$0CHA@$0BIN@$0BP@$0JJAILANP@$0L@$0PPPPPPPP@$06$0JNCMFGIA@$0P@$0OPMGAAAA@$0BC@$0GMAHIJGF@@std@@QAE@XZ
	??0?$pair@$$CBV?$basic_string@DU?$char_traits@D@std@@V?$allocator@D@2@@std@@U?$pair@HV?$basic_string@DU?$char_traits@D@std@@V?$allocator@D@2@@std@@@2@@std@@QAE@ABU01@@Z
	??0?$pair@$$CBW4asr_system@@V?$map@W4asr_tensor@@PBDU?$less@W4asr_tensor@@@std@@V?$allocator@U?$pair@$$CBW4asr_tensor@@PBD@std@@@3@@std@@@std@@QAE@ABU01@@Z
	??0?$pair@$$CBW4e_model@@V?$basic_string@DU?$char_traits@D@std@@V?$allocator@D@2@@std@@@std@@QAE@ABU01@@Z
	??0?$pair@HV?$basic_string@DU?$char_traits@D@std@@V?$allocator@D@2@@std@@@std@@QAE@ABU01@@Z
	??0?$pair@V?$_String_const_iterator@V?$_String_val@U?$_Simple_types@D@std@@@std@@@std@@V12@@std@@QAE@$$QAU01@@Z
	??0?$pair@V?$_String_const_iterator@V?$_String_val@U?$_Simple_types@D@std@@@std@@@std@@V12@@std@@QAE@ABU01@@Z
	??0?$pair@V?$vector@IV?$allocator@I@std@@@std@@Uwhisper_partial_utf8@@@std@@QAE@$$QAU01@@Z
	??0?$regex_traits@D@std@@QAE@XZ
	??0?$set@HU?$less@H@std@@V?$allocator@H@2@@std@@QAE@ABV01@@Z
	??0?$set@HU?$less@H@std@@V?$allocator@H@2@@std@@QAE@XZ
	??0?$sub_match@PBD@std@@QAE@XZ
	??0?$sub_match@V?$_String_const_iterator@V?$_String_val@U?$_Simple_types@D@std@@@std@@@std@@@std@@QAE@$$QAV01@@Z
	??0?$sub_match@V?$_String_const_iterator@V?$_String_val@U?$_Simple_types@D@std@@@std@@@std@@@std@@QAE@ABV01@@Z
	??0?$sub_match@V?$_String_const_iterator@V?$_String_val@U?$_Simple_types@D@std@@@std@@@std@@@std@@QAE@XZ
	??0?$tuple@$$QAV?$basic_string@DU?$char_traits@D@std@@V?$allocator@D@2@@std@@@std@@QAE@$$QAV01@@Z
	??0?$tuple@$$V@std@@QAE@ABV01@@Z
	??0?$tuple@ABH@std@@QAE@$$QAV01@@Z
	??0?$tuple@ABQAUggml_backend_buffer_type@@@std@@QAE@$$QAV01@@Z
	??0?$tuple@ABV?$basic_string@DU?$char_traits@D@std@@V?$allocator@D@2@@std@@@std@@QAE@$$QAV01@@Z
	??0?$vector@DV?$allocator@D@std@@@std@@QAE@IABDABV?$allocator@D@1@@Z
	??0?$vector@DV?$allocator@D@std@@@std@@QAE@IABV?$allocator@D@1@@Z
	??0?$vector@DV?$allocator@D@std@@@std@@QAE@XZ
	??0?$vector@EV?$allocator@E@std@@@std@@QAE@IABV?$allocator@E@1@@Z
	??0?$vector@EV?$allocator@E@std@@@std@@QAE@XZ
	??0?$vector@HV?$allocator@H@std@@@std@@QAE@$$QAV01@@Z
	??0?$vector@HV?$allocator@H@std@@@std@@QAE@V?$initializer_list@H@1@ABV?$allocator@H@1@@Z
	??0?$vector@HV?$allocator@H@std@@@std@@QAE@XZ
	??0?$vector@IV?$allocator@I@std@@@std@@QAE@$$QAV01@@Z
	??0?$vector@IV?$allocator@I@std@@@std@@QAE@ABV01@@Z
	??0?$vector@IV?$allocator@I@std@@@std@@QAE@IABIABV?$allocator@I@1@@Z
	??0?$vector@IV?$allocator@I@std@@@std@@QAE@V?$initializer_list@I@1@ABV?$allocator@I@1@@Z
	??0?$vector@IV?$allocator@I@std@@@std@@QAE@XZ
	??0?$vector@MV?$allocator@M@std@@@std@@QAE@$$QAV01@@Z
	??0?$vector@MV?$allocator@M@std@@@std@@QAE@IABMABV?$allocator@M@1@@Z
	??0?$vector@MV?$allocator@M@std@@@std@@QAE@IABV?$allocator@M@1@@Z
	??0?$vector@MV?$allocator@M@std@@@std@@QAE@XZ
	??0?$vector@NV?$allocator@N@std@@@std@@QAE@XZ
	??0?$vector@PAUggml_backend@@V?$allocator@PAUggml_backend@@@std@@@std@@QAE@$$QAV01@@Z
	??0?$vector@PAUggml_backend@@V?$allocator@PAUggml_backend@@@std@@@std@@QAE@ABV01@@Z
	??0?$vector@PAUggml_backend@@V?$allocator@PAUggml_backend@@@std@@@std@@QAE@XZ
	??0?$vector@PAUggml_backend_buffer@@V?$allocator@PAUggml_backend_buffer@@@std@@@std@@QAE@XZ
	??0?$vector@PAUggml_context@@V?$allocator@PAUggml_context@@@std@@@std@@QAE@XZ
	??0?$vector@PAUggml_tensor@@V?$allocator@PAUggml_tensor@@@std@@@std@@QAE@XZ
	??0?$vector@PAUwhisper_state@@V?$allocator@PAUwhisper_state@@@std@@@std@@QAE@XZ
	??0?$vector@PBUwhisper_grammar_element@@V?$allocator@PBUwhisper_grammar_element@@@std@@@std@@QAE@$$QAV01@@Z
	??0?$vector@PBUwhisper_grammar_element@@V?$allocator@PBUwhisper_grammar_element@@@std@@@std@@QAE@ABV01@@Z
	??0?$vector@PBUwhisper_grammar_element@@V?$allocator@PBUwhisper_grammar_element@@@std@@@std@@QAE@XZ
	??0?$vector@U?$pair@PAUggml_backend_device@@PAUggml_backend_buffer_type@@@std@@V?$allocator@U?$pair@PAUggml_backend_device@@PAUggml_backend_buffer_type@@@std@@@2@@std@@QAE@$$QAV01@@Z
	??0?$vector@U?$pair@PAUggml_backend_device@@PAUggml_backend_buffer_type@@@std@@V?$allocator@U?$pair@PAUggml_backend_device@@PAUggml_backend_buffer_type@@@std@@@2@@std@@QAE@ABV01@@Z
	??0?$vector@U?$pair@PAUggml_backend_device@@PAUggml_backend_buffer_type@@@std@@V?$allocator@U?$pair@PAUggml_backend_device@@PAUggml_backend_buffer_type@@@std@@@2@@std@@QAE@XZ
	??0?$vector@U?$pair@V?$vector@IV?$allocator@I@std@@@std@@Uwhisper_partial_utf8@@@std@@V?$allocator@U?$pair@V?$vector@IV?$allocator@I@std@@@std@@Uwhisper_partial_utf8@@@std@@@2@@std@@QAE@XZ
	??0?$vector@U?$whisper_pair@NH@@V?$allocator@U?$whisper_pair@NH@@@std@@@std@@QAE@XZ
	??0?$vector@U_Grp_t@?$_Tgt_state_t@PBD@std@@V?$allocator@U_Grp_t@?$_Tgt_state_t@PBD@std@@@3@@std@@QAE@ABV01@@Z
	??0?$vector@U_Grp_t@?$_Tgt_state_t@PBD@std@@V?$allocator@U_Grp_t@?$_Tgt_state_t@PBD@std@@@3@@std@@QAE@XZ
	??0?$vector@U_Grp_t@?$_Tgt_state_t@V?$_String_const_iterator@V?$_String_val@U?$_Simple_types@D@std@@@std@@@std@@@std@@V?$allocator@U_Grp_t@?$_Tgt_state_t@V?$_String_const_iterator@V?$_String_val@U?$_Simple_types@D@std@@@std@@@std@@@std@@@3@@std@@QAE@ABV01@@Z
	??0?$vector@U_Grp_t@?$_Tgt_state_t@V?$_String_const_iterator@V?$_String_val@U?$_Simple_types@D@std@@@std@@@std@@@std@@V?$allocator@U_Grp_t@?$_Tgt_state_t@V?$_String_const_iterator@V?$_String_val@U?$_Simple_types@D@std@@@std@@@std@@@std@@@3@@std@@QAE@XZ
	??0?$vector@U_Loop_vals_t@std@@V?$allocator@U_Loop_vals_t@std@@@2@@std@@QAE@XZ
	??0?$vector@Uvad_segment_info@whisper_state@@V?$allocator@Uvad_segment_info@whisper_state@@@std@@@std@@QAE@XZ
	??0?$vector@Uvad_time_mapping@@V?$allocator@Uvad_time_mapping@@@std@@@std@@QAE@XZ
	??0?$vector@Uwhisper_grammar_candidate@@V?$allocator@Uwhisper_grammar_candidate@@@std@@@std@@QAE@$$QAV01@@Z
	??0?$vector@Uwhisper_grammar_candidate@@V?$allocator@Uwhisper_grammar_candidate@@@std@@@std@@QAE@XZ
	??0?$vector@Uwhisper_grammar_element@@V?$allocator@Uwhisper_grammar_element@@@std@@@std@@QAE@ABV01@@Z
	??0?$vector@Uwhisper_grammar_element@@V?$allocator@Uwhisper_grammar_element@@@std@@@std@@QAE@XZ
	??0?$vector@Uwhisper_kv_cell@@V?$allocator@Uwhisper_kv_cell@@@std@@@std@@QAE@XZ
	??0?$vector@Uwhisper_layer_decoder@@V?$allocator@Uwhisper_layer_decoder@@@std@@@std@@QAE@XZ
	??0?$vector@Uwhisper_layer_encoder@@V?$allocator@Uwhisper_layer_encoder@@@std@@@std@@QAE@XZ
	??0?$vector@Uwhisper_segment@@V?$allocator@Uwhisper_segment@@@std@@@std@@QAE@XZ
	??0?$vector@Uwhisper_token_data@@V?$allocator@Uwhisper_token_data@@@std@@@std@@QAE@$$QAV01@@Z
	??0?$vector@Uwhisper_token_data@@V?$allocator@Uwhisper_token_data@@@std@@@std@@QAE@ABV01@@Z
	??0?$vector@Uwhisper_token_data@@V?$allocator@Uwhisper_token_data@@@std@@@std@@QAE@XZ
	??0?$vector@Uwhisper_vad_segment@@V?$allocator@Uwhisper_vad_segment@@@std@@@std@@QAE@XZ
	??0?$vector@V?$basic_string@DU?$char_traits@D@std@@V?$allocator@D@2@@std@@V?$allocator@V?$basic_string@DU?$char_traits@D@std@@V?$allocator@D@2@@std@@@2@@std@@QAE@V?$initializer_list@V?$basic_string@DU?$char_traits@D@std@@V?$allocator@D@2@@std@@@1@ABV?$allocator@V?$basic_string@DU?$char_traits@D@std@@V?$allocator@D@2@@std@@@1@@Z
	??0?$vector@V?$basic_string@DU?$char_traits@D@std@@V?$allocator@D@2@@std@@V?$allocator@V?$basic_string@DU?$char_traits@D@std@@V?$allocator@D@2@@std@@@2@@std@@QAE@XZ
	??0?$vector@V?$sub_match@V?$_String_const_iterator@V?$_String_val@U?$_Simple_types@D@std@@@std@@@std@@@std@@V?$allocator@V?$sub_match@V?$_String_const_iterator@V?$_String_val@U?$_Simple_types@D@std@@@std@@@std@@@std@@@2@@std@@QAE@XZ
	??0?$vector@V?$vector@PBUwhisper_grammar_element@@V?$allocator@PBUwhisper_grammar_element@@@std@@@std@@V?$allocator@V?$vector@PBUwhisper_grammar_element@@V?$allocator@PBUwhisper_grammar_element@@@std@@@std@@@2@@std@@QAE@$$QAV01@@Z
	??0?$vector@V?$vector@PBUwhisper_grammar_element@@V?$allocator@PBUwhisper_grammar_element@@@std@@@std@@V?$allocator@V?$vector@PBUwhisper_grammar_element@@V?$allocator@PBUwhisper_grammar_element@@@std@@@std@@@2@@std@@QAE@ABV01@@Z
	??0?$vector@V?$vector@PBUwhisper_grammar_element@@V?$allocator@PBUwhisper_grammar_element@@@std@@@std@@V?$allocator@V?$vector@PBUwhisper_grammar_element@@V?$allocator@PBUwhisper_grammar_element@@@std@@@std@@@2@@std@@QAE@XZ
	??0?$vector@V?$vector@Uwhisper_grammar_element@@V?$allocator@Uwhisper_grammar_element@@@std@@@std@@V?$allocator@V?$vector@Uwhisper_grammar_element@@V?$allocator@Uwhisper_grammar_element@@@std@@@std@@@2@@std@@QAE@$$QAV01@@Z
	??0?$vector@V?$vector@Uwhisper_grammar_element@@V?$allocator@Uwhisper_grammar_element@@@std@@@std@@V?$allocator@V?$vector@Uwhisper_grammar_element@@V?$allocator@Uwhisper_grammar_element@@@std@@@std@@@2@@std@@QAE@ABV01@@Z
	??0?$vector@V?$vector@Uwhisper_grammar_element@@V?$allocator@Uwhisper_grammar_element@@@std@@@std@@V?$allocator@V?$vector@Uwhisper_grammar_element@@V?$allocator@Uwhisper_grammar_element@@@std@@@std@@@2@@std@@QAE@IABV?$allocator@V?$vector@Uwhisper_grammar_element@@V?$allocator@Uwhisper_grammar_element@@@std@@@std@@@1@@Z
	??0?$vector@V?$vector@Uwhisper_grammar_element@@V?$allocator@Uwhisper_grammar_element@@@std@@@std@@V?$allocator@V?$vector@Uwhisper_grammar_element@@V?$allocator@Uwhisper_grammar_element@@@std@@@std@@@2@@std@@QAE@XZ
	??0?$vector@Vthread@std@@V?$allocator@Vthread@std@@@2@@std@@QAE@IABV?$allocator@Vthread@std@@@1@@Z
	??0?$vector@_NV?$allocator@_N@std@@@std@@QAE@ABV01@@Z
	??0?$vector@_NV?$allocator@_N@std@@@std@@QAE@IABV?$allocator@_N@1@@Z
	??0?$vector@_NV?$allocator@_N@std@@@std@@QAE@XZ
	??0?$whisper_pair@NH@@QAE@ABNABH@Z
	??0?$whisper_pair@NH@@QAE@XZ
	??0?$wstring_convert@V?$codecvt_utf8@_W$0BAPPPP@$0A@@std@@_WV?$allocator@_W@2@V?$allocator@D@2@@std@@QAE@XZ
	??0_Basic_container_proxy_ptr12@std@@IAE@XZ
	??0_Bitmap@std@@QAE@XZ
	??0_Bxty@?$_String_val@U?$_Simple_types@D@std@@@std@@QAE@XZ
	??0_Bxty@?$_String_val@U?$_Simple_types@_W@std@@@std@@QAE@XZ
	??0_Container_base12@std@@QAE@XZ
	??0_Container_proxy@std@@QAE@PAU_Container_base12@1@@Z
	??0_Container_proxy@std@@QAE@XZ
	??0_Grp_t@?$_Tgt_state_t@V?$_String_const_iterator@V?$_String_val@U?$_Simple_types@D@std@@@std@@@std@@@std@@QAE@$$QAU012@@Z
	??0_Grp_t@?$_Tgt_state_t@V?$_String_const_iterator@V?$_String_val@U?$_Simple_types@D@std@@@std@@@std@@@std@@QAE@ABU012@@Z
	??0_Grp_t@?$_Tgt_state_t@V?$_String_const_iterator@V?$_String_val@U?$_Simple_types@D@std@@@std@@@std@@@std@@QAE@XZ
	??0_Iterator_base12@std@@QAE@ABU01@@Z
	??0_Iterator_base12@std@@QAE@XZ
	??0_Node_assert@std@@QAE@W4_Node_type@1@W4_Node_flags@1@@Z
	??0_Node_back@std@@QAE@I@Z
	??0_Node_base@std@@QAE@W4_Node_type@1@W4_Node_flags@1@@Z
	??0_Node_capture@std@@QAE@I@Z
	??0_Node_end_group@std@@QAE@W4_Node_type@1@W4_Node_flags@1@PAV_Node_base@1@@Z
	??0_Node_end_rep@std@@QAE@XZ
	??0_Node_endif@std@@QAE@XZ
	??0_Node_if@std@@QAE@PAV_Node_base@1@@Z
	??0_Node_rep@std@@QAE@_NHHPAV_Node_end_rep@1@I@Z
	??0_Regex_base@std@@QAE@XZ
	??0_Root_node@std@@QAE@XZ
	??0_Sentry_base@?$basic_ostream@DU?$char_traits@D@std@@@std@@QAE@AAV12@@Z
	??0bad_alloc@std@@AAE@QBD@Z
	??0bad_alloc@std@@QAE@ABV01@@Z
	??0bad_array_new_length@std@@QAE@ABV01@@Z
	??0bad_array_new_length@std@@QAE@XZ
	??0bad_cast@std@@QAE@ABV01@@Z
	??0bad_cast@std@@QAE@XZ
	??0exception@std@@QAE@ABV01@@Z
	??0exception@std@@QAE@QBD@Z
	??0exception@std@@QAE@QBDH@Z
	??0locale@std@@QAE@XZ
	??0range_error@std@@QAE@ABV01@@Z
	??0range_error@std@@QAE@PBD@Z
	??0runtime_error@std@@QAE@ABV01@@Z
	??0runtime_error@std@@QAE@ABV?$basic_string@DU?$char_traits@D@std@@V?$allocator@D@2@@1@@Z
	??0runtime_error@std@@QAE@PBD@Z
	??0sentry@?$basic_ostream@DU?$char_traits@D@std@@@std@@QAE@AAV12@@Z
	??0thread@std@@QAE@XZ
	??0whisper_aheads_masks@@QAE@XZ
	??0whisper_context@@QAE@XZ
	??0whisper_decoder@@QAE@XZ
	??0whisper_filters@@QAE@XZ
	??0whisper_grammar@@QAE@$$QAU0@@Z
	??0whisper_grammar@@QAE@ABU0@@Z
	??0whisper_grammar@@QAE@XZ
	??0whisper_hparams@@QAE@XZ
	??0whisper_kv_cache@@QAE@XZ
	??0whisper_kv_cell@@QAE@ABU0@@Z
	??0whisper_kv_cell@@QAE@XZ
	??0whisper_mel@@QAE@XZ
	??0whisper_model@@QAE@XZ
	??0whisper_sched@@QAE@XZ
	??0whisper_segment@@QAE@$$QAU0@@Z
	??0whisper_segment@@QAE@ABU0@@Z
	??0whisper_sequence@@QAE@$$QAU0@@Z
	??0whisper_sequence@@QAE@ABU0@@Z
	??0whisper_sequence@@QAE@XZ
	??0whisper_state@@QAE@XZ
	??0whisper_vad_context@@QAE@XZ
	??0whisper_vad_model@@QAE@XZ
	??0whisper_vad_segments@@QAE@XZ
	??0whisper_vocab@@QAE@XZ
	??1?$_Alloc_construct_ptr@V?$allocator@U?$_Tree_node@HPAX@std@@@std@@@std@@QAE@XZ
	??1?$_Alloc_construct_ptr@V?$allocator@U?$_Tree_node@U?$pair@$$CBHH@std@@PAX@std@@@std@@@std@@QAE@XZ
	??1?$_Alloc_construct_ptr@V?$allocator@U?$_Tree_node@U?$pair@$$CBHV?$basic_string@DU?$char_traits@D@std@@V?$allocator@D@2@@std@@@std@@PAX@std@@@std@@@std@@QAE@XZ
	??1?$_Alloc_construct_ptr@V?$allocator@U?$_Tree_node@U?$pair@$$CBV?$basic_string@DU?$char_traits@D@std@@V?$allocator@D@2@@std@@H@std@@PAX@std@@@std@@@std@@QAE@XZ
	??1?$_Alloc_construct_ptr@V?$allocator@U?$_Tree_node@U?$pair@$$CBV?$basic_string@DU?$char_traits@D@std@@V?$allocator@D@2@@std@@PAUggml_tensor@@@std@@PAX@std@@@std@@@std@@QAE@XZ
	??1?$_Alloc_construct_ptr@V?$allocator@U?$_Tree_node@U?$pair@$$CBV?$basic_string@DU?$char_traits@D@std@@V?$allocator@D@2@@std@@U?$pair@HV?$basic_string@DU?$char_traits@D@std@@V?$allocator@D@2@@std@@@2@@std@@PAX@std@@@std@@@std@@QAE@XZ
	??1?$_Alloc_construct_ptr@V?$allocator@U?$_Tree_node@U?$pair@$$CBW4asr_system@@V?$map@W4asr_tensor@@PBDU?$less@W4asr_tensor@@@std@@V?$allocator@U?$pair@$$CBW4asr_tensor@@PBD@std@@@3@@std@@@std@@PAX@std@@@std@@@std@@QAE@XZ
	??1?$_Alloc_construct_ptr@V?$allocator@U?$_Tree_node@U?$pair@$$CBW4asr_tensor@@PBD@std@@PAX@std@@@std@@@std@@QAE@XZ
	??1?$_Alloc_construct_ptr@V?$allocator@U?$_Tree_node@U?$pair@$$CBW4asr_tensor@@W4ggml_op@@@std@@PAX@std@@@std@@@std@@QAE@XZ
	??1?$_Alloc_construct_ptr@V?$allocator@U?$_Tree_node@U?$pair@$$CBW4e_model@@V?$basic_string@DU?$char_traits@D@std@@V?$allocator@D@2@@std@@@std@@PAX@std@@@std@@@std@@QAE@XZ
	??1?$_Alloc_construct_ptr@V?$allocator@U?$_Tree_node@U?$pair@$$CBW4vad_tensor@@PBD@std@@PAX@std@@@std@@@std@@QAE@XZ
	??1?$_Alloc_construct_ptr@V?$allocator@U?$_Tree_node@U?$pair@$$CBW4vad_tensor@@W4ggml_op@@@std@@PAX@std@@@std@@@std@@QAE@XZ
	??1?$_Alloc_construct_ptr@V?$allocator@U?$_Tree_node@U?$pair@$$CBW4whisper_alignment_heads_preset@@Uwhisper_aheads@@@std@@PAX@std@@@std@@@std@@QAE@XZ
	??1?$_Alloc_construct_ptr@V?$allocator@U?$_Tree_node@U?$pair@QAUggml_backend_buffer_type@@PAUggml_context@@@std@@PAX@std@@@std@@@std@@QAE@XZ
	??1?$_Bt_state_t@PBD@std@@QAE@XZ
	??1?$_Bt_state_t@V?$_String_const_iterator@V?$_String_val@U?$_Simple_types@D@std@@@std@@@std@@@std@@QAE@XZ
	??1?$_Buf@D@std@@QAE@XZ
	??1?$_Compressed_pair@V?$allocator@D@std@@V?$_String_val@U?$_Simple_types@D@std@@@2@$00@std@@QAE@XZ
	??1?$_Compressed_pair@V?$allocator@_W@std@@V?$_String_val@U?$_Simple_types@_W@std@@@2@$00@std@@QAE@XZ
	??1?$_Container_proxy_ptr12@V?$allocator@U_Container_proxy@std@@@std@@@std@@QAE@XZ
	??1?$_Func_class@PAUggml_cgraph@@$$V@std@@QAE@XZ
	??1?$_Matcher@PBDDV?$regex_traits@D@std@@PBD@std@@QAE@XZ
	??1?$_Matcher@V?$_String_const_iterator@V?$_String_val@U?$_Simple_types@D@std@@@std@@@std@@DV?$regex_traits@D@2@V12@@std@@QAE@XZ
	??1?$_Node_class@DV?$regex_traits@D@std@@@std@@UAE@XZ
	??1?$_Node_str@D@std@@UAE@XZ
	??1?$_Parser@PBDDV?$regex_traits@D@std@@@std@@QAE@XZ
	??1?$_Regex_traits@D@std@@QAE@XZ
	??1?$_Sequence@D@std@@QAE@XZ
	??1?$_String_const_iterator@V?$_String_val@U?$_Simple_types@D@std@@@std@@@std@@QAE@XZ
	??1?$_String_iterator@V?$_String_val@U?$_Simple_types@D@std@@@std@@@std@@QAE@XZ
	??1?$_String_val@U?$_Simple_types@D@std@@@std@@QAE@XZ
	??1?$_String_val@U?$_Simple_types@_W@std@@@std@@QAE@XZ
	??1?$_Tgt_state_t@PBD@std@@QAE@XZ
	??1?$_Tgt_state_t@V?$_String_const_iterator@V?$_String_val@U?$_Simple_types@D@std@@@std@@@std@@@std@@QAE@XZ
	??1?$_Tidy_guard@V?$_Builder@PBDDV?$regex_traits@D@std@@@std@@@std@@QAE@XZ
	??1?$_Tidy_guard@V?$vector@DV?$allocator@D@std@@@std@@@std@@QAE@XZ
	??1?$_Tidy_guard@V?$vector@EV?$allocator@E@std@@@std@@@std@@QAE@XZ
	??1?$_Tidy_guard@V?$vector@HV?$allocator@H@std@@@std@@@std@@QAE@XZ
	??1?$_Tidy_guard@V?$vector@IV?$allocator@I@std@@@std@@@std@@QAE@XZ
	??1?$_Tidy_guard@V?$vector@MV?$allocator@M@std@@@std@@@std@@QAE@XZ
	??1?$_Tidy_guard@V?$vector@NV?$allocator@N@std@@@std@@@std@@QAE@XZ
	??1?$_Tidy_guard@V?$vector@PAUggml_backend@@V?$allocator@PAUggml_backend@@@std@@@std@@@std@@QAE@XZ
	??1?$_Tidy_guard@V?$vector@PBUwhisper_grammar_element@@V?$allocator@PBUwhisper_grammar_element@@@std@@@std@@@std@@QAE@XZ
	??1?$_Tidy_guard@V?$vector@U?$pair@PAUggml_backend_device@@PAUggml_backend_buffer_type@@@std@@V?$allocator@U?$pair@PAUggml_backend_device@@PAUggml_backend_buffer_type@@@std@@@2@@std@@@std@@QAE@XZ
	??1?$_Tidy_guard@V?$vector@U_Grp_t@?$_Tgt_state_t@PBD@std@@V?$allocator@U_Grp_t@?$_Tgt_state_t@PBD@std@@@3@@std@@@std@@QAE@XZ
	??1?$_Tidy_guard@V?$vector@U_Grp_t@?$_Tgt_state_t@V?$_String_const_iterator@V?$_String_val@U?$_Simple_types@D@std@@@std@@@std@@@std@@V?$allocator@U_Grp_t@?$_Tgt_state_t@V?$_String_const_iterator@V?$_String_val@U?$_Simple_types@D@std@@@std@@@std@@@std@@@3@@std@@@std@@QAE@XZ
	??1?$_Tidy_guard@V?$vector@Uwhisper_grammar_element@@V?$allocator@Uwhisper_grammar_element@@@std@@@std@@@std@@QAE@XZ
	??1?$_Tidy_guard@V?$vector@Uwhisper_token_data@@V?$allocator@Uwhisper_token_data@@@std@@@std@@@std@@QAE@XZ
	??1?$_Tidy_guard@V?$vector@V?$basic_string@DU?$char_traits@D@std@@V?$allocator@D@2@@std@@V?$allocator@V?$basic_string@DU?$char_traits@D@std@@V?$allocator@D@2@@std@@@2@@std@@@std@@QAE@XZ
	??1?$_Tidy_guard@V?$vector@V?$vector@PBUwhisper_grammar_element@@V?$allocator@PBUwhisper_grammar_element@@@std@@@std@@V?$allocator@V?$vector@PBUwhisper_grammar_element@@V?$allocator@PBUwhisper_grammar_element@@@std@@@std@@@2@@std@@@std@@QAE@XZ
	??1?$_Tidy_guard@V?$vector@V?$vector@Uwhisper_grammar_element@@V?$allocator@Uwhisper_grammar_element@@@std@@@std@@V?$allocator@V?$vector@Uwhisper_grammar_element@@V?$allocator@Uwhisper_grammar_element@@@std@@@std@@@2@@std@@@std@@QAE@XZ
	??1?$_Tidy_guard@V?$vector@Vthread@std@@V?$allocator@Vthread@std@@@2@@std@@@std@@QAE@XZ
	??1?$_Tree@V?$_Tmap_traits@HHU?$less@H@std@@V?$allocator@U?$pair@$$CBHH@std@@@2@$0A@@std@@@std@@QAE@XZ
	??1?$_Tree@V?$_Tmap_traits@HV?$basic_string@DU?$char_traits@D@std@@V?$allocator@D@2@@std@@U?$less@H@2@V?$allocator@U?$pair@$$CBHV?$basic_string@DU?$char_traits@D@std@@V?$allocator@D@2@@std@@@std@@@2@$0A@@std@@@std@@QAE@XZ
	??1?$_Tree@V?$_Tmap_traits@PAUggml_backend_buffer_type@@PAUggml_context@@U?$less@PAUggml_backend_buffer_type@@@std@@V?$allocator@U?$pair@QAUggml_backend_buffer_type@@PAUggml_context@@@std@@@4@$0A@@std@@@std@@QAE@XZ
	??1?$_Tree@V?$_Tmap_traits@V?$basic_string@DU?$char_traits@D@std@@V?$allocator@D@2@@std@@HU?$less@V?$basic_string@DU?$char_traits@D@std@@V?$allocator@D@2@@std@@@2@V?$allocator@U?$pair@$$CBV?$basic_string@DU?$char_traits@D@std@@V?$allocator@D@2@@std@@H@std@@@2@$0A@@std@@@std@@QAE@XZ
	??1?$_Tree@V?$_Tmap_traits@V?$basic_string@DU?$char_traits@D@std@@V?$allocator@D@2@@std@@PAUggml_tensor@@U?$less@V?$basic_string@DU?$char_traits@D@std@@V?$allocator@D@2@@std@@@2@V?$allocator@U?$pair@$$CBV?$basic_string@DU?$char_traits@D@std@@V?$allocator@D@2@@std@@PAUggml_tensor@@@std@@@2@$0A@@std@@@std@@QAE@XZ
	??1?$_Tree@V?$_Tmap_traits@V?$basic_string@DU?$char_traits@D@std@@V?$allocator@D@2@@std@@U?$pair@HV?$basic_string@DU?$char_traits@D@std@@V?$allocator@D@2@@std@@@2@U?$less@V?$basic_string@DU?$char_traits@D@std@@V?$allocator@D@2@@std@@@2@V?$allocator@U?$pair@$$CBV?$basic_string@DU?$char_traits@D@std@@V?$allocator@D@2@@std@@U?$pair@HV?$basic_string@DU?$char_traits@D@std@@V?$allocator@D@2@@std@@@2@@std@@@2@$0A@@std@@@std@@QAE@XZ
	??1?$_Tree@V?$_Tmap_traits@W4asr_system@@V?$map@W4asr_tensor@@PBDU?$less@W4asr_tensor@@@std@@V?$allocator@U?$pair@$$CBW4asr_tensor@@PBD@std@@@3@@std@@U?$less@W4asr_system@@@3@V?$allocator@U?$pair@$$CBW4asr_system@@V?$map@W4asr_tensor@@PBDU?$less@W4asr_tensor@@@std@@V?$allocator@U?$pair@$$CBW4asr_tensor@@PBD@std@@@3@@std@@@std@@@3@$0A@@std@@@std@@QAE@XZ
	??1?$_Tree@V?$_Tmap_traits@W4asr_tensor@@PBDU?$less@W4asr_tensor@@@std@@V?$allocator@U?$pair@$$CBW4asr_tensor@@PBD@std@@@3@$0A@@std@@@std@@QAE@XZ
	??1?$_Tree@V?$_Tmap_traits@W4asr_tensor@@W4ggml_op@@U?$less@W4asr_tensor@@@std@@V?$allocator@U?$pair@$$CBW4asr_tensor@@W4ggml_op@@@std@@@4@$0A@@std@@@std@@QAE@XZ
	??1?$_Tree@V?$_Tmap_traits@W4e_model@@V?$basic_string@DU?$char_traits@D@std@@V?$allocator@D@2@@std@@U?$less@W4e_model@@@3@V?$allocator@U?$pair@$$CBW4e_model@@V?$basic_string@DU?$char_traits@D@std@@V?$allocator@D@2@@std@@@std@@@3@$0A@@std@@@std@@QAE@XZ
	??1?$_Tree@V?$_Tmap_traits@W4vad_tensor@@PBDU?$less@W4vad_tensor@@@std@@V?$allocator@U?$pair@$$CBW4vad_tensor@@PBD@std@@@3@$0A@@std@@@std@@QAE@XZ
	??1?$_Tree@V?$_Tmap_traits@W4vad_tensor@@W4ggml_op@@U?$less@W4vad_tensor@@@std@@V?$allocator@U?$pair@$$CBW4vad_tensor@@W4ggml_op@@@std@@@4@$0A@@std@@@std@@QAE@XZ
	??1?$_Tree@V?$_Tmap_traits@W4whisper_alignment_heads_preset@@Uwhisper_aheads@@U?$less@W4whisper_alignment_heads_preset@@@std@@V?$allocator@U?$pair@$$CBW4whisper_alignment_heads_preset@@Uwhisper_aheads@@@std@@@4@$0A@@std@@@std@@QAE@XZ
	??1?$_Tree@V?$_Tset_traits@HU?$less@H@std@@V?$allocator@H@2@$0A@@std@@@std@@QAE@XZ
	??1?$_Tree_const_iterator@V?$_Tree_val@U?$_Tree_simple_types@H@std@@@std@@@std@@QAE@XZ
	??1?$_Tree_const_iterator@V?$_Tree_val@U?$_Tree_simple_types@U?$pair@$$CBV?$basic_string@DU?$char_traits@D@std@@V?$allocator@D@2@@std@@H@std@@@std@@@std@@@std@@QAE@XZ
	??1?$_Tree_const_iterator@V?$_Tree_val@U?$_Tree_simple_types@U?$pair@$$CBV?$basic_string@DU?$char_traits@D@std@@V?$allocator@D@2@@std@@PAUggml_tensor@@@std@@@std@@@std@@@std@@QAE@XZ
	??1?$_Tree_const_iterator@V?$_Tree_val@U?$_Tree_simple_types@U?$pair@QAUggml_backend_buffer_type@@PAUggml_context@@@std@@@std@@@std@@@std@@QAE@XZ
	??1?$_Tree_head_scoped_ptr@V?$allocator@U?$_Tree_node@HPAX@std@@@std@@V?$_Tree_val@U?$_Tree_simple_types@H@std@@@2@@std@@QAE@XZ
	??1?$_Tree_head_scoped_ptr@V?$allocator@U?$_Tree_node@U?$pair@$$CBW4asr_tensor@@PBD@std@@PAX@std@@@std@@V?$_Tree_val@U?$_Tree_simple_types@U?$pair@$$CBW4asr_tensor@@PBD@std@@@std@@@2@@std@@QAE@XZ
	??1?$_Tree_iterator@V?$_Tree_val@U?$_Tree_simple_types@U?$pair@$$CBV?$basic_string@DU?$char_traits@D@std@@V?$allocator@D@2@@std@@PAUggml_tensor@@@std@@@std@@@std@@@std@@QAE@XZ
	??1?$_Tree_iterator@V?$_Tree_val@U?$_Tree_simple_types@U?$pair@QAUggml_backend_buffer_type@@PAUggml_context@@@std@@@std@@@std@@@std@@QAE@XZ
	??1?$_Tree_temp_node@V?$allocator@U?$_Tree_node@HPAX@std@@@std@@@std@@QAE@XZ
	??1?$_Tree_temp_node@V?$allocator@U?$_Tree_node@U?$pair@$$CBHH@std@@PAX@std@@@std@@@std@@QAE@XZ
	??1?$_Tree_temp_node@V?$allocator@U?$_Tree_node@U?$pair@$$CBHV?$basic_string@DU?$char_traits@D@std@@V?$allocator@D@2@@std@@@std@@PAX@std@@@std@@@std@@QAE@XZ
	??1?$_Tree_temp_node@V?$allocator@U?$_Tree_node@U?$pair@$$CBV?$basic_string@DU?$char_traits@D@std@@V?$allocator@D@2@@std@@H@std@@PAX@std@@@std@@@std@@QAE@XZ
	??1?$_Tree_temp_node@V?$allocator@U?$_Tree_node@U?$pair@$$CBV?$basic_string@DU?$char_traits@D@std@@V?$allocator@D@2@@std@@PAUggml_tensor@@@std@@PAX@std@@@std@@@std@@QAE@XZ
	??1?$_Tree_temp_node@V?$allocator@U?$_Tree_node@U?$pair@$$CBV?$basic_string@DU?$char_traits@D@std@@V?$allocator@D@2@@std@@U?$pair@HV?$basic_string@DU?$char_traits@D@std@@V?$allocator@D@2@@std@@@2@@std@@PAX@std@@@std@@@std@@QAE@XZ
	??1?$_Tree_temp_node@V?$allocator@U?$_Tree_node@U?$pair@$$CBW4asr_system@@V?$map@W4asr_tensor@@PBDU?$less@W4asr_tensor@@@std@@V?$allocator@U?$pair@$$CBW4asr_tensor@@PBD@std@@@3@@std@@@std@@PAX@std@@@std@@@std@@QAE@XZ
	??1?$_Tree_temp_node@V?$allocator@U?$_Tree_node@U?$pair@$$CBW4asr_tensor@@PBD@std@@PAX@std@@@std@@@std@@QAE@XZ
	??1?$_Tree_temp_node@V?$allocator@U?$_Tree_node@U?$pair@$$CBW4asr_tensor@@W4ggml_op@@@std@@PAX@std@@@std@@@std@@QAE@XZ
	??1?$_Tree_temp_node@V?$allocator@U?$_Tree_node@U?$pair@$$CBW4e_model@@V?$basic_string@DU?$char_traits@D@std@@V?$allocator@D@2@@std@@@std@@PAX@std@@@std@@@std@@QAE@XZ
	??1?$_Tree_temp_node@V?$allocator@U?$_Tree_node@U?$pair@$$CBW4vad_tensor@@PBD@std@@PAX@std@@@std@@@std@@QAE@XZ
	??1?$_Tree_temp_node@V?$allocator@U?$_Tree_node@U?$pair@$$CBW4vad_tensor@@W4ggml_op@@@std@@PAX@std@@@std@@@std@@QAE@XZ
	??1?$_Tree_temp_node@V?$allocator@U?$_Tree_node@U?$pair@$$CBW4whisper_alignment_heads_preset@@Uwhisper_aheads@@@std@@PAX@std@@@std@@@std@@QAE@XZ
	??1?$_Tree_temp_node@V?$allocator@U?$_Tree_node@U?$pair@QAUggml_backend_buffer_type@@PAUggml_context@@@std@@PAX@std@@@std@@@std@@QAE@XZ
	??1?$_Tree_temp_node_alloc@V?$allocator@U?$_Tree_node@HPAX@std@@@std@@@std@@QAE@XZ
	??1?$_Tree_temp_node_alloc@V?$allocator@U?$_Tree_node@U?$pair@$$CBHH@std@@PAX@std@@@std@@@std@@QAE@XZ
	??1?$_Tree_temp_node_alloc@V?$allocator@U?$_Tree_node@U?$pair@$$CBHV?$basic_string@DU?$char_traits@D@std@@V?$allocator@D@2@@std@@@std@@PAX@std@@@std@@@std@@QAE@XZ
	??1?$_Tree_temp_node_alloc@V?$allocator@U?$_Tree_node@U?$pair@$$CBV?$basic_string@DU?$char_traits@D@std@@V?$allocator@D@2@@std@@H@std@@PAX@std@@@std@@@std@@QAE@XZ
	??1?$_Tree_temp_node_alloc@V?$allocator@U?$_Tree_node@U?$pair@$$CBV?$basic_string@DU?$char_traits@D@std@@V?$allocator@D@2@@std@@PAUggml_tensor@@@std@@PAX@std@@@std@@@std@@QAE@XZ
	??1?$_Tree_temp_node_alloc@V?$allocator@U?$_Tree_node@U?$pair@$$CBV?$basic_string@DU?$char_traits@D@std@@V?$allocator@D@2@@std@@U?$pair@HV?$basic_string@DU?$char_traits@D@std@@V?$allocator@D@2@@std@@@2@@std@@PAX@std@@@std@@@std@@QAE@XZ
	??1?$_Tree_temp_node_alloc@V?$allocator@U?$_Tree_node@U?$pair@$$CBW4asr_system@@V?$map@W4asr_tensor@@PBDU?$less@W4asr_tensor@@@std@@V?$allocator@U?$pair@$$CBW4asr_tensor@@PBD@std@@@3@@std@@@std@@PAX@std@@@std@@@std@@QAE@XZ
	??1?$_Tree_temp_node_alloc@V?$allocator@U?$_Tree_node@U?$pair@$$CBW4asr_tensor@@PBD@std@@PAX@std@@@std@@@std@@QAE@XZ
	??1?$_Tree_temp_node_alloc@V?$allocator@U?$_Tree_node@U?$pair@$$CBW4asr_tensor@@W4ggml_op@@@std@@PAX@std@@@std@@@std@@QAE@XZ
	??1?$_Tree_temp_node_alloc@V?$allocator@U?$_Tree_node@U?$pair@$$CBW4e_model@@V?$basic_string@DU?$char_traits@D@std@@V?$allocator@D@2@@std@@@std@@PAX@std@@@std@@@std@@QAE@XZ
	??1?$_Tree_temp_node_alloc@V?$allocator@U?$_Tree_node@U?$pair@$$CBW4vad_tensor@@PBD@std@@PAX@std@@@std@@@std@@QAE@XZ
	??1?$_Tree_temp_node_alloc@V?$allocator@U?$_Tree_node@U?$pair@$$CBW4vad_tensor@@W4ggml_op@@@std@@PAX@std@@@std@@@std@@QAE@XZ
	??1?$_Tree_temp_node_alloc@V?$allocator@U?$_Tree_node@U?$pair@$$CBW4whisper_alignment_heads_preset@@Uwhisper_aheads@@@std@@PAX@std@@@std@@@std@@QAE@XZ
	??1?$_Tree_temp_node_alloc@V?$allocator@U?$_Tree_node@U?$pair@QAUggml_backend_buffer_type@@PAUggml_context@@@std@@PAX@std@@@std@@@std@@QAE@XZ
	??1?$_Tree_unchecked_const_iterator@V?$_Tree_val@U?$_Tree_simple_types@H@std@@@std@@U_Iterator_base12@2@@std@@QAE@XZ
	??1?$_Tree_unchecked_const_iterator@V?$_Tree_val@U?$_Tree_simple_types@U?$pair@$$CBV?$basic_string@DU?$char_traits@D@std@@V?$allocator@D@2@@std@@H@std@@@std@@@std@@U_Iterator_base12@2@@std@@QAE@XZ
	??1?$_Tree_unchecked_const_iterator@V?$_Tree_val@U?$_Tree_simple_types@U?$pair@$$CBV?$basic_string@DU?$char_traits@D@std@@V?$allocator@D@2@@std@@PAUggml_tensor@@@std@@@std@@@std@@U_Iterator_base12@2@@std@@QAE@XZ
	??1?$_Tree_unchecked_const_iterator@V?$_Tree_val@U?$_Tree_simple_types@U?$pair@QAUggml_backend_buffer_type@@PAUggml_context@@@std@@@std@@@std@@U_Iterator_base12@2@@std@@QAE@XZ
	??1?$_Uninitialized_backout_al@V?$allocator@D@std@@@std@@QAE@XZ
	??1?$_Uninitialized_backout_al@V?$allocator@E@std@@@std@@QAE@XZ
	??1?$_Uninitialized_backout_al@V?$allocator@H@std@@@std@@QAE@XZ
	??1?$_Uninitialized_backout_al@V?$allocator@I@std@@@std@@QAE@XZ
	??1?$_Uninitialized_backout_al@V?$allocator@M@std@@@std@@QAE@XZ
	??1?$_Uninitialized_backout_al@V?$allocator@N@std@@@std@@QAE@XZ
	??1?$_Uninitialized_backout_al@V?$allocator@PAUggml_backend@@@std@@@std@@QAE@XZ
	??1?$_Uninitialized_backout_al@V?$allocator@PAUggml_backend_buffer@@@std@@@std@@QAE@XZ
	??1?$_Uninitialized_backout_al@V?$allocator@PAUggml_context@@@std@@@std@@QAE@XZ
